

Microchip MPLAB XC8 Assembler V2.32 build 20210201212658 
                                                                                               Thu Dec 12 07:48:12 2024

Microchip MPLAB XC8 C Compiler v2.32 (Free license) build 20210201212658 Og1 
     1                           	processor	18F4550
     2                           	fnconf	rparam,??,?,0
     3                           	pagewidth 120
     4                           	opt	flic
     5                           	psect	idataCOMRAM,global,class=CODE,delta=1,noexec
     6                           	psect	idataBANK0,global,class=CODE,delta=1,noexec
     7                           	psect	smallconst,global,reloc=2,class=SMALLCONST,delta=1,noexec
     8                           	psect	cinit,global,reloc=2,class=CODE,delta=1
     9                           	psect	bssCOMRAM,global,class=COMRAM,space=1,delta=1,lowdata,noexec
    10                           	psect	dataCOMRAM,global,class=COMRAM,space=1,delta=1,lowdata,noexec
    11                           	psect	bssBANK0,global,class=BANK0,space=1,delta=1,lowdata,noexec
    12                           	psect	dataBANK0,global,class=BANK0,space=1,delta=1,lowdata,noexec
    13                           	psect	cstackBANK0,global,class=BANK0,space=1,delta=1,lowdata,noexec
    14                           	psect	cstackCOMRAM,global,class=COMRAM,space=1,delta=1,lowdata,noexec
    15                           	psect	text0,global,reloc=2,class=CODE,delta=1
    16                           	psect	text1,global,reloc=2,class=CODE,delta=1
    17                           	psect	text2,global,reloc=2,class=CODE,delta=1
    18                           	psect	text3,global,reloc=2,class=CODE,delta=1,group=1
    19                           	psect	text4,global,reloc=2,class=CODE,delta=1
    20                           	psect	text5,global,reloc=2,class=CODE,delta=1
    21                           	psect	text6,global,reloc=2,class=CODE,delta=1
    22                           	psect	text7,global,reloc=2,class=CODE,delta=1,group=1
    23                           	psect	text8,global,reloc=2,class=CODE,delta=1,group=1
    24                           	psect	text9,global,reloc=2,class=CODE,delta=1,group=1
    25                           	psect	text10,global,reloc=2,class=CODE,delta=1,group=1
    26                           	psect	text11,global,reloc=2,class=CODE,delta=1,group=1
    27                           	psect	text12,global,reloc=2,class=CODE,delta=1,group=1
    28                           	psect	text13,global,reloc=2,class=CODE,delta=1,group=1
    29                           	psect	text14,global,reloc=2,class=CODE,delta=1
    30                           	psect	text15,global,reloc=2,class=CODE,delta=1
    31                           	psect	text16,global,reloc=2,class=CODE,delta=1
    32                           	psect	text17,global,reloc=2,class=CODE,delta=1
    33                           	psect	text18,global,reloc=2,class=CODE,delta=1
    34                           	psect	text19,global,reloc=2,class=CODE,delta=1
    35                           	psect	text20,global,reloc=2,class=CODE,delta=1
    36                           	psect	text21,global,reloc=2,class=CODE,delta=1
    37                           	psect	text22,global,reloc=2,class=CODE,delta=1
    38                           	psect	text23,global,reloc=2,class=CODE,delta=1
    39                           	psect	text24,global,reloc=2,class=CODE,delta=1
    40                           	psect	text25,global,reloc=2,class=CODE,delta=1
    41                           	psect	text26,global,reloc=2,class=CODE,delta=1,group=1
    42                           	psect	text27,global,reloc=2,class=CODE,delta=1,group=1
    43                           	psect	text28,global,reloc=2,class=CODE,delta=1,group=1
    44                           	psect	intcode,global,reloc=2,class=CODE,delta=1
    45                           	psect	intcode_body,global,reloc=2,class=CODE,delta=1
    46                           	psect	text30,global,reloc=2,class=CODE,delta=1
    47                           	psect	intsave_regs,global,class=BIGRAM,space=1,delta=1,noexec
    48                           	psect	rparam,global,class=COMRAM,space=1,delta=1,noexec
    49                           	psect	temp,global,ovrld,common,class=COMRAM,space=1,delta=1
    50                           	psect	idloc,global,abs,ovrld,class=IDLOC,space=5,delta=1,noexec
    51                           	psect	config,global,abs,ovrld,class=CONFIG,space=4,delta=1,noexec
    52  0000                     
    53                           ; Version 2.32
    54                           ; Generated 02/02/2021 GMT
    55                           ; 
    56                           ; Copyright © 2021, Microchip Technology Inc. and its subsidiaries ("Microchip")
    57                           ; All rights reserved.
    58                           ; 
    59                           ; This software is developed by Microchip Technology Inc. and its subsidiaries ("Microch
      +                          ip").
    60                           ; 
    61                           ; Redistribution and use in source and binary forms, with or without modification, are
    62                           ; permitted provided that the following conditions are met:
    63                           ; 
    64                           ;     1. Redistributions of source code must retain the above copyright notice, this lis
      +                          t of
    65                           ;        conditions and the following disclaimer.
    66                           ; 
    67                           ;     2. Redistributions in binary form must reproduce the above copyright notice, this 
      +                          list
    68                           ;        of conditions and the following disclaimer in the documentation and/or other
    69                           ;        materials provided with the distribution. Publication is not required when
    70                           ;        this file is used in an embedded application.
    71                           ; 
    72                           ;     3. Microchip's name may not be used to endorse or promote products derived from th
      +                          is
    73                           ;        software without specific prior written permission.
    74                           ; 
    75                           ; THIS SOFTWARE IS PROVIDED BY MICROCHIP "AS IS" AND ANY EXPRESS OR IMPLIED WARRANTIES,
    76                           ; INCLUDING, BUT NOT LIMITED TO, THE IMPLIED WARRANTIES OF MERCHANTABILITY AND FITNESS F
      +                          OR
    77                           ; PURPOSE ARE DISCLAIMED.  IN NO EVENT SHALL MICROCHIP BE LIABLE FOR ANY DIRECT, INDIREC
      +                          T,
    78                           ; INCIDENTAL, SPECIAL, EXEMPLARY, OR CONSEQUENTIAL DAMAGES (INCLUDING BUT NOT LIMITED TO
    79                           ; PROCUREMENT OF SUBSTITUTE GOODS OR SERVICES; LOSS OF USE, DATA OR PROFITS; OR BUSINESS
    80                           ; INTERRUPTION) HOWSOEVER CAUSED AND ON ANY THEORY OF LIABILITY, WHETHER IN CONTRACT, ST
      +                          RICT
    81                           ; LIABILITY, OR TORT (INCLUDING NEGLIGENCE OR OTHERWISE) ARISING IN ANY WAY OUT OF THE U
      +                          SE OF
    82                           ; THIS SOFTWARE, EVEN IF ADVISED OF THE POSSIBILITY OF SUCH DAMAGE.
    83                           ; 
    84                           ; 
    85                           ; Code-generator required, PIC18F4550 Definitions
    86                           ; 
    87                           ; SFR Addresses
    88  0000                     
    89                           	psect	idataCOMRAM
    90  00245A                     __pidataCOMRAM:
    91                           	callstack 0
    92                           
    93                           ;initializer for _Vmax
    94  00245A  0003               	dw	3
    95                           
    96                           	psect	idataBANK0
    97  00245C                     __pidataBANK0:
    98                           	callstack 0
    99                           
   100                           ;initializer for _tempuu
   101  00245C  0009               	dw	9
   102                           
   103                           	psect	smallconst
   104  000800                     __psmallconst:
   105                           	callstack 0
   106  000800  00                 	db	0
   107  000801                     _keymap:
   108                           	callstack 0
   109  000801  31                 	db	49
   110  000802  32                 	db	50
   111  000803  33                 	db	51
   112  000804  41                 	db	65
   113  000805  34                 	db	52
   114  000806  35                 	db	53
   115  000807  36                 	db	54
   116  000808  42                 	db	66
   117  000809  37                 	db	55
   118  00080A  38                 	db	56
   119  00080B  39                 	db	57
   120  00080C  43                 	db	67
   121  00080D  46                 	db	70
   122  00080E  30                 	db	48
   123  00080F  45                 	db	69
   124  000810  44                 	db	68
   125  000811                     __end_of_keymap:
   126                           	callstack 0
   127  000811                     readKey@F3244:
   128                           	callstack 0
   129  000811  0003               	dw	3
   130  000813  0002               	dw	2
   131  000815  0001               	dw	1
   132  000817  0000               	dw	0
   133  000819                     __end_ofreadKey@F3244:
   134                           	callstack 0
   135  0000                     _ADRESL	set	4035
   136  0000                     _ADRESH	set	4036
   137  0000                     _ADCON0bits	set	4034
   138  0000                     _PORTB	set	3969
   139  0000                     _LATB	set	3978
   140  0000                     _T0CON	set	4053
   141  0000                     _INTCON2bits	set	4081
   142  0000                     _RCONbits	set	4048
   143  0000                     _ADCON2	set	4032
   144  0000                     _ADCON0	set	4034
   145  0000                     _ADCON1	set	4033
   146  0000                     _TRISDbits	set	3989
   147  0000                     _TRISAbits	set	3986
   148  0000                     _TRISB	set	3987
   149  0000                     _TMR0L	set	4054
   150  0000                     _TMR0H	set	4055
   151  0000                     _PORTDbits	set	3971
   152  0000                     _INTCONbits	set	4082
   153  0000                     _LATEbits	set	3981
   154  0000                     _TRISEbits	set	3990
   155  0000                     _TRISD	set	3989
   156  0000                     _PORTD	set	3971
   157  000819                     STR_3:
   158  000819  43                 	db	67	;'C'
   159  00081A  6F                 	db	111	;'o'
   160  00081B  75                 	db	117	;'u'
   161  00081C  6E                 	db	110	;'n'
   162  00081D  74                 	db	116	;'t'
   163  00081E  64                 	db	100	;'d'
   164  00081F  6F                 	db	111	;'o'
   165  000820  77                 	db	119	;'w'
   166  000821  6E                 	db	110	;'n'
   167  000822  3A                 	db	58	;':'
   168  000823  00                 	db	0
   169  000824                     STR_2:
   170  000824  4C                 	db	76	;'L'
   171  000825  45                 	db	69	;'E'
   172  000826  44                 	db	68	;'D'
   173  000827  3A                 	db	58	;':'
   174  000828  4F                 	db	79	;'O'
   175  000829  6E                 	db	110	;'n'
   176  00082A  20                 	db	32
   177  00082B  00                 	db	0
   178  00082C                     STR_1:
   179  00082C  4C                 	db	76	;'L'
   180  00082D  45                 	db	69	;'E'
   181  00082E  44                 	db	68	;'D'
   182  00082F  3A                 	db	58	;':'
   183  000830  4F                 	db	79	;'O'
   184  000831  66                 	db	102	;'f'
   185  000832  66                 	db	102	;'f'
   186  000833  00                 	db	0
   187  000834                     STR_4:
   188  000834  56                 	db	86	;'V'
   189  000835  69                 	db	105	;'i'
   190  000836  6E                 	db	110	;'n'
   191  000837  3A                 	db	58	;':'
   192  000838  00                 	db	0
   193  000839  00                 	db	0	; dummy byte at the end
   194  0000                     
   195                           ; #config settings
   196                           
   197                           	psect	cinit
   198  002240                     __pcinit:
   199                           	callstack 0
   200  002240                     start_initialization:
   201                           	callstack 0
   202  002240                     __initialization:
   203                           	callstack 0
   204                           
   205                           ; Initialize objects allocated to BANK0 (2 bytes)
   206                           ; load TBLPTR registers with __pidataBANK0
   207  002240  0E5C               	movlw	low __pidataBANK0
   208  002242  6EF6               	movwf	tblptrl,c
   209  002244  0E24               	movlw	high __pidataBANK0
   210  002246  6EF7               	movwf	tblptrh,c
   211  002248  0E00               	movlw	low (__pidataBANK0 shr (0+16))
   212  00224A  6EF8               	movwf	tblptru,c
   213  00224C  0009               	tblrd		*+	;fetch initializer
   214  00224E  CFF5 F0A0          	movff	tablat,__pdataBANK0
   215  002252  0009               	tblrd		*+	;fetch initializer
   216  002254  CFF5 F0A1          	movff	tablat,__pdataBANK0+1
   217                           
   218                           ; Initialize objects allocated to COMRAM (2 bytes)
   219                           ; load TBLPTR registers with __pidataCOMRAM
   220  002258  0E5A               	movlw	low __pidataCOMRAM
   221  00225A  6EF6               	movwf	tblptrl,c
   222  00225C  0E24               	movlw	high __pidataCOMRAM
   223  00225E  6EF7               	movwf	tblptrh,c
   224  002260  0E00               	movlw	low (__pidataCOMRAM shr (0+16))
   225  002262  6EF8               	movwf	tblptru,c
   226  002264  0009               	tblrd		*+	;fetch initializer
   227  002266  CFF5 F040          	movff	tablat,__pdataCOMRAM
   228  00226A  0009               	tblrd		*+	;fetch initializer
   229  00226C  CFF5 F041          	movff	tablat,__pdataCOMRAM+1
   230                           
   231                           ; Clear objects allocated to BANK0 (5 bytes)
   232  002270  0100               	movlb	0
   233  002272  6B9F               	clrf	(__pbssBANK0+4)& (0+255),b
   234  002274  6B9E               	clrf	(__pbssBANK0+3)& (0+255),b
   235  002276  6B9D               	clrf	(__pbssBANK0+2)& (0+255),b
   236  002278  6B9C               	clrf	(__pbssBANK0+1)& (0+255),b
   237  00227A  6B9B               	clrf	__pbssBANK0& (0+255),b
   238                           
   239                           ; Clear objects allocated to COMRAM (6 bytes)
   240  00227C  6A3F               	clrf	(__pbssCOMRAM+5)& (0+255),c
   241  00227E  6A3E               	clrf	(__pbssCOMRAM+4)& (0+255),c
   242  002280  6A3D               	clrf	(__pbssCOMRAM+3)& (0+255),c
   243  002282  6A3C               	clrf	(__pbssCOMRAM+2)& (0+255),c
   244  002284  6A3B               	clrf	(__pbssCOMRAM+1)& (0+255),c
   245  002286  6A3A               	clrf	__pbssCOMRAM& (0+255),c
   246  002288                     end_of_initialization:
   247                           	callstack 0
   248  002288                     __end_of__initialization:
   249                           	callstack 0
   250  002288  9042               	bcf	int$flags,0,c	;clear compiler interrupt flag (level 1)
   251  00228A  9242               	bcf	int$flags,1,c	;clear compiler interrupt flag (level 2)
   252  00228C  0E00               	movlw	low (__Lmediumconst shr (0+16))
   253  00228E  6EF8               	movwf	tblptru,c
   254  002290  0100               	movlb	0
   255  002292  EF3B  F00B         	goto	_main	;jump to C main() function
   256                           
   257                           	psect	bssCOMRAM
   258  00003A                     __pbssCOMRAM:
   259                           	callstack 0
   260  00003A                     ISR@tik:
   261                           	callstack 0
   262  00003A                     	ds	2
   263  00003C                     _intTempo:
   264                           	callstack 0
   265  00003C                     	ds	2
   266  00003E                     readKey@currentKey:
   267                           	callstack 0
   268  00003E                     	ds	1
   269  00003F                     _keyPressed:
   270                           	callstack 0
   271  00003F                     	ds	1
   272                           
   273                           	psect	dataCOMRAM
   274  000040                     __pdataCOMRAM:
   275                           	callstack 0
   276  000040                     _Vmax:
   277                           	callstack 0
   278  000040                     	ds	2
   279                           
   280                           	psect	bssBANK0
   281  00009B                     __pbssBANK0:
   282                           	callstack 0
   283  00009B                     _tak:
   284                           	callstack 0
   285  00009B                     	ds	2
   286  00009D                     _stringTempo:
   287                           	callstack 0
   288  00009D                     	ds	3
   289                           
   290                           	psect	dataBANK0
   291  0000A0                     __pdataBANK0:
   292                           	callstack 0
   293  0000A0                     _tempuu:
   294                           	callstack 0
   295  0000A0                     	ds	2
   296                           
   297                           	psect	cstackBANK0
   298  000060                     __pcstackBANK0:
   299                           	callstack 0
   300  000060                     ___fldiv@rem:
   301                           	callstack 0
   302                           
   303                           ; 4 bytes @ 0x0
   304  000060                     	ds	4
   305  000064                     ___fldiv@sign:
   306                           	callstack 0
   307                           
   308                           ; 1 bytes @ 0x4
   309  000064                     	ds	1
   310  000065                     ___fldiv@new_exp:
   311                           	callstack 0
   312                           
   313                           ; 2 bytes @ 0x5
   314  000065                     	ds	2
   315  000067                     ___fldiv@grs:
   316                           	callstack 0
   317                           
   318                           ; 4 bytes @ 0x7
   319  000067                     	ds	4
   320  00006B                     ___fldiv@bexp:
   321                           	callstack 0
   322                           
   323                           ; 1 bytes @ 0xB
   324  00006B                     	ds	1
   325  00006C                     ___fldiv@aexp:
   326                           	callstack 0
   327                           
   328                           ; 1 bytes @ 0xC
   329  00006C                     	ds	1
   330  00006D                     ?___flmul:
   331                           	callstack 0
   332  00006D                     ___flmul@b:
   333                           	callstack 0
   334                           
   335                           ; 4 bytes @ 0xD
   336  00006D                     	ds	4
   337  000071                     ___flmul@a:
   338                           	callstack 0
   339                           
   340                           ; 4 bytes @ 0x11
   341  000071                     	ds	4
   342  000075                     ??___flmul:
   343                           
   344                           ; 1 bytes @ 0x15
   345  000075                     	ds	4
   346  000079                     ___flmul@sign:
   347                           	callstack 0
   348                           
   349                           ; 1 bytes @ 0x19
   350  000079                     	ds	1
   351  00007A                     ___flmul@aexp:
   352                           	callstack 0
   353                           
   354                           ; 1 bytes @ 0x1A
   355  00007A                     	ds	1
   356  00007B                     ___flmul@grs:
   357                           	callstack 0
   358                           
   359                           ; 4 bytes @ 0x1B
   360  00007B                     	ds	4
   361  00007F                     ___flmul@bexp:
   362                           	callstack 0
   363                           
   364                           ; 1 bytes @ 0x1F
   365  00007F                     	ds	1
   366  000080                     ___flmul@prod:
   367                           	callstack 0
   368                           
   369                           ; 4 bytes @ 0x20
   370  000080                     	ds	4
   371  000084                     ___flmul@temp:
   372                           	callstack 0
   373                           
   374                           ; 2 bytes @ 0x24
   375  000084                     	ds	2
   376  000086                     ?_readAnalog:
   377                           	callstack 0
   378  000086                     ?___fltol:
   379                           	callstack 0
   380  000086                     ___fltol@f1:
   381                           	callstack 0
   382                           
   383                           ; 4 bytes @ 0x26
   384  000086                     	ds	4
   385  00008A                     ??___fltol:
   386  00008A                     readAnalog@result:
   387                           	callstack 0
   388                           
   389                           ; 2 bytes @ 0x2A
   390  00008A                     	ds	4
   391  00008E                     displayStuff@V_analog:
   392                           	callstack 0
   393                           
   394                           ; 4 bytes @ 0x2E
   395  00008E                     	ds	4
   396  000092                     displayStuff@inteiro:
   397                           	callstack 0
   398                           
   399                           ; 2 bytes @ 0x32
   400  000092                     	ds	2
   401  000094                     displayStuff@decimal:
   402                           	callstack 0
   403                           
   404                           ; 2 bytes @ 0x34
   405  000094                     	ds	2
   406  000096                     main@V_analog:
   407                           	callstack 0
   408                           
   409                           ; 4 bytes @ 0x36
   410  000096                     	ds	4
   411  00009A                     main@key:
   412                           	callstack 0
   413                           
   414                           ; 1 bytes @ 0x3A
   415  00009A                     	ds	1
   416                           
   417                           	psect	cstackCOMRAM
   418  000001                     __pcstackCOMRAM:
   419                           	callstack 0
   420  000001                     ??i2_readKey:
   421  000001                     
   422                           ; 1 bytes @ 0x0
   423  000001                     	ds	6
   424  000007                     i2readKey@InvCol:
   425                           	callstack 0
   426                           
   427                           ; 8 bytes @ 0x6
   428  000007                     	ds	8
   429  00000F                     i2readKey@col:
   430                           	callstack 0
   431                           
   432                           ; 2 bytes @ 0xE
   433  00000F                     	ds	2
   434  000011                     i2readKey@row:
   435                           	callstack 0
   436                           
   437                           ; 2 bytes @ 0x10
   438  000011                     	ds	2
   439  000013                     ??_ISR:
   440                           
   441                           ; 1 bytes @ 0x12
   442  000013                     	ds	10
   443  00001D                     ISR@tecla:
   444                           	callstack 0
   445                           
   446                           ; 1 bytes @ 0x1C
   447  00001D                     	ds	1
   448  00001E                     ??_readKey:
   449  00001E                     ??_DelayPORXLCD:
   450  00001E                     ??_DelayXLCD:
   451  00001E                     ?___awdiv:
   452                           	callstack 0
   453  00001E                     ?___awmod:
   454                           	callstack 0
   455  00001E                     ?___lwdiv:
   456                           	callstack 0
   457  00001E                     ?___lwmod:
   458                           	callstack 0
   459  00001E                     ?___fladd:
   460                           	callstack 0
   461  00001E                     ?___xxtofl:
   462                           	callstack 0
   463  00001E                     SetDDRamAddr@DDaddr:
   464                           	callstack 0
   465  00001E                     WriteCmdXLCD@cmd:
   466                           	callstack 0
   467  00001E                     WriteDataXLCD@data:
   468                           	callstack 0
   469  00001E                     ___awdiv@dividend:
   470                           	callstack 0
   471  00001E                     ___awmod@dividend:
   472                           	callstack 0
   473  00001E                     ___lwdiv@dividend:
   474                           	callstack 0
   475  00001E                     ___lwmod@dividend:
   476                           	callstack 0
   477  00001E                     ___flge@ff1:
   478                           	callstack 0
   479  00001E                     ___fladd@b:
   480                           	callstack 0
   481  00001E                     ___xxtofl@val:
   482                           	callstack 0
   483                           
   484                           ; 4 bytes @ 0x1D
   485  00001E                     	ds	1
   486  00001F                     OpenXLCD@lcdtype:
   487                           	callstack 0
   488  00001F                     putsXLCD@buffer:
   489                           	callstack 0
   490                           
   491                           ; 2 bytes @ 0x1E
   492  00001F                     	ds	1
   493  000020                     ___awdiv@divisor:
   494                           	callstack 0
   495  000020                     ___awmod@divisor:
   496                           	callstack 0
   497  000020                     ___lwdiv@divisor:
   498                           	callstack 0
   499  000020                     ___lwmod@divisor:
   500                           	callstack 0
   501                           
   502                           ; 2 bytes @ 0x1F
   503  000020                     	ds	1
   504  000021                     
   505                           ; 1 bytes @ 0x20
   506  000021                     	ds	1
   507  000022                     ??___xxtofl:
   508  000022                     ___awdiv@counter:
   509                           	callstack 0
   510  000022                     ___awmod@counter:
   511                           	callstack 0
   512  000022                     ___lwmod@counter:
   513                           	callstack 0
   514  000022                     ___lwdiv@quotient:
   515                           	callstack 0
   516  000022                     ___flge@ff2:
   517                           	callstack 0
   518  000022                     ___fladd@a:
   519                           	callstack 0
   520                           
   521                           ; 4 bytes @ 0x21
   522  000022                     	ds	1
   523  000023                     ___awdiv@sign:
   524                           	callstack 0
   525  000023                     ___awmod@sign:
   526                           	callstack 0
   527                           
   528                           ; 1 bytes @ 0x22
   529  000023                     	ds	1
   530  000024                     ___lwdiv@counter:
   531                           	callstack 0
   532  000024                     ___awdiv@quotient:
   533                           	callstack 0
   534  000024                     readKey@InvCol:
   535                           	callstack 0
   536                           
   537                           ; 8 bytes @ 0x23
   538  000024                     	ds	2
   539  000026                     ??___fladd:
   540  000026                     ??___flge:
   541  000026                     ___xxtofl@sign:
   542                           	callstack 0
   543                           
   544                           ; 1 bytes @ 0x25
   545  000026                     	ds	1
   546  000027                     ___xxtofl@exp:
   547                           	callstack 0
   548                           
   549                           ; 1 bytes @ 0x26
   550  000027                     	ds	1
   551  000028                     ___xxtofl@arg:
   552                           	callstack 0
   553                           
   554                           ; 4 bytes @ 0x27
   555  000028                     	ds	2
   556  00002A                     ___fladd@signs:
   557                           	callstack 0
   558                           
   559                           ; 1 bytes @ 0x29
   560  00002A                     	ds	1
   561  00002B                     ___fladd@aexp:
   562                           	callstack 0
   563                           
   564                           ; 1 bytes @ 0x2A
   565  00002B                     	ds	1
   566  00002C                     ?___fldiv:
   567                           	callstack 0
   568  00002C                     ___fladd@bexp:
   569                           	callstack 0
   570  00002C                     readKey@col:
   571                           	callstack 0
   572  00002C                     ___fldiv@b:
   573                           	callstack 0
   574                           
   575                           ; 4 bytes @ 0x2B
   576  00002C                     	ds	1
   577  00002D                     ___fladd@grs:
   578                           	callstack 0
   579                           
   580                           ; 1 bytes @ 0x2C
   581  00002D                     	ds	1
   582  00002E                     ?___flsub:
   583                           	callstack 0
   584  00002E                     readKey@row:
   585                           	callstack 0
   586  00002E                     ___flsub@b:
   587                           	callstack 0
   588                           
   589                           ; 4 bytes @ 0x2D
   590  00002E                     	ds	2
   591  000030                     ___fldiv@a:
   592                           	callstack 0
   593                           
   594                           ; 4 bytes @ 0x2F
   595  000030                     	ds	2
   596  000032                     ___flsub@a:
   597                           	callstack 0
   598                           
   599                           ; 4 bytes @ 0x31
   600  000032                     	ds	2
   601  000034                     ??___fldiv:
   602                           
   603                           ; 1 bytes @ 0x33
   604  000034                     	ds	2
   605  000036                     
   606                           ; 1 bytes @ 0x35
   607  000036                     	ds	2
   608  000038                     ??_readAnalog:
   609  000038                     ___fltol@sign1:
   610                           	callstack 0
   611                           
   612                           ; 1 bytes @ 0x37
   613  000038                     	ds	1
   614  000039                     ___fltol@exp1:
   615                           	callstack 0
   616                           
   617                           ; 1 bytes @ 0x38
   618  000039                     	ds	1
   619  00003A                     
   620                           ; 1 bytes @ 0x39
   621 ;;
   622 ;;Main: autosize = 0, tempsize = 0, incstack = 0, save=0
   623 ;;
   624 ;; *************** function _main *****************
   625 ;; Defined at:
   626 ;;		line 117 in file "../ProjetoF_micro.X/main.c"
   627 ;; Parameters:    Size  Location     Type
   628 ;;		None
   629 ;; Auto vars:     Size  Location     Type
   630 ;;  V_analog        4   54[BANK0 ] float 
   631 ;;  intKey          2    0        int 
   632 ;;  key             1   58[BANK0 ] unsigned char 
   633 ;; Return value:  Size  Location     Type
   634 ;;                  1    wreg      void 
   635 ;; Registers used:
   636 ;;		wreg, fsr0l, fsr0h, fsr2l, fsr2h, status,2, status,0, tblptrl, tblptrh, tblptru, prodl, prodh, cstack
   637 ;; Tracked objects:
   638 ;;		On entry : 0/0
   639 ;;		On exit  : 0/0
   640 ;;		Unchanged: 0/0
   641 ;; Data sizes:     COMRAM   BANK0   BANK1   BANK2   BANK3   BANK4   BANK5   BANK6   BANK7
   642 ;;      Params:         0       0       0       0       0       0       0       0       0
   643 ;;      Locals:         0       5       0       0       0       0       0       0       0
   644 ;;      Temps:          0       0       0       0       0       0       0       0       0
   645 ;;      Totals:         0       5       0       0       0       0       0       0       0
   646 ;;Total ram usage:        5 bytes
   647 ;; Hardware stack levels required when called: 6
   648 ;; This function calls:
   649 ;;		_WriteCmdXLCD
   650 ;;		___flge
   651 ;;		___lwdiv
   652 ;;		___lwmod
   653 ;;		_configureADC
   654 ;;		_configureIO
   655 ;;		_configureInterrupt
   656 ;;		_configureLCD
   657 ;;		_configureTimer
   658 ;;		_displayStuff
   659 ;;		_putsXLCD
   660 ;;		_readAnalog
   661 ;;		_readKey
   662 ;; This function is called by:
   663 ;;		Startup code after reset
   664 ;; This function uses a non-reentrant model
   665 ;;
   666                           
   667                           	psect	text0
   668  001676                     __ptext0:
   669                           	callstack 0
   670  001676                     _main:
   671                           	callstack 25
   672  001676                     
   673                           ;../ProjetoF_micro.X/main.c: 120:     float V_analog;;../ProjetoF_micro.X/main.c: 122:  
      +                             INTCONbits.TMR0IF = 0;
   674  001676  94F2               	bcf	242,2,c	;volatile
   675  001678                     
   676                           ;../ProjetoF_micro.X/main.c: 125:     configureIO();
   677  001678  EC12  F012         	call	_configureIO	;wreg free
   678  00167C                     
   679                           ;../ProjetoF_micro.X/main.c: 126:     configureADC();
   680  00167C  EC21  F012         	call	_configureADC	;wreg free
   681  001680                     
   682                           ;../ProjetoF_micro.X/main.c: 127:     configureLCD();
   683  001680  EC1A  F012         	call	_configureLCD	;wreg free
   684  001684                     
   685                           ;../ProjetoF_micro.X/main.c: 128:     configureTimer();
   686  001684  EC02  F012         	call	_configureTimer	;wreg free
   687  001688                     
   688                           ;../ProjetoF_micro.X/main.c: 129:     configureInterrupt();
   689  001688  ECEF  F011         	call	_configureInterrupt	;wreg free
   690  00168C                     l3419:
   691                           
   692                           ;../ProjetoF_micro.X/main.c: 133:         key = readKey();
   693  00168C  ECEC  F00B         	call	_readKey	;wreg free
   694  001690  0100               	movlb	0	; () banked
   695  001692  6F9A               	movwf	main@key& (0+255),b
   696  001694                     
   697                           ; BSR set to: 0
   698                           ;../ProjetoF_micro.X/main.c: 135:         V_analog = readAnalog();
   699  001694  EC30  F010         	call	_readAnalog	;wreg free
   700  001698  C086  F096         	movff	?_readAnalog,main@V_analog
   701  00169C  C087  F097         	movff	?_readAnalog+1,main@V_analog+1
   702  0016A0  C088  F098         	movff	?_readAnalog+2,main@V_analog+2
   703  0016A4  C089  F099         	movff	?_readAnalog+3,main@V_analog+3
   704  0016A8                     
   705                           ;../ProjetoF_micro.X/main.c: 136:         displayStuff(key, V_analog);
   706  0016A8  C096  F08E         	movff	main@V_analog,displayStuff@V_analog
   707  0016AC  C097  F08F         	movff	main@V_analog+1,displayStuff@V_analog+1
   708  0016B0  C098  F090         	movff	main@V_analog+2,displayStuff@V_analog+2
   709  0016B4  C099  F091         	movff	main@V_analog+3,displayStuff@V_analog+3
   710  0016B8  0100               	movlb	0	; () banked
   711  0016BA  519A               	movf	main@key& (0+255),w,b
   712  0016BC  EC1C  F00E         	call	_displayStuff
   713  0016C0                     
   714                           ;../ProjetoF_micro.X/main.c: 139:         if (V_analog < 3) {
   715  0016C0  C096  F01E         	movff	main@V_analog,___flge@ff1
   716  0016C4  C097  F01F         	movff	main@V_analog+1,___flge@ff1+1
   717  0016C8  C098  F020         	movff	main@V_analog+2,___flge@ff1+2
   718  0016CC  C099  F021         	movff	main@V_analog+3,___flge@ff1+3
   719  0016D0  0E00               	movlw	0
   720  0016D2  6E22               	movwf	___flge@ff2^0,c
   721  0016D4  0E00               	movlw	0
   722  0016D6  6E23               	movwf	(___flge@ff2+1)^0,c
   723  0016D8  0E40               	movlw	64
   724  0016DA  6E24               	movwf	(___flge@ff2+2)^0,c
   725  0016DC  0E40               	movlw	64
   726  0016DE  6E25               	movwf	(___flge@ff2+3)^0,c
   727  0016E0  EC9A  F00D         	call	___flge	;wreg free
   728  0016E4  B0D8               	btfsc	status,0,c
   729  0016E6  EF77  F00B         	goto	u3331
   730  0016EA  EF79  F00B         	goto	u3330
   731  0016EE                     u3331:
   732  0016EE  EF85  F00B         	goto	l172
   733  0016F2                     u3330:
   734  0016F2                     
   735                           ;../ProjetoF_micro.X/main.c: 140:             PORTDbits.RD0 = 0;
   736  0016F2  9083               	bcf	131,0,c	;volatile
   737  0016F4                     
   738                           ;../ProjetoF_micro.X/main.c: 141:             WriteCmdXLCD(0xC0);
   739  0016F4  0EC0               	movlw	192
   740  0016F6  ECD0  F011         	call	_WriteCmdXLCD
   741  0016FA                     
   742                           ;../ProjetoF_micro.X/main.c: 142:             putsXLCD("LED:Off");
   743  0016FA  0E2C               	movlw	low STR_1
   744  0016FC  6E1F               	movwf	putsXLCD@buffer^0,c
   745  0016FE  0E08               	movlw	high STR_1
   746  001700  6E20               	movwf	(putsXLCD@buffer+1)^0,c
   747  001702  ECB5  F010         	call	_putsXLCD	;wreg free
   748                           
   749                           ;../ProjetoF_micro.X/main.c: 143:         } else {
   750  001706  EF8F  F00B         	goto	l3437
   751  00170A                     l172:
   752                           
   753                           ;../ProjetoF_micro.X/main.c: 144:             PORTDbits.RD0 = 1;
   754  00170A  8083               	bsf	131,0,c	;volatile
   755  00170C                     
   756                           ;../ProjetoF_micro.X/main.c: 145:             WriteCmdXLCD(0xC0);
   757  00170C  0EC0               	movlw	192
   758  00170E  ECD0  F011         	call	_WriteCmdXLCD
   759  001712                     
   760                           ;../ProjetoF_micro.X/main.c: 146:             putsXLCD("LED:On ");
   761  001712  0E24               	movlw	low STR_2
   762  001714  6E1F               	movwf	putsXLCD@buffer^0,c
   763  001716  0E08               	movlw	high STR_2
   764  001718  6E20               	movwf	(putsXLCD@buffer+1)^0,c
   765  00171A  ECB5  F010         	call	_putsXLCD	;wreg free
   766  00171E                     l3437:
   767                           
   768                           ;../ProjetoF_micro.X/main.c: 149:         if(tak!=0 && tempuu>0){
   769  00171E  0100               	movlb	0	; () banked
   770  001720  519B               	movf	_tak& (0+255),w,b
   771  001722  119C               	iorwf	(_tak+1)& (0+255),w,b
   772  001724  B4D8               	btfsc	status,2,c
   773  001726  EF97  F00B         	goto	u3341
   774  00172A  EF99  F00B         	goto	u3340
   775  00172E                     u3341:
   776  00172E  EFA9  F00B         	goto	l3445
   777  001732                     u3340:
   778  001732                     
   779                           ; BSR set to: 0
   780  001732  51A0               	movf	_tempuu& (0+255),w,b	;volatile
   781  001734  11A1               	iorwf	(_tempuu+1)& (0+255),w,b	;volatile
   782  001736  B4D8               	btfsc	status,2,c
   783  001738  EFA0  F00B         	goto	u3351
   784  00173C  EFA2  F00B         	goto	u3350
   785  001740                     u3351:
   786  001740  EFA9  F00B         	goto	l3445
   787  001744                     u3350:
   788  001744                     
   789                           ; BSR set to: 0
   790                           ;../ProjetoF_micro.X/main.c: 150:             tempuu--;
   791  001744  07A0               	decf	_tempuu& (0+255),f,b	;volatile
   792  001746  A0D8               	btfss	status,0,c
   793  001748  07A1               	decf	(_tempuu+1)& (0+255),f,b	;volatile
   794  00174A                     
   795                           ; BSR set to: 0
   796                           ;../ProjetoF_micro.X/main.c: 151:             tak=0;
   797  00174A  0E00               	movlw	0
   798  00174C  6F9C               	movwf	(_tak+1)& (0+255),b
   799  00174E  0E00               	movlw	0
   800  001750  6F9B               	movwf	_tak& (0+255),b
   801  001752                     l3445:
   802                           
   803                           ; BSR set to: 0
   804                           ;../ProjetoF_micro.X/main.c: 155:         if(tempuu>9){
   805  001752  51A1               	movf	(_tempuu+1)& (0+255),w,b	;volatile
   806  001754  E109               	bnz	u3360
   807  001756  0E0A               	movlw	10
   808  001758  5DA0               	subwf	_tempuu& (0+255),w,b	;volatile
   809  00175A  A0D8               	btfss	status,0,c
   810  00175C  EFB2  F00B         	goto	u3361
   811  001760  EFB4  F00B         	goto	u3360
   812  001764                     u3361:
   813  001764  EFB8  F00B         	goto	l3449
   814  001768                     u3360:
   815  001768                     
   816                           ; BSR set to: 0
   817                           ;../ProjetoF_micro.X/main.c: 156:             tempuu = 9;
   818  001768  0E00               	movlw	0
   819  00176A  6FA1               	movwf	(_tempuu+1)& (0+255),b	;volatile
   820  00176C  0E09               	movlw	9
   821  00176E  6FA0               	movwf	_tempuu& (0+255),b	;volatile
   822  001770                     l3449:
   823                           
   824                           ; BSR set to: 0
   825                           ;../ProjetoF_micro.X/main.c: 159:         WriteCmdXLCD(0x80);
   826  001770  0E80               	movlw	128
   827  001772  ECD0  F011         	call	_WriteCmdXLCD
   828  001776                     
   829                           ;../ProjetoF_micro.X/main.c: 160:         putsXLCD("Countdown:");
   830  001776  0E19               	movlw	low STR_3
   831  001778  6E1F               	movwf	putsXLCD@buffer^0,c
   832  00177A  0E08               	movlw	high STR_3
   833  00177C  6E20               	movwf	(putsXLCD@buffer+1)^0,c
   834  00177E  ECB5  F010         	call	_putsXLCD	;wreg free
   835  001782                     
   836                           ;../ProjetoF_micro.X/main.c: 163:         stringTempo[0] = (tempuu / 10) + '0';
   837  001782  C0A0  F01E         	movff	_tempuu,___lwdiv@dividend	;volatile
   838  001786  C0A1  F01F         	movff	_tempuu+1,___lwdiv@dividend+1	;volatile
   839  00178A  0E00               	movlw	0
   840  00178C  6E21               	movwf	(___lwdiv@divisor+1)^0,c
   841  00178E  0E0A               	movlw	10
   842  001790  6E20               	movwf	___lwdiv@divisor^0,c
   843  001792  EC7B  F010         	call	___lwdiv	;wreg free
   844  001796  501E               	movf	?___lwdiv^0,w,c
   845  001798  0F30               	addlw	48
   846  00179A  0100               	movlb	0	; () banked
   847  00179C  6F9D               	movwf	_stringTempo& (0+255),b
   848  00179E                     
   849                           ; BSR set to: 0
   850                           ;../ProjetoF_micro.X/main.c: 164:         stringTempo[1] = (tempuu % 10) + '0';
   851  00179E  C0A0  F01E         	movff	_tempuu,___lwmod@dividend	;volatile
   852  0017A2  C0A1  F01F         	movff	_tempuu+1,___lwmod@dividend+1	;volatile
   853  0017A6  0E00               	movlw	0
   854  0017A8  6E21               	movwf	(___lwmod@divisor+1)^0,c
   855  0017AA  0E0A               	movlw	10
   856  0017AC  6E20               	movwf	___lwmod@divisor^0,c
   857  0017AE  ECEE  F010         	call	___lwmod	;wreg free
   858  0017B2  501E               	movf	?___lwmod^0,w,c
   859  0017B4  0F30               	addlw	48
   860  0017B6  0100               	movlb	0	; () banked
   861  0017B8  6F9E               	movwf	(_stringTempo+1)& (0+255),b
   862  0017BA                     
   863                           ; BSR set to: 0
   864                           ;../ProjetoF_micro.X/main.c: 165:         stringTempo[2]='\0';
   865  0017BA  0E00               	movlw	0
   866  0017BC  6F9F               	movwf	(_stringTempo+2)& (0+255),b
   867  0017BE                     
   868                           ; BSR set to: 0
   869                           ;../ProjetoF_micro.X/main.c: 169:         WriteCmdXLCD(138);
   870  0017BE  0E8A               	movlw	138
   871  0017C0  ECD0  F011         	call	_WriteCmdXLCD
   872                           
   873                           ;../ProjetoF_micro.X/main.c: 171:         putsXLCD(stringTempo);
   874  0017C4  0E9D               	movlw	low _stringTempo
   875  0017C6  6E1F               	movwf	putsXLCD@buffer^0,c
   876  0017C8  0E00               	movlw	high _stringTempo
   877  0017CA  6E20               	movwf	(putsXLCD@buffer+1)^0,c
   878  0017CC  ECB5  F010         	call	_putsXLCD	;wreg free
   879  0017D0  EF46  F00B         	goto	l3419
   880  0017D4  EF07  F000         	goto	start
   881  0017D8                     __end_of_main:
   882                           	callstack 0
   883                           
   884 ;; *************** function _readKey *****************
   885 ;; Defined at:
   886 ;;		line 269 in file "../ProjetoF_micro.X/main.c"
   887 ;; Parameters:    Size  Location     Type
   888 ;;		None
   889 ;; Auto vars:     Size  Location     Type
   890 ;;  row             2   45[COMRAM] int 
   891 ;;  col             2   43[COMRAM] int 
   892 ;;  InvCol          8   35[COMRAM] const int [4]
   893 ;; Return value:  Size  Location     Type
   894 ;;                  1    wreg      unsigned char 
   895 ;; Registers used:
   896 ;;		wreg, fsr2l, fsr2h, status,2, status,0, tblptrl, tblptrh, tblptru
   897 ;; Tracked objects:
   898 ;;		On entry : 0/0
   899 ;;		On exit  : 0/0
   900 ;;		Unchanged: 0/0
   901 ;; Data sizes:     COMRAM   BANK0   BANK1   BANK2   BANK3   BANK4   BANK5   BANK6   BANK7
   902 ;;      Params:         0       0       0       0       0       0       0       0       0
   903 ;;      Locals:        12       0       0       0       0       0       0       0       0
   904 ;;      Temps:          6       0       0       0       0       0       0       0       0
   905 ;;      Totals:        18       0       0       0       0       0       0       0       0
   906 ;;Total ram usage:       18 bytes
   907 ;; Hardware stack levels used: 1
   908 ;; Hardware stack levels required when called: 2
   909 ;; This function calls:
   910 ;;		Nothing
   911 ;; This function is called by:
   912 ;;		_main
   913 ;; This function uses a non-reentrant model
   914 ;;
   915                           
   916                           	psect	text1
   917  0017D8                     __ptext1:
   918                           	callstack 0
   919  0017D8                     _readKey:
   920                           	callstack 28
   921  0017D8                     
   922                           ;../ProjetoF_micro.X/main.c: 270:     static char currentKey;;../ProjetoF_micro.X/main.c
      +                          : 271:     const int InvCol[4] = {3, 2, 1, 0};
   923  0017D8  0E11               	movlw	low readKey@F3244
   924  0017DA  6EF6               	movwf	tblptrl,c
   925  0017DC                     	if	1	;There is more than 1 active tblptr byte
   926  0017DC  0E08               	movlw	high readKey@F3244
   927  0017DE  6EF7               	movwf	tblptrh,c
   928  0017E0                     	endif
   929  0017E0                     	if	0	;There are less than 3 active tblptr bytes
   930  0017E0                     	endif
   931  0017E0  EE20  F024         	lfsr	2,readKey@InvCol
   932  0017E4  0E07               	movlw	7
   933  0017E6                     u2790:
   934  0017E6  0009               	tblrd		*+
   935  0017E8  CFF5 FFDE          	movff	tablat,postinc2
   936  0017EC  06E8               	decf	wreg,f,c
   937  0017EE  E2FB               	bc	u2790
   938  0017F0                     
   939                           ;../ProjetoF_micro.X/main.c: 273:     for (int col = 0; col < 4; col++) {
   940  0017F0  0E00               	movlw	0
   941  0017F2  6E2D               	movwf	(readKey@col+1)^0,c
   942  0017F4  0E00               	movlw	0
   943  0017F6  6E2C               	movwf	readKey@col^0,c
   944  0017F8                     l2929:
   945  0017F8  BE2D               	btfsc	(readKey@col+1)^0,7,c
   946  0017FA  EF08  F00C         	goto	u2801
   947  0017FE  502D               	movf	(readKey@col+1)^0,w,c
   948  001800  E109               	bnz	u2800
   949  001802  0E04               	movlw	4
   950  001804  5C2C               	subwf	readKey@col^0,w,c
   951  001806  A0D8               	btfss	status,0,c
   952  001808  EF08  F00C         	goto	u2801
   953  00180C  EF0A  F00C         	goto	u2800
   954  001810                     u2801:
   955  001810  EF0C  F00C         	goto	l2933
   956  001814                     u2800:
   957  001814  EF69  F00C         	goto	l2947
   958  001818                     l2933:
   959                           
   960                           ;../ProjetoF_micro.X/main.c: 274:         LATB = ~(1 << col);
   961  001818  C02C  F01E         	movff	readKey@col,??_readKey
   962  00181C  0E01               	movlw	1
   963  00181E  6E1F               	movwf	(??_readKey+1)^0,c
   964  001820  2A1E               	incf	??_readKey^0,f,c
   965  001822  EF15  F00C         	goto	u2814
   966  001826                     u2815:
   967  001826  90D8               	bcf	status,0,c
   968  001828  361F               	rlcf	(??_readKey+1)^0,f,c
   969  00182A                     u2814:
   970  00182A  2E1E               	decfsz	??_readKey^0,f,c
   971  00182C  EF13  F00C         	goto	u2815
   972  001830  501F               	movf	(??_readKey+1)^0,w,c
   973  001832  0AFF               	xorlw	255
   974  001834  6E8A               	movwf	138,c	;volatile
   975  001836                     
   976                           ;../ProjetoF_micro.X/main.c: 278:         _delay((unsigned long)((5)*(20000000/4000.0)))
      +                          ;
   977  001836  0E21               	movlw	33
   978  001838  6E1E               	movwf	??_readKey^0,c
   979  00183A  0E76               	movlw	118
   980  00183C                     u3377:
   981  00183C  2EE8               	decfsz	wreg,f,c
   982  00183E  D7FE               	bra	u3377
   983  001840  2E1E               	decfsz	??_readKey^0,f,c
   984  001842  D7FC               	bra	u3377
   985  001844  D000               	nop2	
   986  001846                     
   987                           ;../ProjetoF_micro.X/main.c: 280:         for (int row = 0; row < 4; row++) {
   988  001846  0E00               	movlw	0
   989  001848  6E2F               	movwf	(readKey@row+1)^0,c
   990  00184A  0E00               	movlw	0
   991  00184C  6E2E               	movwf	readKey@row^0,c
   992  00184E                     l2943:
   993                           
   994                           ;../ProjetoF_micro.X/main.c: 281:             if (!(PORTB & (1 << (row + 4)))) {
   995  00184E  C02E  F01E         	movff	readKey@row,??_readKey
   996  001852  0E04               	movlw	4
   997  001854  261E               	addwf	??_readKey^0,f,c
   998  001856  0E01               	movlw	1
   999  001858  6E1F               	movwf	(??_readKey+1)^0,c
  1000  00185A  2A1E               	incf	??_readKey^0,f,c
  1001  00185C  EF32  F00C         	goto	u2824
  1002  001860                     u2825:
  1003  001860  90D8               	bcf	status,0,c
  1004  001862  361F               	rlcf	(??_readKey+1)^0,f,c
  1005  001864                     u2824:
  1006  001864  2E1E               	decfsz	??_readKey^0,f,c
  1007  001866  EF30  F00C         	goto	u2825
  1008  00186A  501F               	movf	(??_readKey+1)^0,w,c
  1009  00186C  1481               	andwf	129,w,c	;volatile
  1010  00186E  0900               	iorlw	0
  1011  001870  A4D8               	btfss	status,2,c
  1012  001872  EF3D  F00C         	goto	u2831
  1013  001876  EF3F  F00C         	goto	u2830
  1014  00187A                     u2831:
  1015  00187A  EF6C  F00C         	goto	l2951
  1016  00187E                     u2830:
  1017  00187E                     
  1018                           ;../ProjetoF_micro.X/main.c: 282:                 currentKey = keymap[row][InvCol[col]];
  1019  00187E  90D8               	bcf	status,0,c
  1020  001880  342C               	rlcf	readKey@col^0,w,c
  1021  001882  6ED9               	movwf	fsr2l,c
  1022  001884  342D               	rlcf	(readKey@col+1)^0,w,c
  1023  001886  6EDA               	movwf	fsr2h,c
  1024  001888  0E24               	movlw	low readKey@InvCol
  1025  00188A  26D9               	addwf	fsr2l,f,c
  1026  00188C  0E00               	movlw	high readKey@InvCol
  1027  00188E  22DA               	addwfc	fsr2h,f,c
  1028  001890  CFDE F01E          	movff	postinc2,??_readKey
  1029  001894  CFDD F01F          	movff	postdec2,??_readKey+1
  1030  001898  C02E  F020         	movff	readKey@row,??_readKey+2
  1031  00189C  C02F  F021         	movff	readKey@row+1,??_readKey+3
  1032  0018A0  90D8               	bcf	status,0,c
  1033  0018A2  3620               	rlcf	(??_readKey+2)^0,f,c
  1034  0018A4  3621               	rlcf	(??_readKey+3)^0,f,c
  1035  0018A6  90D8               	bcf	status,0,c
  1036  0018A8  3620               	rlcf	(??_readKey+2)^0,f,c
  1037  0018AA  3621               	rlcf	(??_readKey+3)^0,f,c
  1038  0018AC  0E01               	movlw	low _keymap
  1039  0018AE  6E22               	movwf	(??_readKey+4)^0,c
  1040  0018B0  0E08               	movlw	high _keymap
  1041  0018B2  6E23               	movwf	(??_readKey+5)^0,c
  1042  0018B4  5020               	movf	(??_readKey+2)^0,w,c
  1043  0018B6  2622               	addwf	(??_readKey+4)^0,f,c
  1044  0018B8  5021               	movf	(??_readKey+3)^0,w,c
  1045  0018BA  2223               	addwfc	(??_readKey+5)^0,f,c
  1046  0018BC  501E               	movf	??_readKey^0,w,c
  1047  0018BE  2622               	addwf	(??_readKey+4)^0,f,c
  1048  0018C0  501F               	movf	(??_readKey+1)^0,w,c
  1049  0018C2  2223               	addwfc	(??_readKey+5)^0,f,c
  1050  0018C4  C022  FFF6         	movff	??_readKey+4,tblptrl
  1051  0018C8  C023  FFF7         	movff	??_readKey+5,tblptrh
  1052  0018CC                     	if	0	;tblptru may be non-zero
  1053  0018CC                     	endif
  1054  0018CC                     	if	0	;tblptru may be non-zero
  1055  0018CC                     	endif
  1056  0018CC  0008               	tblrd		*
  1057  0018CE  CFF5 F03E          	movff	tablat,readKey@currentKey
  1058  0018D2                     l2947:
  1059                           
  1060                           ;../ProjetoF_micro.X/main.c: 283:                 return currentKey;
  1061  0018D2  503E               	movf	readKey@currentKey^0,w,c
  1062  0018D4  EF80  F00C         	goto	l216
  1063  0018D8                     l2951:
  1064                           
  1065                           ;../ProjetoF_micro.X/main.c: 285:         }
  1066  0018D8  4A2E               	infsnz	readKey@row^0,f,c
  1067  0018DA  2A2F               	incf	(readKey@row+1)^0,f,c
  1068  0018DC  BE2F               	btfsc	(readKey@row+1)^0,7,c
  1069  0018DE  EF7A  F00C         	goto	u2841
  1070  0018E2  502F               	movf	(readKey@row+1)^0,w,c
  1071  0018E4  E109               	bnz	u2840
  1072  0018E6  0E04               	movlw	4
  1073  0018E8  5C2E               	subwf	readKey@row^0,w,c
  1074  0018EA  A0D8               	btfss	status,0,c
  1075  0018EC  EF7A  F00C         	goto	u2841
  1076  0018F0  EF7C  F00C         	goto	u2840
  1077  0018F4                     u2841:
  1078  0018F4  EF27  F00C         	goto	l2943
  1079  0018F8                     u2840:
  1080  0018F8                     
  1081                           ;../ProjetoF_micro.X/main.c: 286:     }
  1082  0018F8  4A2C               	infsnz	readKey@col^0,f,c
  1083  0018FA  2A2D               	incf	(readKey@col+1)^0,f,c
  1084  0018FC  EFFC  F00B         	goto	l2929
  1085  001900                     l216:
  1086  001900  0012               	return		;funcret
  1087  001902                     __end_of_readKey:
  1088                           	callstack 0
  1089                           
  1090 ;; *************** function _readAnalog *****************
  1091 ;; Defined at:
  1092 ;;		line 291 in file "../ProjetoF_micro.X/main.c"
  1093 ;; Parameters:    Size  Location     Type
  1094 ;;		None
  1095 ;; Auto vars:     Size  Location     Type
  1096 ;;  result          2   42[BANK0 ] unsigned int 
  1097 ;; Return value:  Size  Location     Type
  1098 ;;                  4   38[BANK0 ] float 
  1099 ;; Registers used:
  1100 ;;		wreg, status,2, status,0, prodl, prodh, cstack
  1101 ;; Tracked objects:
  1102 ;;		On entry : 0/0
  1103 ;;		On exit  : 0/0
  1104 ;;		Unchanged: 0/0
  1105 ;; Data sizes:     COMRAM   BANK0   BANK1   BANK2   BANK3   BANK4   BANK5   BANK6   BANK7
  1106 ;;      Params:         0       4       0       0       0       0       0       0       0
  1107 ;;      Locals:         0       2       0       0       0       0       0       0       0
  1108 ;;      Temps:          2       0       0       0       0       0       0       0       0
  1109 ;;      Totals:         2       6       0       0       0       0       0       0       0
  1110 ;;Total ram usage:        8 bytes
  1111 ;; Hardware stack levels used: 1
  1112 ;; Hardware stack levels required when called: 3
  1113 ;; This function calls:
  1114 ;;		___fldiv
  1115 ;;		___flmul
  1116 ;;		___xxtofl
  1117 ;; This function is called by:
  1118 ;;		_main
  1119 ;; This function uses a non-reentrant model
  1120 ;;
  1121                           
  1122                           	psect	text2
  1123  002060                     __ptext2:
  1124                           	callstack 0
  1125  002060                     _readAnalog:
  1126                           	callstack 27
  1127  002060                     
  1128                           ;../ProjetoF_micro.X/main.c: 292:     ADCON0bits.GO_DONE = 1;
  1129  002060  82C2               	bsf	194,1,c	;volatile
  1130  002062                     l219:
  1131  002062  B2C2               	btfsc	194,1,c	;volatile
  1132  002064  EF36  F010         	goto	u3321
  1133  002068  EF38  F010         	goto	u3320
  1134  00206C                     u3321:
  1135  00206C  EF31  F010         	goto	l219
  1136  002070                     u3320:
  1137  002070                     
  1138                           ;../ProjetoF_micro.X/main.c: 294:     unsigned int result = (ADRESH << 8) | ADRESL;
  1139  002070  50C3               	movf	195,w,c	;volatile
  1140  002072  CFC4 F038          	movff	4036,??_readAnalog	;volatile
  1141  002076  6A39               	clrf	(??_readAnalog+1)^0,c
  1142  002078  C038  F039         	movff	??_readAnalog,??_readAnalog+1
  1143  00207C  6A38               	clrf	??_readAnalog^0,c
  1144  00207E  1038               	iorwf	??_readAnalog^0,w,c
  1145  002080  0100               	movlb	0	; () banked
  1146  002082  6F8A               	movwf	readAnalog@result& (0+255),b
  1147  002084  5039               	movf	(??_readAnalog+1)^0,w,c
  1148  002086  6F8B               	movwf	(readAnalog@result+1)& (0+255),b
  1149  002088                     
  1150                           ; BSR set to: 0
  1151                           ;../ProjetoF_micro.X/main.c: 295:     return (result / 1023.0) * 5.0;
  1152  002088  0E00               	movlw	0
  1153  00208A  6E30               	movwf	___fldiv@a^0,c
  1154  00208C  0EC0               	movlw	192
  1155  00208E  6E31               	movwf	(___fldiv@a+1)^0,c
  1156  002090  0E7F               	movlw	127
  1157  002092  6E32               	movwf	(___fldiv@a+2)^0,c
  1158  002094  0E44               	movlw	68
  1159  002096  6E33               	movwf	(___fldiv@a+3)^0,c
  1160  002098  C08A  F01E         	movff	readAnalog@result,___xxtofl@val
  1161  00209C  C08B  F01F         	movff	readAnalog@result+1,___xxtofl@val+1
  1162  0020A0  6A20               	clrf	(___xxtofl@val+2)^0,c
  1163  0020A2  6A21               	clrf	(___xxtofl@val+3)^0,c
  1164  0020A4  0E00               	movlw	0
  1165  0020A6  EC61  F00A         	call	___xxtofl
  1166  0020AA  C01E  F02C         	movff	?___xxtofl,___fldiv@b
  1167  0020AE  C01F  F02D         	movff	?___xxtofl+1,___fldiv@b+1
  1168  0020B2  C020  F02E         	movff	?___xxtofl+2,___fldiv@b+2
  1169  0020B6  C021  F02F         	movff	?___xxtofl+3,___fldiv@b+3
  1170  0020BA  EC93  F008         	call	___fldiv	;wreg free
  1171  0020BE  C02C  F06D         	movff	?___fldiv,___flmul@b
  1172  0020C2  C02D  F06E         	movff	?___fldiv+1,___flmul@b+1
  1173  0020C6  C02E  F06F         	movff	?___fldiv+2,___flmul@b+2
  1174  0020CA  C02F  F070         	movff	?___fldiv+3,___flmul@b+3
  1175  0020CE  0E00               	movlw	0
  1176  0020D0  0100               	movlb	0	; () banked
  1177  0020D2  6F71               	movwf	___flmul@a& (0+255),b
  1178  0020D4  0E00               	movlw	0
  1179  0020D6  6F72               	movwf	(___flmul@a+1)& (0+255),b
  1180  0020D8  0EA0               	movlw	160
  1181  0020DA  6F73               	movwf	(___flmul@a+2)& (0+255),b
  1182  0020DC  0E40               	movlw	64
  1183  0020DE  6F74               	movwf	(___flmul@a+3)& (0+255),b
  1184  0020E0  EC7D  F006         	call	___flmul	;wreg free
  1185  0020E4  C06D  F086         	movff	?___flmul,?_readAnalog
  1186  0020E8  C06E  F087         	movff	?___flmul+1,?_readAnalog+1
  1187  0020EC  C06F  F088         	movff	?___flmul+2,?_readAnalog+2
  1188  0020F0  C070  F089         	movff	?___flmul+3,?_readAnalog+3
  1189  0020F4  0012               	return		;funcret
  1190  0020F6                     __end_of_readAnalog:
  1191                           	callstack 0
  1192                           
  1193 ;; *************** function ___fldiv *****************
  1194 ;; Defined at:
  1195 ;;		line 11 in file "C:\Program Files\Microchip\xc8\v2.32\pic\sources\c99\common\sprcdiv.c"
  1196 ;; Parameters:    Size  Location     Type
  1197 ;;  b               4   43[COMRAM] float 
  1198 ;;  a               4   47[COMRAM] float 
  1199 ;; Auto vars:     Size  Location     Type
  1200 ;;  grs             4    7[BANK0 ] unsigned long 
  1201 ;;  rem             4    0[BANK0 ] unsigned long 
  1202 ;;  new_exp         2    5[BANK0 ] short 
  1203 ;;  aexp            1   12[BANK0 ] unsigned char 
  1204 ;;  bexp            1   11[BANK0 ] unsigned char 
  1205 ;;  sign            1    4[BANK0 ] unsigned char 
  1206 ;; Return value:  Size  Location     Type
  1207 ;;                  4   43[COMRAM] unsigned char 
  1208 ;; Registers used:
  1209 ;;		wreg, status,2, status,0
  1210 ;; Tracked objects:
  1211 ;;		On entry : 0/0
  1212 ;;		On exit  : 0/0
  1213 ;;		Unchanged: 0/0
  1214 ;; Data sizes:     COMRAM   BANK0   BANK1   BANK2   BANK3   BANK4   BANK5   BANK6   BANK7
  1215 ;;      Params:         8       0       0       0       0       0       0       0       0
  1216 ;;      Locals:         0      13       0       0       0       0       0       0       0
  1217 ;;      Temps:          4       0       0       0       0       0       0       0       0
  1218 ;;      Totals:        12      13       0       0       0       0       0       0       0
  1219 ;;Total ram usage:       25 bytes
  1220 ;; Hardware stack levels used: 1
  1221 ;; Hardware stack levels required when called: 2
  1222 ;; This function calls:
  1223 ;;		Nothing
  1224 ;; This function is called by:
  1225 ;;		_readAnalog
  1226 ;; This function uses a non-reentrant model
  1227 ;;
  1228                           
  1229                           	psect	text3
  1230  001126                     __ptext3:
  1231                           	callstack 0
  1232  001126                     ___fldiv:
  1233                           	callstack 27
  1234  001126  502F               	movf	(___fldiv@b+3)^0,w,c
  1235  001128  0B80               	andlw	128
  1236  00112A  0100               	movlb	0	; () banked
  1237  00112C  6F64               	movwf	___fldiv@sign& (0+255),b
  1238  00112E  502F               	movf	(___fldiv@b+3)^0,w,c
  1239  001130  242F               	addwf	(___fldiv@b+3)^0,w,c
  1240  001132  6F6B               	movwf	___fldiv@bexp& (0+255),b
  1241  001134                     
  1242                           ; BSR set to: 0
  1243  001134  AE2E               	btfss	(___fldiv@b+2)^0,7,c
  1244  001136  EF9F  F008         	goto	u2081
  1245  00113A  EFA1  F008         	goto	u2080
  1246  00113E                     u2081:
  1247  00113E  EFA2  F008         	goto	l2465
  1248  001142                     u2080:
  1249  001142                     
  1250                           ; BSR set to: 0
  1251  001142  816B               	bsf	___fldiv@bexp& (0+255),0,b
  1252  001144                     l2465:
  1253                           
  1254                           ; BSR set to: 0
  1255  001144  516B               	movf	___fldiv@bexp& (0+255),w,b
  1256  001146  B4D8               	btfsc	status,2,c
  1257  001148  EFA8  F008         	goto	u2091
  1258  00114C  EFAA  F008         	goto	u2090
  1259  001150                     u2091:
  1260  001150  EFBF  F008         	goto	l2475
  1261  001154                     u2090:
  1262  001154                     
  1263                           ; BSR set to: 0
  1264  001154  296B               	incf	___fldiv@bexp& (0+255),w,b
  1265  001156  A4D8               	btfss	status,2,c
  1266  001158  EFB0  F008         	goto	u2101
  1267  00115C  EFB2  F008         	goto	u2100
  1268  001160                     u2101:
  1269  001160  EFBA  F008         	goto	l2471
  1270  001164                     u2100:
  1271  001164                     
  1272                           ; BSR set to: 0
  1273  001164  0E00               	movlw	0
  1274  001166  6E2C               	movwf	___fldiv@b^0,c
  1275  001168  0E00               	movlw	0
  1276  00116A  6E2D               	movwf	(___fldiv@b+1)^0,c
  1277  00116C  0E00               	movlw	0
  1278  00116E  6E2E               	movwf	(___fldiv@b+2)^0,c
  1279  001170  0E00               	movlw	0
  1280  001172  6E2F               	movwf	(___fldiv@b+3)^0,c
  1281  001174                     l2471:
  1282                           
  1283                           ; BSR set to: 0
  1284  001174  8E2E               	bsf	(___fldiv@b+2)^0,7,c
  1285  001176                     
  1286                           ; BSR set to: 0
  1287  001176  0E00               	movlw	0
  1288  001178  6E2F               	movwf	(___fldiv@b+3)^0,c
  1289  00117A  EFC7  F008         	goto	l2477
  1290  00117E                     l2475:
  1291                           
  1292                           ; BSR set to: 0
  1293  00117E  0E00               	movlw	0
  1294  001180  6E2C               	movwf	___fldiv@b^0,c
  1295  001182  0E00               	movlw	0
  1296  001184  6E2D               	movwf	(___fldiv@b+1)^0,c
  1297  001186  0E00               	movlw	0
  1298  001188  6E2E               	movwf	(___fldiv@b+2)^0,c
  1299  00118A  0E00               	movlw	0
  1300  00118C  6E2F               	movwf	(___fldiv@b+3)^0,c
  1301  00118E                     l2477:
  1302                           
  1303                           ; BSR set to: 0
  1304  00118E  5033               	movf	(___fldiv@a+3)^0,w,c
  1305  001190  0B80               	andlw	128
  1306  001192  1B64               	xorwf	___fldiv@sign& (0+255),f,b
  1307  001194                     
  1308                           ; BSR set to: 0
  1309  001194  5033               	movf	(___fldiv@a+3)^0,w,c
  1310  001196  2433               	addwf	(___fldiv@a+3)^0,w,c
  1311  001198  6F6C               	movwf	___fldiv@aexp& (0+255),b
  1312  00119A                     
  1313                           ; BSR set to: 0
  1314  00119A  AE32               	btfss	(___fldiv@a+2)^0,7,c
  1315  00119C  EFD2  F008         	goto	u2111
  1316  0011A0  EFD4  F008         	goto	u2110
  1317  0011A4                     u2111:
  1318  0011A4  EFD5  F008         	goto	l2485
  1319  0011A8                     u2110:
  1320  0011A8                     
  1321                           ; BSR set to: 0
  1322  0011A8  816C               	bsf	___fldiv@aexp& (0+255),0,b
  1323  0011AA                     l2485:
  1324                           
  1325                           ; BSR set to: 0
  1326  0011AA  516C               	movf	___fldiv@aexp& (0+255),w,b
  1327  0011AC  B4D8               	btfsc	status,2,c
  1328  0011AE  EFDB  F008         	goto	u2121
  1329  0011B2  EFDD  F008         	goto	u2120
  1330  0011B6                     u2121:
  1331  0011B6  EFF2  F008         	goto	l2495
  1332  0011BA                     u2120:
  1333  0011BA                     
  1334                           ; BSR set to: 0
  1335  0011BA  296C               	incf	___fldiv@aexp& (0+255),w,b
  1336  0011BC  A4D8               	btfss	status,2,c
  1337  0011BE  EFE3  F008         	goto	u2131
  1338  0011C2  EFE5  F008         	goto	u2130
  1339  0011C6                     u2131:
  1340  0011C6  EFED  F008         	goto	l2491
  1341  0011CA                     u2130:
  1342  0011CA                     
  1343                           ; BSR set to: 0
  1344  0011CA  0E00               	movlw	0
  1345  0011CC  6E30               	movwf	___fldiv@a^0,c
  1346  0011CE  0E00               	movlw	0
  1347  0011D0  6E31               	movwf	(___fldiv@a+1)^0,c
  1348  0011D2  0E00               	movlw	0
  1349  0011D4  6E32               	movwf	(___fldiv@a+2)^0,c
  1350  0011D6  0E00               	movlw	0
  1351  0011D8  6E33               	movwf	(___fldiv@a+3)^0,c
  1352  0011DA                     l2491:
  1353                           
  1354                           ; BSR set to: 0
  1355  0011DA  8E32               	bsf	(___fldiv@a+2)^0,7,c
  1356  0011DC                     
  1357                           ; BSR set to: 0
  1358  0011DC  0E00               	movlw	0
  1359  0011DE  6E33               	movwf	(___fldiv@a+3)^0,c
  1360  0011E0  EFFA  F008         	goto	l2497
  1361  0011E4                     l2495:
  1362                           
  1363                           ; BSR set to: 0
  1364  0011E4  0E00               	movlw	0
  1365  0011E6  6E30               	movwf	___fldiv@a^0,c
  1366  0011E8  0E00               	movlw	0
  1367  0011EA  6E31               	movwf	(___fldiv@a+1)^0,c
  1368  0011EC  0E00               	movlw	0
  1369  0011EE  6E32               	movwf	(___fldiv@a+2)^0,c
  1370  0011F0  0E00               	movlw	0
  1371  0011F2  6E33               	movwf	(___fldiv@a+3)^0,c
  1372  0011F4                     l2497:
  1373                           
  1374                           ; BSR set to: 0
  1375  0011F4  5030               	movf	___fldiv@a^0,w,c
  1376  0011F6  1031               	iorwf	(___fldiv@a+1)^0,w,c
  1377  0011F8  1032               	iorwf	(___fldiv@a+2)^0,w,c
  1378  0011FA  1033               	iorwf	(___fldiv@a+3)^0,w,c
  1379  0011FC  A4D8               	btfss	status,2,c
  1380  0011FE  EF03  F009         	goto	u2141
  1381  001202  EF05  F009         	goto	u2140
  1382  001206                     u2141:
  1383  001206  EF1D  F009         	goto	l2509
  1384  00120A                     u2140:
  1385  00120A                     
  1386                           ; BSR set to: 0
  1387  00120A  0E00               	movlw	0
  1388  00120C  6E2C               	movwf	___fldiv@b^0,c
  1389  00120E  0E00               	movlw	0
  1390  001210  6E2D               	movwf	(___fldiv@b+1)^0,c
  1391  001212  0E00               	movlw	0
  1392  001214  6E2E               	movwf	(___fldiv@b+2)^0,c
  1393  001216  0E00               	movlw	0
  1394  001218  6E2F               	movwf	(___fldiv@b+3)^0,c
  1395  00121A                     
  1396                           ; BSR set to: 0
  1397  00121A  0E80               	movlw	128
  1398  00121C  122E               	iorwf	(___fldiv@b+2)^0,f,c
  1399  00121E  0E7F               	movlw	127
  1400  001220  122F               	iorwf	(___fldiv@b+3)^0,f,c
  1401  001222                     l2503:
  1402                           
  1403                           ; BSR set to: 0
  1404  001222  5164               	movf	___fldiv@sign& (0+255),w,b
  1405  001224  122F               	iorwf	(___fldiv@b+3)^0,f,c
  1406  001226                     
  1407                           ; BSR set to: 0
  1408  001226  C02C  F02C         	movff	___fldiv@b,?___fldiv
  1409  00122A  C02D  F02D         	movff	___fldiv@b+1,?___fldiv+1
  1410  00122E  C02E  F02E         	movff	___fldiv@b+2,?___fldiv+2
  1411  001232  C02F  F02F         	movff	___fldiv@b+3,?___fldiv+3
  1412  001236  EF60  F00A         	goto	l810
  1413  00123A                     l2509:
  1414                           
  1415                           ; BSR set to: 0
  1416  00123A  516B               	movf	___fldiv@bexp& (0+255),w,b
  1417  00123C  A4D8               	btfss	status,2,c
  1418  00123E  EF23  F009         	goto	u2151
  1419  001242  EF25  F009         	goto	u2150
  1420  001246                     u2151:
  1421  001246  EF2F  F009         	goto	l2517
  1422  00124A                     u2150:
  1423  00124A                     
  1424                           ; BSR set to: 0
  1425  00124A  0E00               	movlw	0
  1426  00124C  6E2C               	movwf	?___fldiv^0,c
  1427  00124E  0E00               	movlw	0
  1428  001250  6E2D               	movwf	(?___fldiv+1)^0,c
  1429  001252  0E00               	movlw	0
  1430  001254  6E2E               	movwf	(?___fldiv+2)^0,c
  1431  001256  0E00               	movlw	0
  1432  001258  6E2F               	movwf	(?___fldiv+3)^0,c
  1433  00125A  EF60  F00A         	goto	l810
  1434  00125E                     l2517:
  1435                           
  1436                           ; BSR set to: 0
  1437  00125E  516C               	movf	___fldiv@aexp& (0+255),w,b
  1438  001260  C06B  F034         	movff	___fldiv@bexp,??___fldiv
  1439  001264  6A35               	clrf	(??___fldiv+1)^0,c
  1440  001266  5E34               	subwf	??___fldiv^0,f,c
  1441  001268  0E00               	movlw	0
  1442  00126A  5A35               	subwfb	(??___fldiv+1)^0,f,c
  1443  00126C  0E7F               	movlw	127
  1444  00126E  2434               	addwf	??___fldiv^0,w,c
  1445  001270  6F65               	movwf	___fldiv@new_exp& (0+255),b
  1446  001272  0E00               	movlw	0
  1447  001274  2035               	addwfc	(??___fldiv+1)^0,w,c
  1448  001276  6F66               	movwf	(___fldiv@new_exp+1)& (0+255),b
  1449  001278                     
  1450                           ; BSR set to: 0
  1451  001278  C02C  F060         	movff	___fldiv@b,___fldiv@rem
  1452  00127C  C02D  F061         	movff	___fldiv@b+1,___fldiv@rem+1
  1453  001280  C02E  F062         	movff	___fldiv@b+2,___fldiv@rem+2
  1454  001284  C02F  F063         	movff	___fldiv@b+3,___fldiv@rem+3
  1455  001288                     
  1456                           ; BSR set to: 0
  1457  001288  0E00               	movlw	0
  1458  00128A  6E2C               	movwf	___fldiv@b^0,c
  1459  00128C  0E00               	movlw	0
  1460  00128E  6E2D               	movwf	(___fldiv@b+1)^0,c
  1461  001290  0E00               	movlw	0
  1462  001292  6E2E               	movwf	(___fldiv@b+2)^0,c
  1463  001294  0E00               	movlw	0
  1464  001296  6E2F               	movwf	(___fldiv@b+3)^0,c
  1465  001298                     
  1466                           ; BSR set to: 0
  1467  001298  0E00               	movlw	0
  1468  00129A  6F67               	movwf	___fldiv@grs& (0+255),b
  1469  00129C  0E00               	movlw	0
  1470  00129E  6F68               	movwf	(___fldiv@grs+1)& (0+255),b
  1471  0012A0  0E00               	movlw	0
  1472  0012A2  6F69               	movwf	(___fldiv@grs+2)& (0+255),b
  1473  0012A4  0E00               	movlw	0
  1474  0012A6  6F6A               	movwf	(___fldiv@grs+3)& (0+255),b
  1475  0012A8                     
  1476                           ; BSR set to: 0
  1477  0012A8  0E00               	movlw	0
  1478  0012AA  6F6C               	movwf	___fldiv@aexp& (0+255),b
  1479  0012AC  EF90  F009         	goto	l812
  1480  0012B0                     l2527:
  1481                           
  1482                           ; BSR set to: 0
  1483  0012B0  516C               	movf	___fldiv@aexp& (0+255),w,b
  1484  0012B2  B4D8               	btfsc	status,2,c
  1485  0012B4  EF5E  F009         	goto	u2161
  1486  0012B8  EF60  F009         	goto	u2160
  1487  0012BC                     u2161:
  1488  0012BC  EF77  F009         	goto	l2535
  1489  0012C0                     u2160:
  1490  0012C0                     
  1491                           ; BSR set to: 0
  1492  0012C0  90D8               	bcf	status,0,c
  1493  0012C2  3760               	rlcf	___fldiv@rem& (0+255),f,b
  1494  0012C4  3761               	rlcf	(___fldiv@rem+1)& (0+255),f,b
  1495  0012C6  3762               	rlcf	(___fldiv@rem+2)& (0+255),f,b
  1496  0012C8  3763               	rlcf	(___fldiv@rem+3)& (0+255),f,b
  1497  0012CA  90D8               	bcf	status,0,c
  1498  0012CC  362C               	rlcf	___fldiv@b^0,f,c
  1499  0012CE  362D               	rlcf	(___fldiv@b+1)^0,f,c
  1500  0012D0  362E               	rlcf	(___fldiv@b+2)^0,f,c
  1501  0012D2  362F               	rlcf	(___fldiv@b+3)^0,f,c
  1502  0012D4                     
  1503                           ; BSR set to: 0
  1504  0012D4  AF6A               	btfss	(___fldiv@grs+3)& (0+255),7,b
  1505  0012D6  EF6F  F009         	goto	u2171
  1506  0012DA  EF71  F009         	goto	u2170
  1507  0012DE                     u2171:
  1508  0012DE  EF72  F009         	goto	l815
  1509  0012E2                     u2170:
  1510  0012E2                     
  1511                           ; BSR set to: 0
  1512  0012E2  802C               	bsf	___fldiv@b^0,0,c
  1513  0012E4                     l815:
  1514                           
  1515                           ; BSR set to: 0
  1516  0012E4  90D8               	bcf	status,0,c
  1517  0012E6  3767               	rlcf	___fldiv@grs& (0+255),f,b
  1518  0012E8  3768               	rlcf	(___fldiv@grs+1)& (0+255),f,b
  1519  0012EA  3769               	rlcf	(___fldiv@grs+2)& (0+255),f,b
  1520  0012EC  376A               	rlcf	(___fldiv@grs+3)& (0+255),f,b
  1521  0012EE                     l2535:
  1522                           
  1523                           ; BSR set to: 0
  1524  0012EE  5030               	movf	___fldiv@a^0,w,c
  1525  0012F0  5D60               	subwf	___fldiv@rem& (0+255),w,b
  1526  0012F2  5031               	movf	(___fldiv@a+1)^0,w,c
  1527  0012F4  5961               	subwfb	(___fldiv@rem+1)& (0+255),w,b
  1528  0012F6  5032               	movf	(___fldiv@a+2)^0,w,c
  1529  0012F8  5962               	subwfb	(___fldiv@rem+2)& (0+255),w,b
  1530  0012FA  5033               	movf	(___fldiv@a+3)^0,w,c
  1531  0012FC  5963               	subwfb	(___fldiv@rem+3)& (0+255),w,b
  1532  0012FE  A0D8               	btfss	status,0,c
  1533  001300  EF84  F009         	goto	u2181
  1534  001304  EF86  F009         	goto	u2180
  1535  001308                     u2181:
  1536  001308  EF8F  F009         	goto	l2541
  1537  00130C                     u2180:
  1538  00130C                     
  1539                           ; BSR set to: 0
  1540  00130C  8D6A               	bsf	(___fldiv@grs+3)& (0+255),6,b
  1541  00130E                     
  1542                           ; BSR set to: 0
  1543  00130E  5030               	movf	___fldiv@a^0,w,c
  1544  001310  5F60               	subwf	___fldiv@rem& (0+255),f,b
  1545  001312  5031               	movf	(___fldiv@a+1)^0,w,c
  1546  001314  5B61               	subwfb	(___fldiv@rem+1)& (0+255),f,b
  1547  001316  5032               	movf	(___fldiv@a+2)^0,w,c
  1548  001318  5B62               	subwfb	(___fldiv@rem+2)& (0+255),f,b
  1549  00131A  5033               	movf	(___fldiv@a+3)^0,w,c
  1550  00131C  5B63               	subwfb	(___fldiv@rem+3)& (0+255),f,b
  1551  00131E                     l2541:
  1552                           
  1553                           ; BSR set to: 0
  1554  00131E  2B6C               	incf	___fldiv@aexp& (0+255),f,b
  1555  001320                     l812:
  1556                           
  1557                           ; BSR set to: 0
  1558  001320  0E19               	movlw	25
  1559  001322  656C               	cpfsgt	___fldiv@aexp& (0+255),b
  1560  001324  EF96  F009         	goto	u2191
  1561  001328  EF98  F009         	goto	u2190
  1562  00132C                     u2191:
  1563  00132C  EF58  F009         	goto	l2527
  1564  001330                     u2190:
  1565  001330                     
  1566                           ; BSR set to: 0
  1567  001330  5160               	movf	___fldiv@rem& (0+255),w,b
  1568  001332  1161               	iorwf	(___fldiv@rem+1)& (0+255),w,b
  1569  001334  1162               	iorwf	(___fldiv@rem+2)& (0+255),w,b
  1570  001336  1163               	iorwf	(___fldiv@rem+3)& (0+255),w,b
  1571  001338  B4D8               	btfsc	status,2,c
  1572  00133A  EFA1  F009         	goto	u2201
  1573  00133E  EFA3  F009         	goto	u2200
  1574  001342                     u2201:
  1575  001342  EFBB  F009         	goto	l2553
  1576  001346                     u2200:
  1577  001346                     
  1578                           ; BSR set to: 0
  1579  001346  8167               	bsf	___fldiv@grs& (0+255),0,b
  1580  001348  EFBB  F009         	goto	l2553
  1581  00134C                     l2547:
  1582                           
  1583                           ; BSR set to: 0
  1584  00134C  90D8               	bcf	status,0,c
  1585  00134E  362C               	rlcf	___fldiv@b^0,f,c
  1586  001350  362D               	rlcf	(___fldiv@b+1)^0,f,c
  1587  001352  362E               	rlcf	(___fldiv@b+2)^0,f,c
  1588  001354  362F               	rlcf	(___fldiv@b+3)^0,f,c
  1589  001356                     
  1590                           ; BSR set to: 0
  1591  001356  AF6A               	btfss	(___fldiv@grs+3)& (0+255),7,b
  1592  001358  EFB0  F009         	goto	u2211
  1593  00135C  EFB2  F009         	goto	u2210
  1594  001360                     u2211:
  1595  001360  EFB3  F009         	goto	l821
  1596  001364                     u2210:
  1597  001364                     
  1598                           ; BSR set to: 0
  1599  001364  802C               	bsf	___fldiv@b^0,0,c
  1600  001366                     l821:
  1601                           
  1602                           ; BSR set to: 0
  1603  001366  90D8               	bcf	status,0,c
  1604  001368  3767               	rlcf	___fldiv@grs& (0+255),f,b
  1605  00136A  3768               	rlcf	(___fldiv@grs+1)& (0+255),f,b
  1606  00136C  3769               	rlcf	(___fldiv@grs+2)& (0+255),f,b
  1607  00136E  376A               	rlcf	(___fldiv@grs+3)& (0+255),f,b
  1608  001370  0765               	decf	___fldiv@new_exp& (0+255),f,b
  1609  001372  A0D8               	btfss	status,0,c
  1610  001374  0766               	decf	(___fldiv@new_exp+1)& (0+255),f,b
  1611  001376                     l2553:
  1612                           
  1613                           ; BSR set to: 0
  1614  001376  AE2E               	btfss	(___fldiv@b+2)^0,7,c
  1615  001378  EFC0  F009         	goto	u2221
  1616  00137C  EFC2  F009         	goto	u2220
  1617  001380                     u2221:
  1618  001380  EFA6  F009         	goto	l2547
  1619  001384                     u2220:
  1620  001384                     
  1621                           ; BSR set to: 0
  1622  001384  0E00               	movlw	0
  1623  001386  6F6C               	movwf	___fldiv@aexp& (0+255),b
  1624  001388                     
  1625                           ; BSR set to: 0
  1626  001388  AF6A               	btfss	(___fldiv@grs+3)& (0+255),7,b
  1627  00138A  EFC9  F009         	goto	u2231
  1628  00138E  EFCB  F009         	goto	u2230
  1629  001392                     u2231:
  1630  001392  EFEF  F009         	goto	l823
  1631  001396                     u2230:
  1632  001396                     
  1633                           ; BSR set to: 0
  1634  001396  0EFF               	movlw	255
  1635  001398  1567               	andwf	___fldiv@grs& (0+255),w,b
  1636  00139A  6E34               	movwf	??___fldiv^0,c
  1637  00139C  0EFF               	movlw	255
  1638  00139E  1568               	andwf	(___fldiv@grs+1)& (0+255),w,b
  1639  0013A0  6E35               	movwf	(??___fldiv+1)^0,c
  1640  0013A2  0EFF               	movlw	255
  1641  0013A4  1569               	andwf	(___fldiv@grs+2)& (0+255),w,b
  1642  0013A6  6E36               	movwf	(??___fldiv+2)^0,c
  1643  0013A8  0E7F               	movlw	127
  1644  0013AA  156A               	andwf	(___fldiv@grs+3)& (0+255),w,b
  1645  0013AC  6E37               	movwf	(??___fldiv+3)^0,c
  1646  0013AE  5034               	movf	??___fldiv^0,w,c
  1647  0013B0  1035               	iorwf	(??___fldiv+1)^0,w,c
  1648  0013B2  1036               	iorwf	(??___fldiv+2)^0,w,c
  1649  0013B4  1037               	iorwf	(??___fldiv+3)^0,w,c
  1650  0013B6  B4D8               	btfsc	status,2,c
  1651  0013B8  EFE0  F009         	goto	u2241
  1652  0013BC  EFE2  F009         	goto	u2240
  1653  0013C0                     u2241:
  1654  0013C0  EFE6  F009         	goto	l824
  1655  0013C4                     u2240:
  1656  0013C4                     l2561:
  1657                           
  1658                           ; BSR set to: 0
  1659  0013C4  0E01               	movlw	1
  1660  0013C6  6F6C               	movwf	___fldiv@aexp& (0+255),b
  1661  0013C8  EFEF  F009         	goto	l823
  1662  0013CC                     l824:
  1663                           
  1664                           ; BSR set to: 0
  1665  0013CC  A02C               	btfss	___fldiv@b^0,0,c
  1666  0013CE  EFEB  F009         	goto	u2251
  1667  0013D2  EFED  F009         	goto	u2250
  1668  0013D6                     u2251:
  1669  0013D6  EFEF  F009         	goto	l823
  1670  0013DA                     u2250:
  1671  0013DA  EFE2  F009         	goto	l2561
  1672  0013DE                     l823:
  1673                           
  1674                           ; BSR set to: 0
  1675  0013DE  516C               	movf	___fldiv@aexp& (0+255),w,b
  1676  0013E0  B4D8               	btfsc	status,2,c
  1677  0013E2  EFF5  F009         	goto	u2261
  1678  0013E6  EFF7  F009         	goto	u2260
  1679  0013EA                     u2261:
  1680  0013EA  EF1B  F00A         	goto	l2573
  1681  0013EE                     u2260:
  1682  0013EE                     
  1683                           ; BSR set to: 0
  1684  0013EE  0E01               	movlw	1
  1685  0013F0  262C               	addwf	___fldiv@b^0,f,c
  1686  0013F2  0E00               	movlw	0
  1687  0013F4  222D               	addwfc	(___fldiv@b+1)^0,f,c
  1688  0013F6  222E               	addwfc	(___fldiv@b+2)^0,f,c
  1689  0013F8  222F               	addwfc	(___fldiv@b+3)^0,f,c
  1690  0013FA                     
  1691                           ; BSR set to: 0
  1692  0013FA  A02F               	btfss	(___fldiv@b+3)^0,0,c
  1693  0013FC  EF02  F00A         	goto	u2271
  1694  001400  EF04  F00A         	goto	u2270
  1695  001404                     u2271:
  1696  001404  EF1B  F00A         	goto	l2573
  1697  001408                     u2270:
  1698  001408                     
  1699                           ; BSR set to: 0
  1700  001408  C02C  F034         	movff	___fldiv@b,??___fldiv
  1701  00140C  C02D  F035         	movff	___fldiv@b+1,??___fldiv+1
  1702  001410  C02E  F036         	movff	___fldiv@b+2,??___fldiv+2
  1703  001414  C02F  F037         	movff	___fldiv@b+3,??___fldiv+3
  1704  001418  3437               	rlcf	(??___fldiv+3)^0,w,c
  1705  00141A  3237               	rrcf	(??___fldiv+3)^0,f,c
  1706  00141C  3236               	rrcf	(??___fldiv+2)^0,f,c
  1707  00141E  3235               	rrcf	(??___fldiv+1)^0,f,c
  1708  001420  3234               	rrcf	??___fldiv^0,f,c
  1709  001422  C034  F02C         	movff	??___fldiv,___fldiv@b
  1710  001426  C035  F02D         	movff	??___fldiv+1,___fldiv@b+1
  1711  00142A  C036  F02E         	movff	??___fldiv+2,___fldiv@b+2
  1712  00142E  C037  F02F         	movff	??___fldiv+3,___fldiv@b+3
  1713  001432                     
  1714                           ; BSR set to: 0
  1715  001432  4B65               	infsnz	___fldiv@new_exp& (0+255),f,b
  1716  001434  2B66               	incf	(___fldiv@new_exp+1)& (0+255),f,b
  1717  001436                     l2573:
  1718                           
  1719                           ; BSR set to: 0
  1720  001436  BF66               	btfsc	(___fldiv@new_exp+1)& (0+255),7,b
  1721  001438  EF26  F00A         	goto	u2281
  1722  00143C  5166               	movf	(___fldiv@new_exp+1)& (0+255),w,b
  1723  00143E  E108               	bnz	u2280
  1724  001440  2965               	incf	___fldiv@new_exp& (0+255),w,b
  1725  001442  A0D8               	btfss	status,0,c
  1726  001444  EF26  F00A         	goto	u2281
  1727  001448  EF28  F00A         	goto	u2280
  1728  00144C                     u2281:
  1729  00144C  EF33  F00A         	goto	l2577
  1730  001450                     u2280:
  1731  001450                     
  1732                           ; BSR set to: 0
  1733  001450  0E00               	movlw	0
  1734  001452  6F66               	movwf	(___fldiv@new_exp+1)& (0+255),b
  1735  001454  6965               	setf	___fldiv@new_exp& (0+255),b
  1736  001456  0E00               	movlw	0
  1737  001458  6E2C               	movwf	___fldiv@b^0,c
  1738  00145A  0E00               	movlw	0
  1739  00145C  6E2D               	movwf	(___fldiv@b+1)^0,c
  1740  00145E  0E00               	movlw	0
  1741  001460  6E2E               	movwf	(___fldiv@b+2)^0,c
  1742  001462  0E00               	movlw	0
  1743  001464  6E2F               	movwf	(___fldiv@b+3)^0,c
  1744  001466                     l2577:
  1745                           
  1746                           ; BSR set to: 0
  1747  001466  BF66               	btfsc	(___fldiv@new_exp+1)& (0+255),7,b
  1748  001468  EF40  F00A         	goto	u2290
  1749  00146C  5166               	movf	(___fldiv@new_exp+1)& (0+255),w,b
  1750  00146E  E106               	bnz	u2291
  1751  001470  0565               	decf	___fldiv@new_exp& (0+255),w,b
  1752  001472  B0D8               	btfsc	status,0,c
  1753  001474  EF3E  F00A         	goto	u2291
  1754  001478  EF40  F00A         	goto	u2290
  1755  00147C                     u2291:
  1756  00147C  EF4E  F00A         	goto	l2581
  1757  001480                     u2290:
  1758  001480                     
  1759                           ; BSR set to: 0
  1760  001480  0E00               	movlw	0
  1761  001482  6F66               	movwf	(___fldiv@new_exp+1)& (0+255),b
  1762  001484  0E00               	movlw	0
  1763  001486  6F65               	movwf	___fldiv@new_exp& (0+255),b
  1764  001488  0E00               	movlw	0
  1765  00148A  6E2C               	movwf	___fldiv@b^0,c
  1766  00148C  0E00               	movlw	0
  1767  00148E  6E2D               	movwf	(___fldiv@b+1)^0,c
  1768  001490  0E00               	movlw	0
  1769  001492  6E2E               	movwf	(___fldiv@b+2)^0,c
  1770  001494  0E00               	movlw	0
  1771  001496  6E2F               	movwf	(___fldiv@b+3)^0,c
  1772  001498  0E00               	movlw	0
  1773  00149A  6F64               	movwf	___fldiv@sign& (0+255),b
  1774  00149C                     l2581:
  1775                           
  1776                           ; BSR set to: 0
  1777  00149C  C065  F06B         	movff	___fldiv@new_exp,___fldiv@bexp
  1778  0014A0                     
  1779                           ; BSR set to: 0
  1780  0014A0  A16B               	btfss	___fldiv@bexp& (0+255),0,b
  1781  0014A2  EF55  F00A         	goto	u2301
  1782  0014A6  EF57  F00A         	goto	u2300
  1783  0014AA                     u2301:
  1784  0014AA  EF5A  F00A         	goto	l2587
  1785  0014AE                     u2300:
  1786  0014AE                     
  1787                           ; BSR set to: 0
  1788  0014AE  8E2E               	bsf	(___fldiv@b+2)^0,7,c
  1789  0014B0  EF5B  F00A         	goto	l2589
  1790  0014B4                     l2587:
  1791                           
  1792                           ; BSR set to: 0
  1793  0014B4  9E2E               	bcf	(___fldiv@b+2)^0,7,c
  1794  0014B6                     l2589:
  1795                           
  1796                           ; BSR set to: 0
  1797  0014B6  90D8               	bcf	status,0,c
  1798  0014B8  316B               	rrcf	___fldiv@bexp& (0+255),w,b
  1799  0014BA  6E2F               	movwf	(___fldiv@b+3)^0,c
  1800  0014BC  EF11  F009         	goto	l2503
  1801  0014C0                     l810:
  1802                           
  1803                           ; BSR set to: 0
  1804  0014C0  0012               	return		;funcret
  1805  0014C2                     __end_of___fldiv:
  1806                           	callstack 0
  1807                           
  1808 ;; *************** function _displayStuff *****************
  1809 ;; Defined at:
  1810 ;;		line 299 in file "../ProjetoF_micro.X/main.c"
  1811 ;; Parameters:    Size  Location     Type
  1812 ;;  key             1    wreg     unsigned char 
  1813 ;;  V_analog        4   46[BANK0 ] float 
  1814 ;; Auto vars:     Size  Location     Type
  1815 ;;  key             1    0[COMRAM] unsigned char 
  1816 ;;  decimal         2   52[BANK0 ] int 
  1817 ;;  inteiro         2   50[BANK0 ] int 
  1818 ;; Return value:  Size  Location     Type
  1819 ;;                  1    wreg      void 
  1820 ;; Registers used:
  1821 ;;		wreg, fsr0l, fsr0h, status,2, status,0, tblptrl, tblptrh, tblptru, prodl, prodh, cstack
  1822 ;; Tracked objects:
  1823 ;;		On entry : 0/0
  1824 ;;		On exit  : 0/0
  1825 ;;		Unchanged: 0/0
  1826 ;; Data sizes:     COMRAM   BANK0   BANK1   BANK2   BANK3   BANK4   BANK5   BANK6   BANK7
  1827 ;;      Params:         0       4       0       0       0       0       0       0       0
  1828 ;;      Locals:         0       4       0       0       0       0       0       0       0
  1829 ;;      Temps:          0       0       0       0       0       0       0       0       0
  1830 ;;      Totals:         0       8       0       0       0       0       0       0       0
  1831 ;;Total ram usage:        8 bytes
  1832 ;; Hardware stack levels used: 1
  1833 ;; Hardware stack levels required when called: 5
  1834 ;; This function calls:
  1835 ;;		_WriteCmdXLCD
  1836 ;;		_WriteDataXLCD
  1837 ;;		___awdiv
  1838 ;;		___awmod
  1839 ;;		___flmul
  1840 ;;		___flsub
  1841 ;;		___fltol
  1842 ;;		___xxtofl
  1843 ;;		_putsXLCD
  1844 ;; This function is called by:
  1845 ;;		_main
  1846 ;; This function uses a non-reentrant model
  1847 ;;
  1848                           
  1849                           	psect	text4
  1850  001C38                     __ptext4:
  1851                           	callstack 0
  1852  001C38                     _displayStuff:
  1853                           	callstack 25
  1854  001C38                     
  1855                           ;../ProjetoF_micro.X/main.c: 300:     int inteiro = (int)V_analog;
  1856  001C38  C08E  F086         	movff	displayStuff@V_analog,___fltol@f1
  1857  001C3C  C08F  F087         	movff	displayStuff@V_analog+1,___fltol@f1+1
  1858  001C40  C090  F088         	movff	displayStuff@V_analog+2,___fltol@f1+2
  1859  001C44  C091  F089         	movff	displayStuff@V_analog+3,___fltol@f1+3
  1860  001C48  EC16  F00D         	call	___fltol	;wreg free
  1861  001C4C  C086  F092         	movff	?___fltol,displayStuff@inteiro
  1862  001C50  C087  F093         	movff	?___fltol+1,displayStuff@inteiro+1
  1863  001C54                     
  1864                           ;../ProjetoF_micro.X/main.c: 301:     int decimal = (int)((V_analog - inteiro) * 100);
  1865  001C54  0E00               	movlw	0
  1866  001C56  0100               	movlb	0	; () banked
  1867  001C58  6F71               	movwf	___flmul@a& (0+255),b
  1868  001C5A  0E00               	movlw	0
  1869  001C5C  6F72               	movwf	(___flmul@a+1)& (0+255),b
  1870  001C5E  0EC8               	movlw	200
  1871  001C60  6F73               	movwf	(___flmul@a+2)& (0+255),b
  1872  001C62  0E42               	movlw	66
  1873  001C64  6F74               	movwf	(___flmul@a+3)& (0+255),b
  1874  001C66  C092  F01E         	movff	displayStuff@inteiro,___xxtofl@val
  1875  001C6A  C093  F01F         	movff	displayStuff@inteiro+1,___xxtofl@val+1
  1876  001C6E  0E00               	movlw	0
  1877  001C70  BE1F               	btfsc	(___xxtofl@val+1)^0,7,c
  1878  001C72  0EFF               	movlw	-1
  1879  001C74  6E20               	movwf	(___xxtofl@val+2)^0,c
  1880  001C76  6E21               	movwf	(___xxtofl@val+3)^0,c
  1881  001C78  0E01               	movlw	1
  1882  001C7A  EC61  F00A         	call	___xxtofl
  1883  001C7E  C01E  F032         	movff	?___xxtofl,___flsub@a
  1884  001C82  C01F  F033         	movff	?___xxtofl+1,___flsub@a+1
  1885  001C86  C020  F034         	movff	?___xxtofl+2,___flsub@a+2
  1886  001C8A  C021  F035         	movff	?___xxtofl+3,___flsub@a+3
  1887  001C8E  C08E  F02E         	movff	displayStuff@V_analog,___flsub@b
  1888  001C92  C08F  F02F         	movff	displayStuff@V_analog+1,___flsub@b+1
  1889  001C96  C090  F030         	movff	displayStuff@V_analog+2,___flsub@b+2
  1890  001C9A  C091  F031         	movff	displayStuff@V_analog+3,___flsub@b+3
  1891  001C9E  EC4B  F011         	call	___flsub	;wreg free
  1892  001CA2  C02E  F06D         	movff	?___flsub,___flmul@b
  1893  001CA6  C02F  F06E         	movff	?___flsub+1,___flmul@b+1
  1894  001CAA  C030  F06F         	movff	?___flsub+2,___flmul@b+2
  1895  001CAE  C031  F070         	movff	?___flsub+3,___flmul@b+3
  1896  001CB2  EC7D  F006         	call	___flmul	;wreg free
  1897  001CB6  C06D  F086         	movff	?___flmul,___fltol@f1
  1898  001CBA  C06E  F087         	movff	?___flmul+1,___fltol@f1+1
  1899  001CBE  C06F  F088         	movff	?___flmul+2,___fltol@f1+2
  1900  001CC2  C070  F089         	movff	?___flmul+3,___fltol@f1+3
  1901  001CC6  EC16  F00D         	call	___fltol	;wreg free
  1902  001CCA  C086  F094         	movff	?___fltol,displayStuff@decimal
  1903  001CCE  C087  F095         	movff	?___fltol+1,displayStuff@decimal+1
  1904  001CD2                     
  1905                           ;../ProjetoF_micro.X/main.c: 307:     WriteCmdXLCD(0xC7);
  1906  001CD2  0EC7               	movlw	199
  1907  001CD4  ECD0  F011         	call	_WriteCmdXLCD
  1908  001CD8                     
  1909                           ;../ProjetoF_micro.X/main.c: 308:     putsXLCD("Vin:");
  1910  001CD8  0E34               	movlw	low STR_4
  1911  001CDA  6E1F               	movwf	putsXLCD@buffer^0,c
  1912  001CDC  0E08               	movlw	high STR_4
  1913  001CDE  6E20               	movwf	(putsXLCD@buffer+1)^0,c
  1914  001CE0  ECB5  F010         	call	_putsXLCD	;wreg free
  1915  001CE4                     
  1916                           ;../ProjetoF_micro.X/main.c: 309:     WriteCmdXLCD(0xCC);
  1917  001CE4  0ECC               	movlw	204
  1918  001CE6  ECD0  F011         	call	_WriteCmdXLCD
  1919  001CEA                     
  1920                           ;../ProjetoF_micro.X/main.c: 310:     WriteDataXLCD(inteiro + '0');
  1921  001CEA  0100               	movlb	0	; () banked
  1922  001CEC  5192               	movf	displayStuff@inteiro& (0+255),w,b
  1923  001CEE  0F30               	addlw	48
  1924  001CF0  ECB1  F011         	call	_WriteDataXLCD
  1925  001CF4                     
  1926                           ;../ProjetoF_micro.X/main.c: 311:     WriteDataXLCD('.');
  1927  001CF4  0E2E               	movlw	46
  1928  001CF6  ECB1  F011         	call	_WriteDataXLCD
  1929  001CFA                     
  1930                           ;../ProjetoF_micro.X/main.c: 312:     WriteDataXLCD((decimal / 10) + '0');
  1931  001CFA  C094  F01E         	movff	displayStuff@decimal,___awdiv@dividend
  1932  001CFE  C095  F01F         	movff	displayStuff@decimal+1,___awdiv@dividend+1
  1933  001D02  0E00               	movlw	0
  1934  001D04  6E21               	movwf	(___awdiv@divisor+1)^0,c
  1935  001D06  0E0A               	movlw	10
  1936  001D08  6E20               	movwf	___awdiv@divisor^0,c
  1937  001D0A  EC76  F00F         	call	___awdiv	;wreg free
  1938  001D0E  501E               	movf	?___awdiv^0,w,c
  1939  001D10  0F30               	addlw	48
  1940  001D12  ECB1  F011         	call	_WriteDataXLCD
  1941  001D16                     
  1942                           ;../ProjetoF_micro.X/main.c: 313:     WriteDataXLCD((decimal % 10) + '0');
  1943  001D16  C094  F01E         	movff	displayStuff@decimal,___awmod@dividend
  1944  001D1A  C095  F01F         	movff	displayStuff@decimal+1,___awmod@dividend+1
  1945  001D1E  0E00               	movlw	0
  1946  001D20  6E21               	movwf	(___awmod@divisor+1)^0,c
  1947  001D22  0E0A               	movlw	10
  1948  001D24  6E20               	movwf	___awmod@divisor^0,c
  1949  001D26  ECD8  F00F         	call	___awmod	;wreg free
  1950  001D2A  501E               	movf	?___awmod^0,w,c
  1951  001D2C  0F30               	addlw	48
  1952  001D2E  ECB1  F011         	call	_WriteDataXLCD
  1953  001D32  0012               	return		;funcret
  1954  001D34                     __end_of_displayStuff:
  1955                           	callstack 0
  1956                           
  1957 ;; *************** function _putsXLCD *****************
  1958 ;; Defined at:
  1959 ;;		line 510 in file "../ProjetoF_micro.X/nxlcd.c"
  1960 ;; Parameters:    Size  Location     Type
  1961 ;;  buffer          2   30[COMRAM] PTR unsigned char 
  1962 ;;		 -> STR_4(5), stringTempo(3), STR_3(11), STR_2(8), 
  1963 ;;		 -> STR_1(8), 
  1964 ;; Auto vars:     Size  Location     Type
  1965 ;;		None
  1966 ;; Return value:  Size  Location     Type
  1967 ;;                  1    wreg      void 
  1968 ;; Registers used:
  1969 ;;		wreg, fsr0l, fsr0h, status,2, status,0, tblptrl, tblptrh, tblptru, cstack
  1970 ;; Tracked objects:
  1971 ;;		On entry : 0/0
  1972 ;;		On exit  : 0/0
  1973 ;;		Unchanged: 0/0
  1974 ;; Data sizes:     COMRAM   BANK0   BANK1   BANK2   BANK3   BANK4   BANK5   BANK6   BANK7
  1975 ;;      Params:         2       0       0       0       0       0       0       0       0
  1976 ;;      Locals:         0       0       0       0       0       0       0       0       0
  1977 ;;      Temps:          0       0       0       0       0       0       0       0       0
  1978 ;;      Totals:         2       0       0       0       0       0       0       0       0
  1979 ;;Total ram usage:        2 bytes
  1980 ;; Hardware stack levels used: 1
  1981 ;; Hardware stack levels required when called: 4
  1982 ;; This function calls:
  1983 ;;		_BusyXLCD
  1984 ;;		_WriteDataXLCD
  1985 ;; This function is called by:
  1986 ;;		_main
  1987 ;;		_displayStuff
  1988 ;; This function uses a non-reentrant model
  1989 ;;
  1990                           
  1991                           	psect	text5
  1992  00216A                     __ptext5:
  1993                           	callstack 0
  1994  00216A                     _putsXLCD:
  1995                           	callstack 26
  1996  00216A                     
  1997                           ;../ProjetoF_micro.X/nxlcd.c: 510: void putsXLCD(char *buffer);../ProjetoF_micro.X/nxlcd
      +                          .c: 511: {;../ProjetoF_micro.X/nxlcd.c: 512:         while(*buffer)
  1998  00216A  EFD5  F010         	goto	l2457
  1999  00216E                     l2451:
  2000  00216E  EC6E  F011         	call	_BusyXLCD	;wreg free
  2001  002172  0900               	iorlw	0
  2002  002174  A4D8               	btfss	status,2,c
  2003  002176  EFBF  F010         	goto	u2041
  2004  00217A  EFC1  F010         	goto	u2040
  2005  00217E                     u2041:
  2006  00217E  EFB7  F010         	goto	l2451
  2007  002182                     u2040:
  2008  002182                     
  2009                           ;../ProjetoF_micro.X/nxlcd.c: 515:                 WriteDataXLCD(*buffer);
  2010  002182  C01F  FFF6         	movff	putsXLCD@buffer,tblptrl
  2011  002186  C020  FFF7         	movff	putsXLCD@buffer+1,tblptrh
  2012  00218A  6AF8               	clrf	tblptru,c
  2013  00218C  0E07               	movlw	(high __ramtop+-1)
  2014  00218E  64F7               	cpfsgt	tblptrh,c
  2015  002190  D003               	bra	u2057
  2016  002192  0008               	tblrd		*
  2017  002194  50F5               	movf	tablat,w,c
  2018  002196  D005               	bra	u2050
  2019  002198                     u2057:
  2020  002198  CFF6 FFE9          	movff	tblptrl,fsr0l
  2021  00219C  CFF7 FFEA          	movff	tblptrh,fsr0h
  2022  0021A0  50EF               	movf	indf0,w,c
  2023  0021A2                     u2050:
  2024  0021A2  ECB1  F011         	call	_WriteDataXLCD
  2025  0021A6                     
  2026                           ;../ProjetoF_micro.X/nxlcd.c: 516:                 buffer++;
  2027  0021A6  4A1F               	infsnz	putsXLCD@buffer^0,f,c
  2028  0021A8  2A20               	incf	(putsXLCD@buffer+1)^0,f,c
  2029  0021AA                     l2457:
  2030                           
  2031                           ;../ProjetoF_micro.X/nxlcd.c: 512:         while(*buffer)
  2032  0021AA  C01F  FFF6         	movff	putsXLCD@buffer,tblptrl
  2033  0021AE  C020  FFF7         	movff	putsXLCD@buffer+1,tblptrh
  2034  0021B2  6AF8               	clrf	tblptru,c
  2035  0021B4  0E07               	movlw	(high __ramtop+-1)
  2036  0021B6  64F7               	cpfsgt	tblptrh,c
  2037  0021B8  D003               	bra	u2067
  2038  0021BA  0008               	tblrd		*
  2039  0021BC  50F5               	movf	tablat,w,c
  2040  0021BE  D005               	bra	u2060
  2041  0021C0                     u2067:
  2042  0021C0  CFF6 FFE9          	movff	tblptrl,fsr0l
  2043  0021C4  CFF7 FFEA          	movff	tblptrh,fsr0h
  2044  0021C8  50EF               	movf	indf0,w,c
  2045  0021CA                     u2060:
  2046  0021CA  0900               	iorlw	0
  2047  0021CC  A4D8               	btfss	status,2,c
  2048  0021CE  EFEB  F010         	goto	u2071
  2049  0021D2  EFED  F010         	goto	u2070
  2050  0021D6                     u2071:
  2051  0021D6  EFB7  F010         	goto	l2451
  2052  0021DA                     u2070:
  2053  0021DA  0012               	return		;funcret
  2054  0021DC                     __end_of_putsXLCD:
  2055                           	callstack 0
  2056                           
  2057 ;; *************** function _WriteDataXLCD *****************
  2058 ;; Defined at:
  2059 ;;		line 449 in file "../ProjetoF_micro.X/nxlcd.c"
  2060 ;; Parameters:    Size  Location     Type
  2061 ;;  data            1    wreg     unsigned char 
  2062 ;; Auto vars:     Size  Location     Type
  2063 ;;  data            1   29[COMRAM] unsigned char 
  2064 ;; Return value:  Size  Location     Type
  2065 ;;                  1    wreg      void 
  2066 ;; Registers used:
  2067 ;;		wreg, status,2, status,0, cstack
  2068 ;; Tracked objects:
  2069 ;;		On entry : 0/0
  2070 ;;		On exit  : 0/0
  2071 ;;		Unchanged: 0/0
  2072 ;; Data sizes:     COMRAM   BANK0   BANK1   BANK2   BANK3   BANK4   BANK5   BANK6   BANK7
  2073 ;;      Params:         0       0       0       0       0       0       0       0       0
  2074 ;;      Locals:         1       0       0       0       0       0       0       0       0
  2075 ;;      Temps:          0       0       0       0       0       0       0       0       0
  2076 ;;      Totals:         1       0       0       0       0       0       0       0       0
  2077 ;;Total ram usage:        1 bytes
  2078 ;; Hardware stack levels used: 1
  2079 ;; Hardware stack levels required when called: 3
  2080 ;; This function calls:
  2081 ;;		_DelayFor18TCY
  2082 ;; This function is called by:
  2083 ;;		_putsXLCD
  2084 ;;		_displayStuff
  2085 ;;		_putrsXLCD
  2086 ;; This function uses a non-reentrant model
  2087 ;;
  2088                           
  2089                           	psect	text6
  2090  002362                     __ptext6:
  2091                           	callstack 0
  2092  002362                     _WriteDataXLCD:
  2093                           	callstack 26
  2094                           
  2095                           ;incstack = 0
  2096                           ;WriteDataXLCD@data stored from wreg
  2097  002362  6E1E               	movwf	WriteDataXLCD@data^0,c
  2098  002364                     
  2099                           ;../ProjetoF_micro.X/nxlcd.c: 449: void WriteDataXLCD(char data);../ProjetoF_micro.X/nxl
      +                          cd.c: 450: {;../ProjetoF_micro.X/nxlcd.c: 464:         TRISD &= 0x0f;
  2100  002364  0E0F               	movlw	15
  2101  002366  1695               	andwf	149,f,c	;volatile
  2102                           
  2103                           ;../ProjetoF_micro.X/nxlcd.c: 465:         PORTD &= 0x0f;
  2104  002368  0E0F               	movlw	15
  2105  00236A  1683               	andwf	131,f,c	;volatile
  2106                           
  2107                           ;../ProjetoF_micro.X/nxlcd.c: 466:         PORTD |= data&0xf0;
  2108  00236C  501E               	movf	WriteDataXLCD@data^0,w,c
  2109  00236E  0BF0               	andlw	240
  2110  002370  1283               	iorwf	131,f,c	;volatile
  2111  002372                     
  2112                           ;../ProjetoF_micro.X/nxlcd.c: 472:         LATEbits.LATE0 = 1;
  2113  002372  808D               	bsf	141,0,c	;volatile
  2114  002374                     
  2115                           ;../ProjetoF_micro.X/nxlcd.c: 473:         LATEbits.LATE2 = 0;
  2116  002374  948D               	bcf	141,2,c	;volatile
  2117  002376                     
  2118                           ;../ProjetoF_micro.X/nxlcd.c: 474:         DelayFor18TCY();
  2119  002376  EC28  F012         	call	_DelayFor18TCY	;wreg free
  2120  00237A                     
  2121                           ;../ProjetoF_micro.X/nxlcd.c: 475:         LATEbits.LATE1 = 1;
  2122  00237A  828D               	bsf	141,1,c	;volatile
  2123  00237C                     
  2124                           ;../ProjetoF_micro.X/nxlcd.c: 476:         DelayFor18TCY();
  2125  00237C  EC28  F012         	call	_DelayFor18TCY	;wreg free
  2126  002380                     
  2127                           ;../ProjetoF_micro.X/nxlcd.c: 477:         LATEbits.LATE1 = 0;
  2128  002380  928D               	bcf	141,1,c	;volatile
  2129                           
  2130                           ;../ProjetoF_micro.X/nxlcd.c: 479:         PORTD &= 0x0f;
  2131  002382  0E0F               	movlw	15
  2132  002384  1683               	andwf	131,f,c	;volatile
  2133                           
  2134                           ;../ProjetoF_micro.X/nxlcd.c: 480:         PORTD |= ((data<<4)&0xf0);
  2135  002386  381E               	swapf	WriteDataXLCD@data^0,w,c
  2136  002388  0BF0               	andlw	240
  2137  00238A  0BF0               	andlw	240
  2138  00238C  1283               	iorwf	131,f,c	;volatile
  2139  00238E                     
  2140                           ;../ProjetoF_micro.X/nxlcd.c: 485:         DelayFor18TCY();
  2141  00238E  EC28  F012         	call	_DelayFor18TCY	;wreg free
  2142  002392                     
  2143                           ;../ProjetoF_micro.X/nxlcd.c: 486:         LATEbits.LATE1 = 1;
  2144  002392  828D               	bsf	141,1,c	;volatile
  2145  002394                     
  2146                           ;../ProjetoF_micro.X/nxlcd.c: 487:         DelayFor18TCY();
  2147  002394  EC28  F012         	call	_DelayFor18TCY	;wreg free
  2148  002398                     
  2149                           ;../ProjetoF_micro.X/nxlcd.c: 488:         LATEbits.LATE1 = 0;
  2150  002398  928D               	bcf	141,1,c	;volatile
  2151                           
  2152                           ;../ProjetoF_micro.X/nxlcd.c: 490:         TRISD |= 0xf0;
  2153  00239A  0EF0               	movlw	240
  2154  00239C  1295               	iorwf	149,f,c	;volatile
  2155  00239E  0012               	return		;funcret
  2156  0023A0                     __end_of_WriteDataXLCD:
  2157                           	callstack 0
  2158                           
  2159 ;; *************** function ___xxtofl *****************
  2160 ;; Defined at:
  2161 ;;		line 10 in file "C:\Program Files\Microchip\xc8\v2.32\pic\sources\c99\common\xxtofl.c"
  2162 ;; Parameters:    Size  Location     Type
  2163 ;;  sign            1    wreg     unsigned char 
  2164 ;;  val             4   29[COMRAM] long 
  2165 ;; Auto vars:     Size  Location     Type
  2166 ;;  sign            1   37[COMRAM] unsigned char 
  2167 ;;  arg             4   39[COMRAM] unsigned long 
  2168 ;;  exp             1   38[COMRAM] unsigned char 
  2169 ;; Return value:  Size  Location     Type
  2170 ;;                  4   29[COMRAM] unsigned char 
  2171 ;; Registers used:
  2172 ;;		wreg, status,2, status,0
  2173 ;; Tracked objects:
  2174 ;;		On entry : 0/0
  2175 ;;		On exit  : 0/0
  2176 ;;		Unchanged: 0/0
  2177 ;; Data sizes:     COMRAM   BANK0   BANK1   BANK2   BANK3   BANK4   BANK5   BANK6   BANK7
  2178 ;;      Params:         4       0       0       0       0       0       0       0       0
  2179 ;;      Locals:         6       0       0       0       0       0       0       0       0
  2180 ;;      Temps:          4       0       0       0       0       0       0       0       0
  2181 ;;      Totals:        14       0       0       0       0       0       0       0       0
  2182 ;;Total ram usage:       14 bytes
  2183 ;; Hardware stack levels used: 1
  2184 ;; Hardware stack levels required when called: 2
  2185 ;; This function calls:
  2186 ;;		Nothing
  2187 ;; This function is called by:
  2188 ;;		_readAnalog
  2189 ;;		_displayStuff
  2190 ;; This function uses a non-reentrant model
  2191 ;;
  2192                           
  2193                           	psect	text7
  2194  0014C2                     __ptext7:
  2195                           	callstack 0
  2196  0014C2                     ___xxtofl:
  2197                           	callstack 27
  2198                           
  2199                           ;incstack = 0
  2200                           ;___xxtofl@sign stored from wreg
  2201  0014C2  6E26               	movwf	___xxtofl@sign^0,c
  2202  0014C4  5026               	movf	___xxtofl@sign^0,w,c
  2203  0014C6  B4D8               	btfsc	status,2,c
  2204  0014C8  EF68  F00A         	goto	u2691
  2205  0014CC  EF6A  F00A         	goto	u2690
  2206  0014D0                     u2691:
  2207  0014D0  EF8C  F00A         	goto	l883
  2208  0014D4                     u2690:
  2209  0014D4  BE21               	btfsc	(___xxtofl@val+3)^0,7,c
  2210  0014D6  EF71  F00A         	goto	u2700
  2211  0014DA  EF6F  F00A         	goto	u2701
  2212  0014DE                     u2701:
  2213  0014DE  EF8C  F00A         	goto	l883
  2214  0014E2                     u2700:
  2215  0014E2  C01E  F022         	movff	___xxtofl@val,??___xxtofl
  2216  0014E6  C01F  F023         	movff	___xxtofl@val+1,??___xxtofl+1
  2217  0014EA  C020  F024         	movff	___xxtofl@val+2,??___xxtofl+2
  2218  0014EE  C021  F025         	movff	___xxtofl@val+3,??___xxtofl+3
  2219  0014F2  1E22               	comf	??___xxtofl^0,f,c
  2220  0014F4  1E23               	comf	(??___xxtofl+1)^0,f,c
  2221  0014F6  1E24               	comf	(??___xxtofl+2)^0,f,c
  2222  0014F8  1E25               	comf	(??___xxtofl+3)^0,f,c
  2223  0014FA  2A22               	incf	??___xxtofl^0,f,c
  2224  0014FC  0E00               	movlw	0
  2225  0014FE  2223               	addwfc	(??___xxtofl+1)^0,f,c
  2226  001500  2224               	addwfc	(??___xxtofl+2)^0,f,c
  2227  001502  2225               	addwfc	(??___xxtofl+3)^0,f,c
  2228  001504  C022  F028         	movff	??___xxtofl,___xxtofl@arg
  2229  001508  C023  F029         	movff	??___xxtofl+1,___xxtofl@arg+1
  2230  00150C  C024  F02A         	movff	??___xxtofl+2,___xxtofl@arg+2
  2231  001510  C025  F02B         	movff	??___xxtofl+3,___xxtofl@arg+3
  2232  001514  EF94  F00A         	goto	l2863
  2233  001518                     l883:
  2234  001518  C01E  F028         	movff	___xxtofl@val,___xxtofl@arg
  2235  00151C  C01F  F029         	movff	___xxtofl@val+1,___xxtofl@arg+1
  2236  001520  C020  F02A         	movff	___xxtofl@val+2,___xxtofl@arg+2
  2237  001524  C021  F02B         	movff	___xxtofl@val+3,___xxtofl@arg+3
  2238  001528                     l2863:
  2239  001528  501E               	movf	___xxtofl@val^0,w,c
  2240  00152A  101F               	iorwf	(___xxtofl@val+1)^0,w,c
  2241  00152C  1020               	iorwf	(___xxtofl@val+2)^0,w,c
  2242  00152E  1021               	iorwf	(___xxtofl@val+3)^0,w,c
  2243  001530  A4D8               	btfss	status,2,c
  2244  001532  EF9D  F00A         	goto	u2711
  2245  001536  EF9F  F00A         	goto	u2710
  2246  00153A                     u2711:
  2247  00153A  EFA9  F00A         	goto	l2869
  2248  00153E                     u2710:
  2249  00153E  0E00               	movlw	0
  2250  001540  6E1E               	movwf	?___xxtofl^0,c
  2251  001542  0E00               	movlw	0
  2252  001544  6E1F               	movwf	(?___xxtofl+1)^0,c
  2253  001546  0E00               	movlw	0
  2254  001548  6E20               	movwf	(?___xxtofl+2)^0,c
  2255  00154A  0E00               	movlw	0
  2256  00154C  6E21               	movwf	(?___xxtofl+3)^0,c
  2257  00154E  EF3A  F00B         	goto	l886
  2258  001552                     l2869:
  2259  001552  0E96               	movlw	150
  2260  001554  6E27               	movwf	___xxtofl@exp^0,c
  2261  001556  EFB3  F00A         	goto	l2873
  2262  00155A                     l2871:
  2263  00155A  2A27               	incf	___xxtofl@exp^0,f,c
  2264  00155C  90D8               	bcf	status,0,c
  2265  00155E  322B               	rrcf	(___xxtofl@arg+3)^0,f,c
  2266  001560  322A               	rrcf	(___xxtofl@arg+2)^0,f,c
  2267  001562  3229               	rrcf	(___xxtofl@arg+1)^0,f,c
  2268  001564  3228               	rrcf	___xxtofl@arg^0,f,c
  2269  001566                     l2873:
  2270  001566  0E00               	movlw	0
  2271  001568  1428               	andwf	___xxtofl@arg^0,w,c
  2272  00156A  6E22               	movwf	??___xxtofl^0,c
  2273  00156C  0E00               	movlw	0
  2274  00156E  1429               	andwf	(___xxtofl@arg+1)^0,w,c
  2275  001570  6E23               	movwf	(??___xxtofl+1)^0,c
  2276  001572  0E00               	movlw	0
  2277  001574  142A               	andwf	(___xxtofl@arg+2)^0,w,c
  2278  001576  6E24               	movwf	(??___xxtofl+2)^0,c
  2279  001578  0EFE               	movlw	254
  2280  00157A  142B               	andwf	(___xxtofl@arg+3)^0,w,c
  2281  00157C  6E25               	movwf	(??___xxtofl+3)^0,c
  2282  00157E  5022               	movf	??___xxtofl^0,w,c
  2283  001580  1023               	iorwf	(??___xxtofl+1)^0,w,c
  2284  001582  1024               	iorwf	(??___xxtofl+2)^0,w,c
  2285  001584  1025               	iorwf	(??___xxtofl+3)^0,w,c
  2286  001586  A4D8               	btfss	status,2,c
  2287  001588  EFC8  F00A         	goto	u2721
  2288  00158C  EFCA  F00A         	goto	u2720
  2289  001590                     u2721:
  2290  001590  EFAD  F00A         	goto	l2871
  2291  001594                     u2720:
  2292  001594  EFD8  F00A         	goto	l890
  2293  001598                     l2875:
  2294  001598  2A27               	incf	___xxtofl@exp^0,f,c
  2295  00159A  0E01               	movlw	1
  2296  00159C  2628               	addwf	___xxtofl@arg^0,f,c
  2297  00159E  0E00               	movlw	0
  2298  0015A0  2229               	addwfc	(___xxtofl@arg+1)^0,f,c
  2299  0015A2  222A               	addwfc	(___xxtofl@arg+2)^0,f,c
  2300  0015A4  222B               	addwfc	(___xxtofl@arg+3)^0,f,c
  2301  0015A6  90D8               	bcf	status,0,c
  2302  0015A8  322B               	rrcf	(___xxtofl@arg+3)^0,f,c
  2303  0015AA  322A               	rrcf	(___xxtofl@arg+2)^0,f,c
  2304  0015AC  3229               	rrcf	(___xxtofl@arg+1)^0,f,c
  2305  0015AE  3228               	rrcf	___xxtofl@arg^0,f,c
  2306  0015B0                     l890:
  2307  0015B0  0E00               	movlw	0
  2308  0015B2  1428               	andwf	___xxtofl@arg^0,w,c
  2309  0015B4  6E22               	movwf	??___xxtofl^0,c
  2310  0015B6  0E00               	movlw	0
  2311  0015B8  1429               	andwf	(___xxtofl@arg+1)^0,w,c
  2312  0015BA  6E23               	movwf	(??___xxtofl+1)^0,c
  2313  0015BC  0E00               	movlw	0
  2314  0015BE  142A               	andwf	(___xxtofl@arg+2)^0,w,c
  2315  0015C0  6E24               	movwf	(??___xxtofl+2)^0,c
  2316  0015C2  0EFF               	movlw	255
  2317  0015C4  142B               	andwf	(___xxtofl@arg+3)^0,w,c
  2318  0015C6  6E25               	movwf	(??___xxtofl+3)^0,c
  2319  0015C8  5022               	movf	??___xxtofl^0,w,c
  2320  0015CA  1023               	iorwf	(??___xxtofl+1)^0,w,c
  2321  0015CC  1024               	iorwf	(??___xxtofl+2)^0,w,c
  2322  0015CE  1025               	iorwf	(??___xxtofl+3)^0,w,c
  2323  0015D0  A4D8               	btfss	status,2,c
  2324  0015D2  EFED  F00A         	goto	u2731
  2325  0015D6  EFEF  F00A         	goto	u2730
  2326  0015DA                     u2731:
  2327  0015DA  EFCC  F00A         	goto	l2875
  2328  0015DE                     u2730:
  2329  0015DE  EFF7  F00A         	goto	l2883
  2330  0015E2                     l2881:
  2331  0015E2  0627               	decf	___xxtofl@exp^0,f,c
  2332  0015E4  90D8               	bcf	status,0,c
  2333  0015E6  3628               	rlcf	___xxtofl@arg^0,f,c
  2334  0015E8  3629               	rlcf	(___xxtofl@arg+1)^0,f,c
  2335  0015EA  362A               	rlcf	(___xxtofl@arg+2)^0,f,c
  2336  0015EC  362B               	rlcf	(___xxtofl@arg+3)^0,f,c
  2337  0015EE                     l2883:
  2338  0015EE  BE2A               	btfsc	(___xxtofl@arg+2)^0,7,c
  2339  0015F0  EFFC  F00A         	goto	u2741
  2340  0015F4  EFFE  F00A         	goto	u2740
  2341  0015F8                     u2741:
  2342  0015F8  EF06  F00B         	goto	l897
  2343  0015FC                     u2740:
  2344  0015FC  0E02               	movlw	2
  2345  0015FE  6027               	cpfslt	___xxtofl@exp^0,c
  2346  001600  EF04  F00B         	goto	u2751
  2347  001604  EF06  F00B         	goto	u2750
  2348  001608                     u2751:
  2349  001608  EFF1  F00A         	goto	l2881
  2350  00160C                     u2750:
  2351  00160C                     l897:
  2352  00160C  B027               	btfsc	___xxtofl@exp^0,0,c
  2353  00160E  EF0B  F00B         	goto	u2761
  2354  001612  EF0D  F00B         	goto	u2760
  2355  001616                     u2761:
  2356  001616  EF0E  F00B         	goto	l2889
  2357  00161A                     u2760:
  2358  00161A  9E2A               	bcf	(___xxtofl@arg+2)^0,7,c
  2359  00161C                     l2889:
  2360  00161C  90D8               	bcf	status,0,c
  2361  00161E  3227               	rrcf	___xxtofl@exp^0,f,c
  2362  001620  C027  F022         	movff	___xxtofl@exp,??___xxtofl
  2363  001624  6A23               	clrf	(??___xxtofl+1)^0,c
  2364  001626  6A24               	clrf	(??___xxtofl+2)^0,c
  2365  001628  6A25               	clrf	(??___xxtofl+3)^0,c
  2366  00162A  C022  F025         	movff	??___xxtofl,??___xxtofl+3
  2367  00162E  6A24               	clrf	(??___xxtofl+2)^0,c
  2368  001630  6A23               	clrf	(??___xxtofl+1)^0,c
  2369  001632  6A22               	clrf	??___xxtofl^0,c
  2370  001634  5022               	movf	??___xxtofl^0,w,c
  2371  001636  1228               	iorwf	___xxtofl@arg^0,f,c
  2372  001638  5023               	movf	(??___xxtofl+1)^0,w,c
  2373  00163A  1229               	iorwf	(___xxtofl@arg+1)^0,f,c
  2374  00163C  5024               	movf	(??___xxtofl+2)^0,w,c
  2375  00163E  122A               	iorwf	(___xxtofl@arg+2)^0,f,c
  2376  001640  5025               	movf	(??___xxtofl+3)^0,w,c
  2377  001642  122B               	iorwf	(___xxtofl@arg+3)^0,f,c
  2378  001644  5026               	movf	___xxtofl@sign^0,w,c
  2379  001646  B4D8               	btfsc	status,2,c
  2380  001648  EF28  F00B         	goto	u2771
  2381  00164C  EF2A  F00B         	goto	u2770
  2382  001650                     u2771:
  2383  001650  EF32  F00B         	goto	l2899
  2384  001654                     u2770:
  2385  001654  BE21               	btfsc	(___xxtofl@val+3)^0,7,c
  2386  001656  EF31  F00B         	goto	u2780
  2387  00165A  EF2F  F00B         	goto	u2781
  2388  00165E                     u2781:
  2389  00165E  EF32  F00B         	goto	l2899
  2390  001662                     u2780:
  2391  001662  8E2B               	bsf	(___xxtofl@arg+3)^0,7,c
  2392  001664                     l2899:
  2393  001664  C028  F01E         	movff	___xxtofl@arg,?___xxtofl
  2394  001668  C029  F01F         	movff	___xxtofl@arg+1,?___xxtofl+1
  2395  00166C  C02A  F020         	movff	___xxtofl@arg+2,?___xxtofl+2
  2396  001670  C02B  F021         	movff	___xxtofl@arg+3,?___xxtofl+3
  2397  001674                     l886:
  2398  001674  0012               	return		;funcret
  2399  001676                     __end_of___xxtofl:
  2400                           	callstack 0
  2401                           
  2402 ;; *************** function ___fltol *****************
  2403 ;; Defined at:
  2404 ;;		line 43 in file "C:\Program Files\Microchip\xc8\v2.32\pic\sources\c99\common\fltol.c"
  2405 ;; Parameters:    Size  Location     Type
  2406 ;;  f1              4   38[BANK0 ] unsigned char 
  2407 ;; Auto vars:     Size  Location     Type
  2408 ;;  exp1            1   56[COMRAM] unsigned char 
  2409 ;;  sign1           1   55[COMRAM] unsigned char 
  2410 ;; Return value:  Size  Location     Type
  2411 ;;                  4   38[BANK0 ] long 
  2412 ;; Registers used:
  2413 ;;		wreg, status,2, status,0
  2414 ;; Tracked objects:
  2415 ;;		On entry : 0/0
  2416 ;;		On exit  : 0/0
  2417 ;;		Unchanged: 0/0
  2418 ;; Data sizes:     COMRAM   BANK0   BANK1   BANK2   BANK3   BANK4   BANK5   BANK6   BANK7
  2419 ;;      Params:         0       4       0       0       0       0       0       0       0
  2420 ;;      Locals:         2       0       0       0       0       0       0       0       0
  2421 ;;      Temps:          0       4       0       0       0       0       0       0       0
  2422 ;;      Totals:         2       8       0       0       0       0       0       0       0
  2423 ;;Total ram usage:       10 bytes
  2424 ;; Hardware stack levels used: 1
  2425 ;; Hardware stack levels required when called: 2
  2426 ;; This function calls:
  2427 ;;		Nothing
  2428 ;; This function is called by:
  2429 ;;		_displayStuff
  2430 ;; This function uses a non-reentrant model
  2431 ;;
  2432                           
  2433                           	psect	text8
  2434  001A2C                     __ptext8:
  2435                           	callstack 0
  2436  001A2C                     ___fltol:
  2437                           	callstack 27
  2438  001A2C  0100               	movlb	0	; () banked
  2439  001A2E  3588               	rlcf	(___fltol@f1+2)& (0+255),w,b
  2440  001A30  3589               	rlcf	(___fltol@f1+3)& (0+255),w,b
  2441  001A32  6E39               	movwf	___fltol@exp1^0,c
  2442  001A34  5039               	movf	___fltol@exp1^0,w,c
  2443  001A36  A4D8               	btfss	status,2,c
  2444  001A38  EF20  F00D         	goto	u2621
  2445  001A3C  EF22  F00D         	goto	u2620
  2446  001A40                     u2621:
  2447  001A40  EF2C  F00D         	goto	l2819
  2448  001A44                     u2620:
  2449  001A44                     l2815:
  2450                           
  2451                           ; BSR set to: 0
  2452  001A44  0E00               	movlw	0
  2453  001A46  6F86               	movwf	?___fltol& (0+255),b
  2454  001A48  0E00               	movlw	0
  2455  001A4A  6F87               	movwf	(?___fltol+1)& (0+255),b
  2456  001A4C  0E00               	movlw	0
  2457  001A4E  6F88               	movwf	(?___fltol+2)& (0+255),b
  2458  001A50  0E00               	movlw	0
  2459  001A52  6F89               	movwf	(?___fltol+3)& (0+255),b
  2460  001A54  EF99  F00D         	goto	l525
  2461  001A58                     l2819:
  2462                           
  2463                           ; BSR set to: 0
  2464  001A58  C086  F08A         	movff	___fltol@f1,??___fltol
  2465  001A5C  C087  F08B         	movff	___fltol@f1+1,??___fltol+1
  2466  001A60  C088  F08C         	movff	___fltol@f1+2,??___fltol+2
  2467  001A64  C089  F08D         	movff	___fltol@f1+3,??___fltol+3
  2468  001A68  0E20               	movlw	32
  2469  001A6A  EF3C  F00D         	goto	u2630
  2470  001A6E                     u2635:
  2471  001A6E  90D8               	bcf	status,0,c
  2472  001A70  338D               	rrcf	(??___fltol+3)& (0+255),f,b
  2473  001A72  338C               	rrcf	(??___fltol+2)& (0+255),f,b
  2474  001A74  338B               	rrcf	(??___fltol+1)& (0+255),f,b
  2475  001A76  338A               	rrcf	??___fltol& (0+255),f,b
  2476  001A78                     u2630:
  2477  001A78  2EE8               	decfsz	wreg,f,c
  2478  001A7A  EF37  F00D         	goto	u2635
  2479  001A7E  518A               	movf	??___fltol& (0+255),w,b
  2480  001A80  6E38               	movwf	___fltol@sign1^0,c
  2481  001A82                     
  2482                           ; BSR set to: 0
  2483  001A82  8F88               	bsf	(___fltol@f1+2)& (0+255),7,b
  2484  001A84                     
  2485                           ; BSR set to: 0
  2486  001A84  0EFF               	movlw	255
  2487  001A86  1786               	andwf	___fltol@f1& (0+255),f,b
  2488  001A88  0EFF               	movlw	255
  2489  001A8A  1787               	andwf	(___fltol@f1+1)& (0+255),f,b
  2490  001A8C  0EFF               	movlw	255
  2491  001A8E  1788               	andwf	(___fltol@f1+2)& (0+255),f,b
  2492  001A90  0E00               	movlw	0
  2493  001A92  1789               	andwf	(___fltol@f1+3)& (0+255),f,b
  2494  001A94                     
  2495                           ; BSR set to: 0
  2496  001A94  0E96               	movlw	150
  2497  001A96  5E39               	subwf	___fltol@exp1^0,f,c
  2498  001A98                     
  2499                           ; BSR set to: 0
  2500  001A98  BE39               	btfsc	___fltol@exp1^0,7,c
  2501  001A9A  EF53  F00D         	goto	u2640
  2502  001A9E  EF51  F00D         	goto	u2641
  2503  001AA2                     u2641:
  2504  001AA2  EF69  F00D         	goto	l2839
  2505  001AA6                     u2640:
  2506  001AA6                     
  2507                           ; BSR set to: 0
  2508  001AA6  5039               	movf	___fltol@exp1^0,w,c
  2509  001AA8  0A80               	xorlw	128
  2510  001AAA  0F97               	addlw	151
  2511  001AAC  B0D8               	btfsc	status,0,c
  2512  001AAE  EF5B  F00D         	goto	u2651
  2513  001AB2  EF5D  F00D         	goto	u2650
  2514  001AB6                     u2651:
  2515  001AB6  EF5F  F00D         	goto	l2835
  2516  001ABA                     u2650:
  2517  001ABA  EF22  F00D         	goto	l2815
  2518  001ABE                     l2835:
  2519                           
  2520                           ; BSR set to: 0
  2521  001ABE  90D8               	bcf	status,0,c
  2522  001AC0  3389               	rrcf	(___fltol@f1+3)& (0+255),f,b
  2523  001AC2  3388               	rrcf	(___fltol@f1+2)& (0+255),f,b
  2524  001AC4  3387               	rrcf	(___fltol@f1+1)& (0+255),f,b
  2525  001AC6  3386               	rrcf	___fltol@f1& (0+255),f,b
  2526  001AC8                     
  2527                           ; BSR set to: 0
  2528  001AC8  3E39               	incfsz	___fltol@exp1^0,f,c
  2529  001ACA  EF5F  F00D         	goto	l2835
  2530  001ACE  EF81  F00D         	goto	l2849
  2531  001AD2                     l2839:
  2532                           
  2533                           ; BSR set to: 0
  2534  001AD2  0E1F               	movlw	31
  2535  001AD4  6439               	cpfsgt	___fltol@exp1^0,c
  2536  001AD6  EF6F  F00D         	goto	u2661
  2537  001ADA  EF71  F00D         	goto	u2660
  2538  001ADE                     u2661:
  2539  001ADE  EF79  F00D         	goto	l2847
  2540  001AE2                     u2660:
  2541  001AE2  EF22  F00D         	goto	l2815
  2542  001AE6                     l2845:
  2543                           
  2544                           ; BSR set to: 0
  2545  001AE6  90D8               	bcf	status,0,c
  2546  001AE8  3786               	rlcf	___fltol@f1& (0+255),f,b
  2547  001AEA  3787               	rlcf	(___fltol@f1+1)& (0+255),f,b
  2548  001AEC  3788               	rlcf	(___fltol@f1+2)& (0+255),f,b
  2549  001AEE  3789               	rlcf	(___fltol@f1+3)& (0+255),f,b
  2550  001AF0  0639               	decf	___fltol@exp1^0,f,c
  2551  001AF2                     l2847:
  2552                           
  2553                           ; BSR set to: 0
  2554  001AF2  5039               	movf	___fltol@exp1^0,w,c
  2555  001AF4  A4D8               	btfss	status,2,c
  2556  001AF6  EF7F  F00D         	goto	u2671
  2557  001AFA  EF81  F00D         	goto	u2670
  2558  001AFE                     u2671:
  2559  001AFE  EF73  F00D         	goto	l2845
  2560  001B02                     u2670:
  2561  001B02                     l2849:
  2562                           
  2563                           ; BSR set to: 0
  2564  001B02  5038               	movf	___fltol@sign1^0,w,c
  2565  001B04  B4D8               	btfsc	status,2,c
  2566  001B06  EF87  F00D         	goto	u2681
  2567  001B0A  EF89  F00D         	goto	u2680
  2568  001B0E                     u2681:
  2569  001B0E  EF91  F00D         	goto	l2853
  2570  001B12                     u2680:
  2571  001B12                     
  2572                           ; BSR set to: 0
  2573  001B12  1F89               	comf	(___fltol@f1+3)& (0+255),f,b
  2574  001B14  1F88               	comf	(___fltol@f1+2)& (0+255),f,b
  2575  001B16  1F87               	comf	(___fltol@f1+1)& (0+255),f,b
  2576  001B18  6D86               	negf	___fltol@f1& (0+255),b
  2577  001B1A  0E00               	movlw	0
  2578  001B1C  2387               	addwfc	(___fltol@f1+1)& (0+255),f,b
  2579  001B1E  2388               	addwfc	(___fltol@f1+2)& (0+255),f,b
  2580  001B20  2389               	addwfc	(___fltol@f1+3)& (0+255),f,b
  2581  001B22                     l2853:
  2582                           
  2583                           ; BSR set to: 0
  2584  001B22  C086  F086         	movff	___fltol@f1,?___fltol
  2585  001B26  C087  F087         	movff	___fltol@f1+1,?___fltol+1
  2586  001B2A  C088  F088         	movff	___fltol@f1+2,?___fltol+2
  2587  001B2E  C089  F089         	movff	___fltol@f1+3,?___fltol+3
  2588  001B32                     l525:
  2589                           
  2590                           ; BSR set to: 0
  2591  001B32  0012               	return		;funcret
  2592  001B34                     __end_of___fltol:
  2593                           	callstack 0
  2594                           
  2595 ;; *************** function ___flsub *****************
  2596 ;; Defined at:
  2597 ;;		line 245 in file "C:\Program Files\Microchip\xc8\v2.32\pic\sources\c99\common\sprcadd.c"
  2598 ;; Parameters:    Size  Location     Type
  2599 ;;  b               4   45[COMRAM] long 
  2600 ;;  a               4   49[COMRAM] long 
  2601 ;; Auto vars:     Size  Location     Type
  2602 ;;		None
  2603 ;; Return value:  Size  Location     Type
  2604 ;;                  4   45[COMRAM] long 
  2605 ;; Registers used:
  2606 ;;		wreg, status,2, status,0, cstack
  2607 ;; Tracked objects:
  2608 ;;		On entry : 0/0
  2609 ;;		On exit  : 0/0
  2610 ;;		Unchanged: 0/0
  2611 ;; Data sizes:     COMRAM   BANK0   BANK1   BANK2   BANK3   BANK4   BANK5   BANK6   BANK7
  2612 ;;      Params:         8       0       0       0       0       0       0       0       0
  2613 ;;      Locals:         0       0       0       0       0       0       0       0       0
  2614 ;;      Temps:          0       0       0       0       0       0       0       0       0
  2615 ;;      Totals:         8       0       0       0       0       0       0       0       0
  2616 ;;Total ram usage:        8 bytes
  2617 ;; Hardware stack levels used: 1
  2618 ;; Hardware stack levels required when called: 3
  2619 ;; This function calls:
  2620 ;;		___fladd
  2621 ;; This function is called by:
  2622 ;;		_displayStuff
  2623 ;; This function uses a non-reentrant model
  2624 ;;
  2625                           
  2626                           	psect	text9
  2627  002296                     __ptext9:
  2628                           	callstack 0
  2629  002296                     ___flsub:
  2630                           	callstack 26
  2631  002296  0E00               	movlw	0
  2632  002298  1A32               	xorwf	___flsub@a^0,f,c
  2633  00229A  0E00               	movlw	0
  2634  00229C  1A33               	xorwf	(___flsub@a+1)^0,f,c
  2635  00229E  0E00               	movlw	0
  2636  0022A0  1A34               	xorwf	(___flsub@a+2)^0,f,c
  2637  0022A2  0E80               	movlw	128
  2638  0022A4  1A35               	xorwf	(___flsub@a+3)^0,f,c
  2639  0022A6  C02E  F01E         	movff	___flsub@b,___fladd@b
  2640  0022AA  C02F  F01F         	movff	___flsub@b+1,___fladd@b+1
  2641  0022AE  C030  F020         	movff	___flsub@b+2,___fladd@b+2
  2642  0022B2  C031  F021         	movff	___flsub@b+3,___fladd@b+3
  2643  0022B6  C032  F022         	movff	___flsub@a,___fladd@a
  2644  0022BA  C033  F023         	movff	___flsub@a+1,___fladd@a+1
  2645  0022BE  C034  F024         	movff	___flsub@a+2,___fladd@a+2
  2646  0022C2  C035  F025         	movff	___flsub@a+3,___fladd@a+3
  2647  0022C6  EC1D  F004         	call	___fladd	;wreg free
  2648  0022CA  C01E  F02E         	movff	?___fladd,?___flsub
  2649  0022CE  C01F  F02F         	movff	?___fladd+1,?___flsub+1
  2650  0022D2  C020  F030         	movff	?___fladd+2,?___flsub+2
  2651  0022D6  C021  F031         	movff	?___fladd+3,?___flsub+3
  2652  0022DA  0012               	return		;funcret
  2653  0022DC                     __end_of___flsub:
  2654                           	callstack 0
  2655                           
  2656 ;; *************** function ___fladd *****************
  2657 ;; Defined at:
  2658 ;;		line 10 in file "C:\Program Files\Microchip\xc8\v2.32\pic\sources\c99\common\sprcadd.c"
  2659 ;; Parameters:    Size  Location     Type
  2660 ;;  b               4   29[COMRAM] long 
  2661 ;;  a               4   33[COMRAM] long 
  2662 ;; Auto vars:     Size  Location     Type
  2663 ;;  grs             1   44[COMRAM] unsigned char 
  2664 ;;  bexp            1   43[COMRAM] unsigned char 
  2665 ;;  aexp            1   42[COMRAM] unsigned char 
  2666 ;;  signs           1   41[COMRAM] unsigned char 
  2667 ;; Return value:  Size  Location     Type
  2668 ;;                  4   29[COMRAM] unsigned char 
  2669 ;; Registers used:
  2670 ;;		wreg, status,2, status,0
  2671 ;; Tracked objects:
  2672 ;;		On entry : 0/0
  2673 ;;		On exit  : 0/0
  2674 ;;		Unchanged: 0/0
  2675 ;; Data sizes:     COMRAM   BANK0   BANK1   BANK2   BANK3   BANK4   BANK5   BANK6   BANK7
  2676 ;;      Params:         8       0       0       0       0       0       0       0       0
  2677 ;;      Locals:         4       0       0       0       0       0       0       0       0
  2678 ;;      Temps:          4       0       0       0       0       0       0       0       0
  2679 ;;      Totals:        16       0       0       0       0       0       0       0       0
  2680 ;;Total ram usage:       16 bytes
  2681 ;; Hardware stack levels used: 1
  2682 ;; Hardware stack levels required when called: 2
  2683 ;; This function calls:
  2684 ;;		Nothing
  2685 ;; This function is called by:
  2686 ;;		___flsub
  2687 ;; This function uses a non-reentrant model
  2688 ;;
  2689                           
  2690                           	psect	text10
  2691  00083A                     __ptext10:
  2692                           	callstack 0
  2693  00083A                     ___fladd:
  2694                           	callstack 26
  2695  00083A  5021               	movf	(___fladd@b+3)^0,w,c
  2696  00083C  0B80               	andlw	128
  2697  00083E  6E2A               	movwf	___fladd@signs^0,c
  2698  000840  5021               	movf	(___fladd@b+3)^0,w,c
  2699  000842  2421               	addwf	(___fladd@b+3)^0,w,c
  2700  000844  6E2C               	movwf	___fladd@bexp^0,c
  2701  000846  AE20               	btfss	(___fladd@b+2)^0,7,c
  2702  000848  EF28  F004         	goto	u1581
  2703  00084C  EF2A  F004         	goto	u1580
  2704  000850                     u1581:
  2705  000850  EF2B  F004         	goto	l2195
  2706  000854                     u1580:
  2707  000854  802C               	bsf	___fladd@bexp^0,0,c
  2708  000856                     l2195:
  2709  000856  502C               	movf	___fladd@bexp^0,w,c
  2710  000858  B4D8               	btfsc	status,2,c
  2711  00085A  EF31  F004         	goto	u1591
  2712  00085E  EF33  F004         	goto	u1590
  2713  000862                     u1591:
  2714  000862  EF48  F004         	goto	l2205
  2715  000866                     u1590:
  2716  000866  282C               	incf	___fladd@bexp^0,w,c
  2717  000868  A4D8               	btfss	status,2,c
  2718  00086A  EF39  F004         	goto	u1601
  2719  00086E  EF3B  F004         	goto	u1600
  2720  000872                     u1601:
  2721  000872  EF43  F004         	goto	l2201
  2722  000876                     u1600:
  2723  000876  0E00               	movlw	0
  2724  000878  6E1E               	movwf	___fladd@b^0,c
  2725  00087A  0E00               	movlw	0
  2726  00087C  6E1F               	movwf	(___fladd@b+1)^0,c
  2727  00087E  0E00               	movlw	0
  2728  000880  6E20               	movwf	(___fladd@b+2)^0,c
  2729  000882  0E00               	movlw	0
  2730  000884  6E21               	movwf	(___fladd@b+3)^0,c
  2731  000886                     l2201:
  2732  000886  8E20               	bsf	(___fladd@b+2)^0,7,c
  2733  000888  0E00               	movlw	0
  2734  00088A  6E21               	movwf	(___fladd@b+3)^0,c
  2735  00088C  EF50  F004         	goto	l2207
  2736  000890                     l2205:
  2737  000890  0E00               	movlw	0
  2738  000892  6E1E               	movwf	___fladd@b^0,c
  2739  000894  0E00               	movlw	0
  2740  000896  6E1F               	movwf	(___fladd@b+1)^0,c
  2741  000898  0E00               	movlw	0
  2742  00089A  6E20               	movwf	(___fladd@b+2)^0,c
  2743  00089C  0E00               	movlw	0
  2744  00089E  6E21               	movwf	(___fladd@b+3)^0,c
  2745  0008A0                     l2207:
  2746  0008A0  5025               	movf	(___fladd@a+3)^0,w,c
  2747  0008A2  0B80               	andlw	128
  2748  0008A4  6E2B               	movwf	___fladd@aexp^0,c
  2749  0008A6  502A               	movf	___fladd@signs^0,w,c
  2750  0008A8  182B               	xorwf	___fladd@aexp^0,w,c
  2751  0008AA  B4D8               	btfsc	status,2,c
  2752  0008AC  EF5A  F004         	goto	u1611
  2753  0008B0  EF5C  F004         	goto	u1610
  2754  0008B4                     u1611:
  2755  0008B4  EF5D  F004         	goto	l2213
  2756  0008B8                     u1610:
  2757  0008B8  8C2A               	bsf	___fladd@signs^0,6,c
  2758  0008BA                     l2213:
  2759  0008BA  5025               	movf	(___fladd@a+3)^0,w,c
  2760  0008BC  2425               	addwf	(___fladd@a+3)^0,w,c
  2761  0008BE  6E2B               	movwf	___fladd@aexp^0,c
  2762  0008C0  AE24               	btfss	(___fladd@a+2)^0,7,c
  2763  0008C2  EF65  F004         	goto	u1621
  2764  0008C6  EF67  F004         	goto	u1620
  2765  0008CA                     u1621:
  2766  0008CA  EF68  F004         	goto	l2219
  2767  0008CE                     u1620:
  2768  0008CE  802B               	bsf	___fladd@aexp^0,0,c
  2769  0008D0                     l2219:
  2770  0008D0  502B               	movf	___fladd@aexp^0,w,c
  2771  0008D2  B4D8               	btfsc	status,2,c
  2772  0008D4  EF6E  F004         	goto	u1631
  2773  0008D8  EF70  F004         	goto	u1630
  2774  0008DC                     u1631:
  2775  0008DC  EF85  F004         	goto	l2229
  2776  0008E0                     u1630:
  2777  0008E0  282B               	incf	___fladd@aexp^0,w,c
  2778  0008E2  A4D8               	btfss	status,2,c
  2779  0008E4  EF76  F004         	goto	u1641
  2780  0008E8  EF78  F004         	goto	u1640
  2781  0008EC                     u1641:
  2782  0008EC  EF80  F004         	goto	l2225
  2783  0008F0                     u1640:
  2784  0008F0  0E00               	movlw	0
  2785  0008F2  6E22               	movwf	___fladd@a^0,c
  2786  0008F4  0E00               	movlw	0
  2787  0008F6  6E23               	movwf	(___fladd@a+1)^0,c
  2788  0008F8  0E00               	movlw	0
  2789  0008FA  6E24               	movwf	(___fladd@a+2)^0,c
  2790  0008FC  0E00               	movlw	0
  2791  0008FE  6E25               	movwf	(___fladd@a+3)^0,c
  2792  000900                     l2225:
  2793  000900  8E24               	bsf	(___fladd@a+2)^0,7,c
  2794  000902  0E00               	movlw	0
  2795  000904  6E25               	movwf	(___fladd@a+3)^0,c
  2796  000906  EF8D  F004         	goto	l2231
  2797  00090A                     l2229:
  2798  00090A  0E00               	movlw	0
  2799  00090C  6E22               	movwf	___fladd@a^0,c
  2800  00090E  0E00               	movlw	0
  2801  000910  6E23               	movwf	(___fladd@a+1)^0,c
  2802  000912  0E00               	movlw	0
  2803  000914  6E24               	movwf	(___fladd@a+2)^0,c
  2804  000916  0E00               	movlw	0
  2805  000918  6E25               	movwf	(___fladd@a+3)^0,c
  2806  00091A                     l2231:
  2807  00091A  502C               	movf	___fladd@bexp^0,w,c
  2808  00091C  5C2B               	subwf	___fladd@aexp^0,w,c
  2809  00091E  B0D8               	btfsc	status,0,c
  2810  000920  EF94  F004         	goto	u1651
  2811  000924  EF96  F004         	goto	u1650
  2812  000928                     u1651:
  2813  000928  EFBD  F004         	goto	l2267
  2814  00092C                     u1650:
  2815  00092C  AC2A               	btfss	___fladd@signs^0,6,c
  2816  00092E  EF9B  F004         	goto	u1661
  2817  000932  EF9D  F004         	goto	u1660
  2818  000936                     u1661:
  2819  000936  EF9F  F004         	goto	l2237
  2820  00093A                     u1660:
  2821  00093A  0E80               	movlw	128
  2822  00093C  1A2A               	xorwf	___fladd@signs^0,f,c
  2823  00093E                     l2237:
  2824  00093E  C02C  F02D         	movff	___fladd@bexp,___fladd@grs
  2825  000942  C02B  F02C         	movff	___fladd@aexp,___fladd@bexp
  2826  000946  C02D  F02B         	movff	___fladd@grs,___fladd@aexp
  2827  00094A  C01E  F02D         	movff	___fladd@b,___fladd@grs
  2828  00094E  C022  F01E         	movff	___fladd@a,___fladd@b
  2829  000952  C02D  F022         	movff	___fladd@grs,___fladd@a
  2830  000956  C01F  F02D         	movff	___fladd@b+1,___fladd@grs
  2831  00095A  C023  F01F         	movff	___fladd@a+1,___fladd@b+1
  2832  00095E  C02D  F023         	movff	___fladd@grs,___fladd@a+1
  2833  000962  C020  F02D         	movff	___fladd@b+2,___fladd@grs
  2834  000966  C024  F020         	movff	___fladd@a+2,___fladd@b+2
  2835  00096A  C02D  F024         	movff	___fladd@grs,___fladd@a+2
  2836  00096E  C021  F02D         	movff	___fladd@b+3,___fladd@grs
  2837  000972  C025  F021         	movff	___fladd@a+3,___fladd@b+3
  2838  000976  C02D  F025         	movff	___fladd@grs,___fladd@a+3
  2839  00097A                     l2267:
  2840  00097A  0E00               	movlw	0
  2841  00097C  6E2D               	movwf	___fladd@grs^0,c
  2842  00097E  502C               	movf	___fladd@bexp^0,w,c
  2843  000980  C02B  F026         	movff	___fladd@aexp,??___fladd
  2844  000984  6A27               	clrf	(??___fladd+1)^0,c
  2845  000986  5E26               	subwf	??___fladd^0,f,c
  2846  000988  0E00               	movlw	0
  2847  00098A  5A27               	subwfb	(??___fladd+1)^0,f,c
  2848  00098C  BE27               	btfsc	(??___fladd+1)^0,7,c
  2849  00098E  EFD2  F004         	goto	u1671
  2850  000992  5027               	movf	(??___fladd+1)^0,w,c
  2851  000994  E109               	bnz	u1670
  2852  000996  0E1A               	movlw	26
  2853  000998  5C26               	subwf	??___fladd^0,w,c
  2854  00099A  A0D8               	btfss	status,0,c
  2855  00099C  EFD2  F004         	goto	u1671
  2856  0009A0  EFD4  F004         	goto	u1670
  2857  0009A4                     u1671:
  2858  0009A4  EF0B  F005         	goto	l757
  2859  0009A8                     u1670:
  2860  0009A8  501E               	movf	___fladd@b^0,w,c
  2861  0009AA  101F               	iorwf	(___fladd@b+1)^0,w,c
  2862  0009AC  1020               	iorwf	(___fladd@b+2)^0,w,c
  2863  0009AE  1021               	iorwf	(___fladd@b+3)^0,w,c
  2864  0009B0  A4D8               	btfss	status,2,c
  2865  0009B2  EFDD  F004         	goto	u1681
  2866  0009B6  EFE0  F004         	goto	u1680
  2867  0009BA                     u1681:
  2868  0009BA  0E01               	movlw	1
  2869  0009BC  EFE1  F004         	goto	u1690
  2870  0009C0                     u1680:
  2871  0009C0  0E00               	movlw	0
  2872  0009C2                     u1690:
  2873  0009C2  6E2D               	movwf	___fladd@grs^0,c
  2874  0009C4  0E00               	movlw	0
  2875  0009C6  6E1E               	movwf	___fladd@b^0,c
  2876  0009C8  0E00               	movlw	0
  2877  0009CA  6E1F               	movwf	(___fladd@b+1)^0,c
  2878  0009CC  0E00               	movlw	0
  2879  0009CE  6E20               	movwf	(___fladd@b+2)^0,c
  2880  0009D0  0E00               	movlw	0
  2881  0009D2  6E21               	movwf	(___fladd@b+3)^0,c
  2882  0009D4  C02B  F02C         	movff	___fladd@aexp,___fladd@bexp
  2883  0009D8  EF14  F005         	goto	l756
  2884  0009DC                     l758:
  2885  0009DC  A02D               	btfss	___fladd@grs^0,0,c
  2886  0009DE  EFF3  F004         	goto	u1701
  2887  0009E2  EFF5  F004         	goto	u1700
  2888  0009E6                     u1701:
  2889  0009E6  EFFB  F004         	goto	l2279
  2890  0009EA                     u1700:
  2891  0009EA  90D8               	bcf	status,0,c
  2892  0009EC  302D               	rrcf	___fladd@grs^0,w,c
  2893  0009EE  0901               	iorlw	1
  2894  0009F0  6E2D               	movwf	___fladd@grs^0,c
  2895  0009F2  EFFD  F004         	goto	l2281
  2896  0009F6                     l2279:
  2897  0009F6  90D8               	bcf	status,0,c
  2898  0009F8  322D               	rrcf	___fladd@grs^0,f,c
  2899  0009FA                     l2281:
  2900  0009FA  A01E               	btfss	___fladd@b^0,0,c
  2901  0009FC  EF02  F005         	goto	u1711
  2902  000A00  EF04  F005         	goto	u1710
  2903  000A04                     u1711:
  2904  000A04  EF05  F005         	goto	l2285
  2905  000A08                     u1710:
  2906  000A08  8E2D               	bsf	___fladd@grs^0,7,c
  2907  000A0A                     l2285:
  2908  000A0A  3421               	rlcf	(___fladd@b+3)^0,w,c
  2909  000A0C  3221               	rrcf	(___fladd@b+3)^0,f,c
  2910  000A0E  3220               	rrcf	(___fladd@b+2)^0,f,c
  2911  000A10  321F               	rrcf	(___fladd@b+1)^0,f,c
  2912  000A12  321E               	rrcf	___fladd@b^0,f,c
  2913  000A14  2A2C               	incf	___fladd@bexp^0,f,c
  2914  000A16                     l757:
  2915  000A16  502B               	movf	___fladd@aexp^0,w,c
  2916  000A18  5C2C               	subwf	___fladd@bexp^0,w,c
  2917  000A1A  A0D8               	btfss	status,0,c
  2918  000A1C  EF12  F005         	goto	u1721
  2919  000A20  EF14  F005         	goto	u1720
  2920  000A24                     u1721:
  2921  000A24  EFEE  F004         	goto	l758
  2922  000A28                     u1720:
  2923  000A28                     l756:
  2924  000A28  BC2A               	btfsc	___fladd@signs^0,6,c
  2925  000A2A  EF19  F005         	goto	u1731
  2926  000A2E  EF1B  F005         	goto	u1730
  2927  000A32                     u1731:
  2928  000A32  EF5B  F005         	goto	l2313
  2929  000A36                     u1730:
  2930  000A36  502C               	movf	___fladd@bexp^0,w,c
  2931  000A38  A4D8               	btfss	status,2,c
  2932  000A3A  EF21  F005         	goto	u1741
  2933  000A3E  EF23  F005         	goto	u1740
  2934  000A42                     u1741:
  2935  000A42  EF2D  F005         	goto	l2295
  2936  000A46                     u1740:
  2937  000A46  0E00               	movlw	0
  2938  000A48  6E1E               	movwf	?___fladd^0,c
  2939  000A4A  0E00               	movlw	0
  2940  000A4C  6E1F               	movwf	(?___fladd+1)^0,c
  2941  000A4E  0E00               	movlw	0
  2942  000A50  6E20               	movwf	(?___fladd+2)^0,c
  2943  000A52  0E00               	movlw	0
  2944  000A54  6E21               	movwf	(?___fladd+3)^0,c
  2945  000A56  EF7C  F006         	goto	l765
  2946  000A5A                     l2295:
  2947  000A5A  5022               	movf	___fladd@a^0,w,c
  2948  000A5C  261E               	addwf	___fladd@b^0,f,c
  2949  000A5E  5023               	movf	(___fladd@a+1)^0,w,c
  2950  000A60  221F               	addwfc	(___fladd@b+1)^0,f,c
  2951  000A62  5024               	movf	(___fladd@a+2)^0,w,c
  2952  000A64  2220               	addwfc	(___fladd@b+2)^0,f,c
  2953  000A66  5025               	movf	(___fladd@a+3)^0,w,c
  2954  000A68  2221               	addwfc	(___fladd@b+3)^0,f,c
  2955  000A6A  A021               	btfss	(___fladd@b+3)^0,0,c
  2956  000A6C  EF3A  F005         	goto	u1751
  2957  000A70  EF3C  F005         	goto	u1750
  2958  000A74                     u1751:
  2959  000A74  EFE8  F005         	goto	l2349
  2960  000A78                     u1750:
  2961  000A78  A02D               	btfss	___fladd@grs^0,0,c
  2962  000A7A  EF41  F005         	goto	u1761
  2963  000A7E  EF43  F005         	goto	u1760
  2964  000A82                     u1761:
  2965  000A82  EF49  F005         	goto	l2303
  2966  000A86                     u1760:
  2967  000A86  90D8               	bcf	status,0,c
  2968  000A88  302D               	rrcf	___fladd@grs^0,w,c
  2969  000A8A  0901               	iorlw	1
  2970  000A8C  6E2D               	movwf	___fladd@grs^0,c
  2971  000A8E  EF4B  F005         	goto	l2305
  2972  000A92                     l2303:
  2973  000A92  90D8               	bcf	status,0,c
  2974  000A94  322D               	rrcf	___fladd@grs^0,f,c
  2975  000A96                     l2305:
  2976  000A96  A01E               	btfss	___fladd@b^0,0,c
  2977  000A98  EF50  F005         	goto	u1771
  2978  000A9C  EF52  F005         	goto	u1770
  2979  000AA0                     u1771:
  2980  000AA0  EF53  F005         	goto	l2309
  2981  000AA4                     u1770:
  2982  000AA4  8E2D               	bsf	___fladd@grs^0,7,c
  2983  000AA6                     l2309:
  2984  000AA6  3421               	rlcf	(___fladd@b+3)^0,w,c
  2985  000AA8  3221               	rrcf	(___fladd@b+3)^0,f,c
  2986  000AAA  3220               	rrcf	(___fladd@b+2)^0,f,c
  2987  000AAC  321F               	rrcf	(___fladd@b+1)^0,f,c
  2988  000AAE  321E               	rrcf	___fladd@b^0,f,c
  2989  000AB0  2A2C               	incf	___fladd@bexp^0,f,c
  2990  000AB2  EFE8  F005         	goto	l2349
  2991  000AB6                     l2313:
  2992  000AB6  5022               	movf	___fladd@a^0,w,c
  2993  000AB8  5C1E               	subwf	___fladd@b^0,w,c
  2994  000ABA  5023               	movf	(___fladd@a+1)^0,w,c
  2995  000ABC  581F               	subwfb	(___fladd@b+1)^0,w,c
  2996  000ABE  5024               	movf	(___fladd@a+2)^0,w,c
  2997  000AC0  5820               	subwfb	(___fladd@b+2)^0,w,c
  2998  000AC2  5021               	movf	(___fladd@b+3)^0,w,c
  2999  000AC4  0A80               	xorlw	128
  3000  000AC6  6E26               	movwf	??___fladd^0,c
  3001  000AC8  5025               	movf	(___fladd@a+3)^0,w,c
  3002  000ACA  0A80               	xorlw	128
  3003  000ACC  5826               	subwfb	??___fladd^0,w,c
  3004  000ACE  B0D8               	btfsc	status,0,c
  3005  000AD0  EF6C  F005         	goto	u1781
  3006  000AD4  EF6E  F005         	goto	u1780
  3007  000AD8                     u1781:
  3008  000AD8  EF99  F005         	goto	l2323
  3009  000ADC                     u1780:
  3010  000ADC  501E               	movf	___fladd@b^0,w,c
  3011  000ADE  5C22               	subwf	___fladd@a^0,w,c
  3012  000AE0  6E26               	movwf	??___fladd^0,c
  3013  000AE2  501F               	movf	(___fladd@b+1)^0,w,c
  3014  000AE4  5823               	subwfb	(___fladd@a+1)^0,w,c
  3015  000AE6  6E27               	movwf	(??___fladd+1)^0,c
  3016  000AE8  5020               	movf	(___fladd@b+2)^0,w,c
  3017  000AEA  5824               	subwfb	(___fladd@a+2)^0,w,c
  3018  000AEC  6E28               	movwf	(??___fladd+2)^0,c
  3019  000AEE  5021               	movf	(___fladd@b+3)^0,w,c
  3020  000AF0  5825               	subwfb	(___fladd@a+3)^0,w,c
  3021  000AF2  6E29               	movwf	(??___fladd+3)^0,c
  3022  000AF4  0EFF               	movlw	255
  3023  000AF6  2426               	addwf	??___fladd^0,w,c
  3024  000AF8  6E1E               	movwf	___fladd@b^0,c
  3025  000AFA  0EFF               	movlw	255
  3026  000AFC  2027               	addwfc	(??___fladd+1)^0,w,c
  3027  000AFE  6E1F               	movwf	(___fladd@b+1)^0,c
  3028  000B00  0EFF               	movlw	255
  3029  000B02  2028               	addwfc	(??___fladd+2)^0,w,c
  3030  000B04  6E20               	movwf	(___fladd@b+2)^0,c
  3031  000B06  0EFF               	movlw	255
  3032  000B08  2029               	addwfc	(??___fladd+3)^0,w,c
  3033  000B0A  6E21               	movwf	(___fladd@b+3)^0,c
  3034  000B0C  0E80               	movlw	128
  3035  000B0E  1A2A               	xorwf	___fladd@signs^0,f,c
  3036  000B10  6C2D               	negf	___fladd@grs^0,c
  3037  000B12  502D               	movf	___fladd@grs^0,w,c
  3038  000B14  A4D8               	btfss	status,2,c
  3039  000B16  EF8F  F005         	goto	u1791
  3040  000B1A  EF91  F005         	goto	u1790
  3041  000B1E                     u1791:
  3042  000B1E  EFA1  F005         	goto	l773
  3043  000B22                     u1790:
  3044  000B22  0E01               	movlw	1
  3045  000B24  261E               	addwf	___fladd@b^0,f,c
  3046  000B26  0E00               	movlw	0
  3047  000B28  221F               	addwfc	(___fladd@b+1)^0,f,c
  3048  000B2A  2220               	addwfc	(___fladd@b+2)^0,f,c
  3049  000B2C  2221               	addwfc	(___fladd@b+3)^0,f,c
  3050  000B2E  EFA1  F005         	goto	l773
  3051  000B32                     l2323:
  3052  000B32  5022               	movf	___fladd@a^0,w,c
  3053  000B34  5E1E               	subwf	___fladd@b^0,f,c
  3054  000B36  5023               	movf	(___fladd@a+1)^0,w,c
  3055  000B38  5A1F               	subwfb	(___fladd@b+1)^0,f,c
  3056  000B3A  5024               	movf	(___fladd@a+2)^0,w,c
  3057  000B3C  5A20               	subwfb	(___fladd@b+2)^0,f,c
  3058  000B3E  5025               	movf	(___fladd@a+3)^0,w,c
  3059  000B40  5A21               	subwfb	(___fladd@b+3)^0,f,c
  3060  000B42                     l773:
  3061  000B42  501E               	movf	___fladd@b^0,w,c
  3062  000B44  101F               	iorwf	(___fladd@b+1)^0,w,c
  3063  000B46  1020               	iorwf	(___fladd@b+2)^0,w,c
  3064  000B48  1021               	iorwf	(___fladd@b+3)^0,w,c
  3065  000B4A  A4D8               	btfss	status,2,c
  3066  000B4C  EFAA  F005         	goto	u1801
  3067  000B50  EFAC  F005         	goto	u1800
  3068  000B54                     u1801:
  3069  000B54  EFE1  F005         	goto	l2347
  3070  000B58                     u1800:
  3071  000B58  502D               	movf	___fladd@grs^0,w,c
  3072  000B5A  A4D8               	btfss	status,2,c
  3073  000B5C  EFB2  F005         	goto	u1811
  3074  000B60  EFB4  F005         	goto	u1810
  3075  000B64                     u1811:
  3076  000B64  EFE1  F005         	goto	l2347
  3077  000B68                     u1810:
  3078  000B68  0E00               	movlw	0
  3079  000B6A  6E1E               	movwf	?___fladd^0,c
  3080  000B6C  0E00               	movlw	0
  3081  000B6E  6E1F               	movwf	(?___fladd+1)^0,c
  3082  000B70  0E00               	movlw	0
  3083  000B72  6E20               	movwf	(?___fladd+2)^0,c
  3084  000B74  0E00               	movlw	0
  3085  000B76  6E21               	movwf	(?___fladd+3)^0,c
  3086  000B78  EF7C  F006         	goto	l765
  3087  000B7C                     l2331:
  3088  000B7C  90D8               	bcf	status,0,c
  3089  000B7E  361E               	rlcf	___fladd@b^0,f,c
  3090  000B80  361F               	rlcf	(___fladd@b+1)^0,f,c
  3091  000B82  3620               	rlcf	(___fladd@b+2)^0,f,c
  3092  000B84  3621               	rlcf	(___fladd@b+3)^0,f,c
  3093  000B86  AE2D               	btfss	___fladd@grs^0,7,c
  3094  000B88  EFC8  F005         	goto	u1821
  3095  000B8C  EFCA  F005         	goto	u1820
  3096  000B90                     u1821:
  3097  000B90  EFCB  F005         	goto	l2337
  3098  000B94                     u1820:
  3099  000B94  801E               	bsf	___fladd@b^0,0,c
  3100  000B96                     l2337:
  3101  000B96  A02D               	btfss	___fladd@grs^0,0,c
  3102  000B98  EFD0  F005         	goto	u1831
  3103  000B9C  EFD2  F005         	goto	u1830
  3104  000BA0                     u1831:
  3105  000BA0  EFD6  F005         	goto	l2341
  3106  000BA4                     u1830:
  3107  000BA4  80D8               	bsf	status,0,c
  3108  000BA6  362D               	rlcf	___fladd@grs^0,f,c
  3109  000BA8  EFD8  F005         	goto	l2343
  3110  000BAC                     l2341:
  3111  000BAC  90D8               	bcf	status,0,c
  3112  000BAE  362D               	rlcf	___fladd@grs^0,f,c
  3113  000BB0                     l2343:
  3114  000BB0  502C               	movf	___fladd@bexp^0,w,c
  3115  000BB2  B4D8               	btfsc	status,2,c
  3116  000BB4  EFDE  F005         	goto	u1841
  3117  000BB8  EFE0  F005         	goto	u1840
  3118  000BBC                     u1841:
  3119  000BBC  EFE1  F005         	goto	l2347
  3120  000BC0                     u1840:
  3121  000BC0  062C               	decf	___fladd@bexp^0,f,c
  3122  000BC2                     l2347:
  3123  000BC2  AE20               	btfss	(___fladd@b+2)^0,7,c
  3124  000BC4  EFE6  F005         	goto	u1851
  3125  000BC8  EFE8  F005         	goto	u1850
  3126  000BCC                     u1851:
  3127  000BCC  EFBE  F005         	goto	l2331
  3128  000BD0                     u1850:
  3129  000BD0                     l2349:
  3130  000BD0  0E00               	movlw	0
  3131  000BD2  6E2B               	movwf	___fladd@aexp^0,c
  3132  000BD4  AE2D               	btfss	___fladd@grs^0,7,c
  3133  000BD6  EFEF  F005         	goto	u1861
  3134  000BDA  EFF1  F005         	goto	u1860
  3135  000BDE                     u1861:
  3136  000BDE  EF09  F006         	goto	l782
  3137  000BE2                     u1860:
  3138  000BE2  C02D  F026         	movff	___fladd@grs,??___fladd
  3139  000BE6  0E7F               	movlw	127
  3140  000BE8  1626               	andwf	??___fladd^0,f,c
  3141  000BEA  B4D8               	btfsc	status,2,c
  3142  000BEC  EFFA  F005         	goto	u1871
  3143  000BF0  EFFC  F005         	goto	u1870
  3144  000BF4                     u1871:
  3145  000BF4  EF00  F006         	goto	l783
  3146  000BF8                     u1870:
  3147  000BF8                     l2355:
  3148  000BF8  0E01               	movlw	1
  3149  000BFA  6E2B               	movwf	___fladd@aexp^0,c
  3150  000BFC  EF09  F006         	goto	l782
  3151  000C00                     l783:
  3152  000C00  A01E               	btfss	___fladd@b^0,0,c
  3153  000C02  EF05  F006         	goto	u1881
  3154  000C06  EF07  F006         	goto	u1880
  3155  000C0A                     u1881:
  3156  000C0A  EF09  F006         	goto	l782
  3157  000C0E                     u1880:
  3158  000C0E  EFFC  F005         	goto	l2355
  3159  000C12                     l782:
  3160  000C12  502B               	movf	___fladd@aexp^0,w,c
  3161  000C14  B4D8               	btfsc	status,2,c
  3162  000C16  EF0F  F006         	goto	u1891
  3163  000C1A  EF11  F006         	goto	u1890
  3164  000C1E                     u1891:
  3165  000C1E  EF3C  F006         	goto	l2367
  3166  000C22                     u1890:
  3167  000C22  0E01               	movlw	1
  3168  000C24  261E               	addwf	___fladd@b^0,f,c
  3169  000C26  0E00               	movlw	0
  3170  000C28  221F               	addwfc	(___fladd@b+1)^0,f,c
  3171  000C2A  2220               	addwfc	(___fladd@b+2)^0,f,c
  3172  000C2C  2221               	addwfc	(___fladd@b+3)^0,f,c
  3173  000C2E  A021               	btfss	(___fladd@b+3)^0,0,c
  3174  000C30  EF1C  F006         	goto	u1901
  3175  000C34  EF1E  F006         	goto	u1900
  3176  000C38                     u1901:
  3177  000C38  EF3C  F006         	goto	l2367
  3178  000C3C                     u1900:
  3179  000C3C  C01E  F026         	movff	___fladd@b,??___fladd
  3180  000C40  C01F  F027         	movff	___fladd@b+1,??___fladd+1
  3181  000C44  C020  F028         	movff	___fladd@b+2,??___fladd+2
  3182  000C48  C021  F029         	movff	___fladd@b+3,??___fladd+3
  3183  000C4C  3429               	rlcf	(??___fladd+3)^0,w,c
  3184  000C4E  3229               	rrcf	(??___fladd+3)^0,f,c
  3185  000C50  3228               	rrcf	(??___fladd+2)^0,f,c
  3186  000C52  3227               	rrcf	(??___fladd+1)^0,f,c
  3187  000C54  3226               	rrcf	??___fladd^0,f,c
  3188  000C56  C026  F01E         	movff	??___fladd,___fladd@b
  3189  000C5A  C027  F01F         	movff	??___fladd+1,___fladd@b+1
  3190  000C5E  C028  F020         	movff	??___fladd+2,___fladd@b+2
  3191  000C62  C029  F021         	movff	??___fladd+3,___fladd@b+3
  3192  000C66  282C               	incf	___fladd@bexp^0,w,c
  3193  000C68  B4D8               	btfsc	status,2,c
  3194  000C6A  EF39  F006         	goto	u1911
  3195  000C6E  EF3B  F006         	goto	u1910
  3196  000C72                     u1911:
  3197  000C72  EF3C  F006         	goto	l2367
  3198  000C76                     u1910:
  3199  000C76  2A2C               	incf	___fladd@bexp^0,f,c
  3200  000C78                     l2367:
  3201  000C78  282C               	incf	___fladd@bexp^0,w,c
  3202  000C7A  B4D8               	btfsc	status,2,c
  3203  000C7C  EF42  F006         	goto	u1921
  3204  000C80  EF44  F006         	goto	u1920
  3205  000C84                     u1921:
  3206  000C84  EF4C  F006         	goto	l2371
  3207  000C88                     u1920:
  3208  000C88  502C               	movf	___fladd@bexp^0,w,c
  3209  000C8A  A4D8               	btfss	status,2,c
  3210  000C8C  EF4A  F006         	goto	u1931
  3211  000C90  EF4C  F006         	goto	u1930
  3212  000C94                     u1931:
  3213  000C94  EF5E  F006         	goto	l2375
  3214  000C98                     u1930:
  3215  000C98                     l2371:
  3216  000C98  0E00               	movlw	0
  3217  000C9A  6E1E               	movwf	___fladd@b^0,c
  3218  000C9C  0E00               	movlw	0
  3219  000C9E  6E1F               	movwf	(___fladd@b+1)^0,c
  3220  000CA0  0E00               	movlw	0
  3221  000CA2  6E20               	movwf	(___fladd@b+2)^0,c
  3222  000CA4  0E00               	movlw	0
  3223  000CA6  6E21               	movwf	(___fladd@b+3)^0,c
  3224  000CA8  502C               	movf	___fladd@bexp^0,w,c
  3225  000CAA  A4D8               	btfss	status,2,c
  3226  000CAC  EF5A  F006         	goto	u1941
  3227  000CB0  EF5C  F006         	goto	u1940
  3228  000CB4                     u1941:
  3229  000CB4  EF5E  F006         	goto	l2375
  3230  000CB8                     u1940:
  3231  000CB8  0E00               	movlw	0
  3232  000CBA  6E2A               	movwf	___fladd@signs^0,c
  3233  000CBC                     l2375:
  3234  000CBC  A02C               	btfss	___fladd@bexp^0,0,c
  3235  000CBE  EF63  F006         	goto	u1951
  3236  000CC2  EF65  F006         	goto	u1950
  3237  000CC6                     u1951:
  3238  000CC6  EF68  F006         	goto	l2379
  3239  000CCA                     u1950:
  3240  000CCA  8E20               	bsf	(___fladd@b+2)^0,7,c
  3241  000CCC  EF69  F006         	goto	l2381
  3242  000CD0                     l2379:
  3243  000CD0  9E20               	bcf	(___fladd@b+2)^0,7,c
  3244  000CD2                     l2381:
  3245  000CD2  90D8               	bcf	status,0,c
  3246  000CD4  302C               	rrcf	___fladd@bexp^0,w,c
  3247  000CD6  6E21               	movwf	(___fladd@b+3)^0,c
  3248  000CD8  AE2A               	btfss	___fladd@signs^0,7,c
  3249  000CDA  EF71  F006         	goto	u1961
  3250  000CDE  EF73  F006         	goto	u1960
  3251  000CE2                     u1961:
  3252  000CE2  EF74  F006         	goto	l2387
  3253  000CE6                     u1960:
  3254  000CE6  8E21               	bsf	(___fladd@b+3)^0,7,c
  3255  000CE8                     l2387:
  3256  000CE8  C01E  F01E         	movff	___fladd@b,?___fladd
  3257  000CEC  C01F  F01F         	movff	___fladd@b+1,?___fladd+1
  3258  000CF0  C020  F020         	movff	___fladd@b+2,?___fladd+2
  3259  000CF4  C021  F021         	movff	___fladd@b+3,?___fladd+3
  3260  000CF8                     l765:
  3261  000CF8  0012               	return		;funcret
  3262  000CFA                     __end_of___fladd:
  3263                           	callstack 0
  3264                           
  3265 ;; *************** function ___flmul *****************
  3266 ;; Defined at:
  3267 ;;		line 8 in file "C:\Program Files\Microchip\xc8\v2.32\pic\sources\c99\common\sprcmul.c"
  3268 ;; Parameters:    Size  Location     Type
  3269 ;;  b               4   13[BANK0 ] unsigned char 
  3270 ;;  a               4   17[BANK0 ] unsigned char 
  3271 ;; Auto vars:     Size  Location     Type
  3272 ;;  prod            4   32[BANK0 ] struct .
  3273 ;;  grs             4   27[BANK0 ] unsigned long 
  3274 ;;  temp            2   36[BANK0 ] struct .
  3275 ;;  bexp            1   31[BANK0 ] unsigned char 
  3276 ;;  aexp            1   26[BANK0 ] unsigned char 
  3277 ;;  sign            1   25[BANK0 ] unsigned char 
  3278 ;; Return value:  Size  Location     Type
  3279 ;;                  4   13[BANK0 ] unsigned char 
  3280 ;; Registers used:
  3281 ;;		wreg, status,2, status,0, prodl, prodh
  3282 ;; Tracked objects:
  3283 ;;		On entry : 0/0
  3284 ;;		On exit  : 0/0
  3285 ;;		Unchanged: 0/0
  3286 ;; Data sizes:     COMRAM   BANK0   BANK1   BANK2   BANK3   BANK4   BANK5   BANK6   BANK7
  3287 ;;      Params:         0       8       0       0       0       0       0       0       0
  3288 ;;      Locals:         0      13       0       0       0       0       0       0       0
  3289 ;;      Temps:          0       4       0       0       0       0       0       0       0
  3290 ;;      Totals:         0      25       0       0       0       0       0       0       0
  3291 ;;Total ram usage:       25 bytes
  3292 ;; Hardware stack levels used: 1
  3293 ;; Hardware stack levels required when called: 2
  3294 ;; This function calls:
  3295 ;;		Nothing
  3296 ;; This function is called by:
  3297 ;;		_readAnalog
  3298 ;;		_displayStuff
  3299 ;; This function uses a non-reentrant model
  3300 ;;
  3301                           
  3302                           	psect	text11
  3303  000CFA                     __ptext11:
  3304                           	callstack 0
  3305  000CFA                     ___flmul:
  3306                           	callstack 27
  3307  000CFA  0100               	movlb	0	; () banked
  3308  000CFC  5170               	movf	(___flmul@b+3)& (0+255),w,b
  3309  000CFE  0B80               	andlw	128
  3310  000D00  6F79               	movwf	___flmul@sign& (0+255),b
  3311  000D02  5170               	movf	(___flmul@b+3)& (0+255),w,b
  3312  000D04  2570               	addwf	(___flmul@b+3)& (0+255),w,b
  3313  000D06  6F7F               	movwf	___flmul@bexp& (0+255),b
  3314  000D08                     
  3315                           ; BSR set to: 0
  3316  000D08  AF6F               	btfss	(___flmul@b+2)& (0+255),7,b
  3317  000D0A  EF89  F006         	goto	u3131
  3318  000D0E  EF8B  F006         	goto	u3130
  3319  000D12                     u3131:
  3320  000D12  EF8C  F006         	goto	l3255
  3321  000D16                     u3130:
  3322  000D16                     
  3323                           ; BSR set to: 0
  3324  000D16  817F               	bsf	___flmul@bexp& (0+255),0,b
  3325  000D18                     l3255:
  3326                           
  3327                           ; BSR set to: 0
  3328  000D18  517F               	movf	___flmul@bexp& (0+255),w,b
  3329  000D1A  B4D8               	btfsc	status,2,c
  3330  000D1C  EF92  F006         	goto	u3141
  3331  000D20  EF94  F006         	goto	u3140
  3332  000D24                     u3141:
  3333  000D24  EFA7  F006         	goto	l3263
  3334  000D28                     u3140:
  3335  000D28                     
  3336                           ; BSR set to: 0
  3337  000D28  297F               	incf	___flmul@bexp& (0+255),w,b
  3338  000D2A  A4D8               	btfss	status,2,c
  3339  000D2C  EF9A  F006         	goto	u3151
  3340  000D30  EF9C  F006         	goto	u3150
  3341  000D34                     u3151:
  3342  000D34  EFA4  F006         	goto	l3261
  3343  000D38                     u3150:
  3344  000D38                     
  3345                           ; BSR set to: 0
  3346  000D38  0E00               	movlw	0
  3347  000D3A  6F6D               	movwf	___flmul@b& (0+255),b
  3348  000D3C  0E00               	movlw	0
  3349  000D3E  6F6E               	movwf	(___flmul@b+1)& (0+255),b
  3350  000D40  0E00               	movlw	0
  3351  000D42  6F6F               	movwf	(___flmul@b+2)& (0+255),b
  3352  000D44  0E00               	movlw	0
  3353  000D46  6F70               	movwf	(___flmul@b+3)& (0+255),b
  3354  000D48                     l3261:
  3355                           
  3356                           ; BSR set to: 0
  3357  000D48  8F6F               	bsf	(___flmul@b+2)& (0+255),7,b
  3358  000D4A  EFAF  F006         	goto	l3265
  3359  000D4E                     l3263:
  3360                           
  3361                           ; BSR set to: 0
  3362  000D4E  0E00               	movlw	0
  3363  000D50  6F6D               	movwf	___flmul@b& (0+255),b
  3364  000D52  0E00               	movlw	0
  3365  000D54  6F6E               	movwf	(___flmul@b+1)& (0+255),b
  3366  000D56  0E00               	movlw	0
  3367  000D58  6F6F               	movwf	(___flmul@b+2)& (0+255),b
  3368  000D5A  0E00               	movlw	0
  3369  000D5C  6F70               	movwf	(___flmul@b+3)& (0+255),b
  3370  000D5E                     l3265:
  3371                           
  3372                           ; BSR set to: 0
  3373  000D5E  5174               	movf	(___flmul@a+3)& (0+255),w,b
  3374  000D60  0B80               	andlw	128
  3375  000D62  1B79               	xorwf	___flmul@sign& (0+255),f,b
  3376  000D64                     
  3377                           ; BSR set to: 0
  3378  000D64  5174               	movf	(___flmul@a+3)& (0+255),w,b
  3379  000D66  2574               	addwf	(___flmul@a+3)& (0+255),w,b
  3380  000D68  6F7A               	movwf	___flmul@aexp& (0+255),b
  3381  000D6A                     
  3382                           ; BSR set to: 0
  3383  000D6A  AF73               	btfss	(___flmul@a+2)& (0+255),7,b
  3384  000D6C  EFBA  F006         	goto	u3161
  3385  000D70  EFBC  F006         	goto	u3160
  3386  000D74                     u3161:
  3387  000D74  EFBD  F006         	goto	l3273
  3388  000D78                     u3160:
  3389  000D78                     
  3390                           ; BSR set to: 0
  3391  000D78  817A               	bsf	___flmul@aexp& (0+255),0,b
  3392  000D7A                     l3273:
  3393                           
  3394                           ; BSR set to: 0
  3395  000D7A  517A               	movf	___flmul@aexp& (0+255),w,b
  3396  000D7C  B4D8               	btfsc	status,2,c
  3397  000D7E  EFC3  F006         	goto	u3171
  3398  000D82  EFC5  F006         	goto	u3170
  3399  000D86                     u3171:
  3400  000D86  EFD8  F006         	goto	l3281
  3401  000D8A                     u3170:
  3402  000D8A                     
  3403                           ; BSR set to: 0
  3404  000D8A  297A               	incf	___flmul@aexp& (0+255),w,b
  3405  000D8C  A4D8               	btfss	status,2,c
  3406  000D8E  EFCB  F006         	goto	u3181
  3407  000D92  EFCD  F006         	goto	u3180
  3408  000D96                     u3181:
  3409  000D96  EFD5  F006         	goto	l3279
  3410  000D9A                     u3180:
  3411  000D9A                     
  3412                           ; BSR set to: 0
  3413  000D9A  0E00               	movlw	0
  3414  000D9C  6F71               	movwf	___flmul@a& (0+255),b
  3415  000D9E  0E00               	movlw	0
  3416  000DA0  6F72               	movwf	(___flmul@a+1)& (0+255),b
  3417  000DA2  0E00               	movlw	0
  3418  000DA4  6F73               	movwf	(___flmul@a+2)& (0+255),b
  3419  000DA6  0E00               	movlw	0
  3420  000DA8  6F74               	movwf	(___flmul@a+3)& (0+255),b
  3421  000DAA                     l3279:
  3422                           
  3423                           ; BSR set to: 0
  3424  000DAA  8F73               	bsf	(___flmul@a+2)& (0+255),7,b
  3425  000DAC  EFE0  F006         	goto	l842
  3426  000DB0                     l3281:
  3427                           
  3428                           ; BSR set to: 0
  3429  000DB0  0E00               	movlw	0
  3430  000DB2  6F71               	movwf	___flmul@a& (0+255),b
  3431  000DB4  0E00               	movlw	0
  3432  000DB6  6F72               	movwf	(___flmul@a+1)& (0+255),b
  3433  000DB8  0E00               	movlw	0
  3434  000DBA  6F73               	movwf	(___flmul@a+2)& (0+255),b
  3435  000DBC  0E00               	movlw	0
  3436  000DBE  6F74               	movwf	(___flmul@a+3)& (0+255),b
  3437  000DC0                     l842:
  3438                           
  3439                           ; BSR set to: 0
  3440  000DC0  517A               	movf	___flmul@aexp& (0+255),w,b
  3441  000DC2  B4D8               	btfsc	status,2,c
  3442  000DC4  EFE6  F006         	goto	u3191
  3443  000DC8  EFE8  F006         	goto	u3190
  3444  000DCC                     u3191:
  3445  000DCC  EFF0  F006         	goto	l3285
  3446  000DD0                     u3190:
  3447  000DD0                     
  3448                           ; BSR set to: 0
  3449  000DD0  517F               	movf	___flmul@bexp& (0+255),w,b
  3450  000DD2  A4D8               	btfss	status,2,c
  3451  000DD4  EFEE  F006         	goto	u3201
  3452  000DD8  EFF0  F006         	goto	u3200
  3453  000DDC                     u3201:
  3454  000DDC  EFFA  F006         	goto	l3289
  3455  000DE0                     u3200:
  3456  000DE0                     l3285:
  3457                           
  3458                           ; BSR set to: 0
  3459  000DE0  0E00               	movlw	0
  3460  000DE2  6F6D               	movwf	?___flmul& (0+255),b
  3461  000DE4  0E00               	movlw	0
  3462  000DE6  6F6E               	movwf	(?___flmul+1)& (0+255),b
  3463  000DE8  0E00               	movlw	0
  3464  000DEA  6F6F               	movwf	(?___flmul+2)& (0+255),b
  3465  000DEC  0E00               	movlw	0
  3466  000DEE  6F70               	movwf	(?___flmul+3)& (0+255),b
  3467  000DF0  EF92  F008         	goto	l846
  3468  000DF4                     l3289:
  3469                           
  3470                           ; BSR set to: 0
  3471  000DF4  5173               	movf	(___flmul@a+2)& (0+255),w,b
  3472  000DF6  036D               	mulwf	___flmul@b& (0+255),b
  3473  000DF8  CFF3 F084          	movff	prodl,___flmul@temp
  3474  000DFC  CFF4 F085          	movff	prodh,___flmul@temp+1
  3475  000E00                     
  3476                           ; BSR set to: 0
  3477  000E00  5184               	movf	___flmul@temp& (0+255),w,b
  3478  000E02  6F7B               	movwf	___flmul@grs& (0+255),b
  3479  000E04  6B7C               	clrf	(___flmul@grs+1)& (0+255),b
  3480  000E06  6B7D               	clrf	(___flmul@grs+2)& (0+255),b
  3481  000E08  6B7E               	clrf	(___flmul@grs+3)& (0+255),b
  3482  000E0A                     
  3483                           ; BSR set to: 0
  3484  000E0A  5185               	movf	(___flmul@temp+1)& (0+255),w,b
  3485  000E0C  6F80               	movwf	___flmul@prod& (0+255),b
  3486  000E0E  6B81               	clrf	(___flmul@prod+1)& (0+255),b
  3487  000E10  6B82               	clrf	(___flmul@prod+2)& (0+255),b
  3488  000E12  6B83               	clrf	(___flmul@prod+3)& (0+255),b
  3489  000E14  5172               	movf	(___flmul@a+1)& (0+255),w,b
  3490  000E16  036E               	mulwf	(___flmul@b+1)& (0+255),b
  3491  000E18  CFF3 F084          	movff	prodl,___flmul@temp
  3492  000E1C  CFF4 F085          	movff	prodh,___flmul@temp+1
  3493  000E20                     
  3494                           ; BSR set to: 0
  3495  000E20  5184               	movf	___flmul@temp& (0+255),w,b
  3496  000E22  277B               	addwf	___flmul@grs& (0+255),f,b
  3497  000E24  0E00               	movlw	0
  3498  000E26  237C               	addwfc	(___flmul@grs+1)& (0+255),f,b
  3499  000E28  237D               	addwfc	(___flmul@grs+2)& (0+255),f,b
  3500  000E2A  237E               	addwfc	(___flmul@grs+3)& (0+255),f,b
  3501  000E2C                     
  3502                           ; BSR set to: 0
  3503  000E2C  5185               	movf	(___flmul@temp+1)& (0+255),w,b
  3504  000E2E  2780               	addwf	___flmul@prod& (0+255),f,b
  3505  000E30  0E00               	movlw	0
  3506  000E32  2381               	addwfc	(___flmul@prod+1)& (0+255),f,b
  3507  000E34  2382               	addwfc	(___flmul@prod+2)& (0+255),f,b
  3508  000E36  2383               	addwfc	(___flmul@prod+3)& (0+255),f,b
  3509  000E38  5171               	movf	___flmul@a& (0+255),w,b
  3510  000E3A  036F               	mulwf	(___flmul@b+2)& (0+255),b
  3511  000E3C  CFF3 F084          	movff	prodl,___flmul@temp
  3512  000E40  CFF4 F085          	movff	prodh,___flmul@temp+1
  3513  000E44                     
  3514                           ; BSR set to: 0
  3515  000E44  5184               	movf	___flmul@temp& (0+255),w,b
  3516  000E46  277B               	addwf	___flmul@grs& (0+255),f,b
  3517  000E48  0E00               	movlw	0
  3518  000E4A  237C               	addwfc	(___flmul@grs+1)& (0+255),f,b
  3519  000E4C  237D               	addwfc	(___flmul@grs+2)& (0+255),f,b
  3520  000E4E  237E               	addwfc	(___flmul@grs+3)& (0+255),f,b
  3521  000E50                     
  3522                           ; BSR set to: 0
  3523  000E50  5185               	movf	(___flmul@temp+1)& (0+255),w,b
  3524  000E52  2780               	addwf	___flmul@prod& (0+255),f,b
  3525  000E54  0E00               	movlw	0
  3526  000E56  2381               	addwfc	(___flmul@prod+1)& (0+255),f,b
  3527  000E58  2382               	addwfc	(___flmul@prod+2)& (0+255),f,b
  3528  000E5A  2383               	addwfc	(___flmul@prod+3)& (0+255),f,b
  3529  000E5C                     
  3530                           ; BSR set to: 0
  3531  000E5C  C07D  F07E         	movff	___flmul@grs+2,___flmul@grs+3
  3532  000E60  C07C  F07D         	movff	___flmul@grs+1,___flmul@grs+2
  3533  000E64  C07B  F07C         	movff	___flmul@grs,___flmul@grs+1
  3534  000E68  6B7B               	clrf	___flmul@grs& (0+255),b
  3535  000E6A                     
  3536                           ; BSR set to: 0
  3537  000E6A  5171               	movf	___flmul@a& (0+255),w,b
  3538  000E6C  036E               	mulwf	(___flmul@b+1)& (0+255),b
  3539  000E6E  CFF3 F084          	movff	prodl,___flmul@temp
  3540  000E72  CFF4 F085          	movff	prodh,___flmul@temp+1
  3541  000E76                     
  3542                           ; BSR set to: 0
  3543  000E76  5184               	movf	___flmul@temp& (0+255),w,b
  3544  000E78  277B               	addwf	___flmul@grs& (0+255),f,b
  3545  000E7A  5185               	movf	(___flmul@temp+1)& (0+255),w,b
  3546  000E7C  237C               	addwfc	(___flmul@grs+1)& (0+255),f,b
  3547  000E7E  0E00               	movlw	0
  3548  000E80  237D               	addwfc	(___flmul@grs+2)& (0+255),f,b
  3549  000E82  0E00               	movlw	0
  3550  000E84  237E               	addwfc	(___flmul@grs+3)& (0+255),f,b
  3551  000E86                     
  3552                           ; BSR set to: 0
  3553  000E86  5172               	movf	(___flmul@a+1)& (0+255),w,b
  3554  000E88  036D               	mulwf	___flmul@b& (0+255),b
  3555  000E8A  CFF3 F084          	movff	prodl,___flmul@temp
  3556  000E8E  CFF4 F085          	movff	prodh,___flmul@temp+1
  3557  000E92                     
  3558                           ; BSR set to: 0
  3559  000E92  5184               	movf	___flmul@temp& (0+255),w,b
  3560  000E94  277B               	addwf	___flmul@grs& (0+255),f,b
  3561  000E96  5185               	movf	(___flmul@temp+1)& (0+255),w,b
  3562  000E98  237C               	addwfc	(___flmul@grs+1)& (0+255),f,b
  3563  000E9A  0E00               	movlw	0
  3564  000E9C  237D               	addwfc	(___flmul@grs+2)& (0+255),f,b
  3565  000E9E  0E00               	movlw	0
  3566  000EA0  237E               	addwfc	(___flmul@grs+3)& (0+255),f,b
  3567  000EA2                     
  3568                           ; BSR set to: 0
  3569  000EA2  C07D  F07E         	movff	___flmul@grs+2,___flmul@grs+3
  3570  000EA6  C07C  F07D         	movff	___flmul@grs+1,___flmul@grs+2
  3571  000EAA  C07B  F07C         	movff	___flmul@grs,___flmul@grs+1
  3572  000EAE  6B7B               	clrf	___flmul@grs& (0+255),b
  3573  000EB0  5171               	movf	___flmul@a& (0+255),w,b
  3574  000EB2  036D               	mulwf	___flmul@b& (0+255),b
  3575  000EB4  CFF3 F084          	movff	prodl,___flmul@temp
  3576  000EB8  CFF4 F085          	movff	prodh,___flmul@temp+1
  3577  000EBC                     
  3578                           ; BSR set to: 0
  3579  000EBC  5184               	movf	___flmul@temp& (0+255),w,b
  3580  000EBE  277B               	addwf	___flmul@grs& (0+255),f,b
  3581  000EC0  5185               	movf	(___flmul@temp+1)& (0+255),w,b
  3582  000EC2  237C               	addwfc	(___flmul@grs+1)& (0+255),f,b
  3583  000EC4  0E00               	movlw	0
  3584  000EC6  237D               	addwfc	(___flmul@grs+2)& (0+255),f,b
  3585  000EC8  0E00               	movlw	0
  3586  000ECA  237E               	addwfc	(___flmul@grs+3)& (0+255),f,b
  3587  000ECC                     
  3588                           ; BSR set to: 0
  3589  000ECC  5173               	movf	(___flmul@a+2)& (0+255),w,b
  3590  000ECE  036E               	mulwf	(___flmul@b+1)& (0+255),b
  3591  000ED0  CFF3 F084          	movff	prodl,___flmul@temp
  3592  000ED4  CFF4 F085          	movff	prodh,___flmul@temp+1
  3593  000ED8  5184               	movf	___flmul@temp& (0+255),w,b
  3594  000EDA  2780               	addwf	___flmul@prod& (0+255),f,b
  3595  000EDC  5185               	movf	(___flmul@temp+1)& (0+255),w,b
  3596  000EDE  2381               	addwfc	(___flmul@prod+1)& (0+255),f,b
  3597  000EE0  0E00               	movlw	0
  3598  000EE2  2382               	addwfc	(___flmul@prod+2)& (0+255),f,b
  3599  000EE4  0E00               	movlw	0
  3600  000EE6  2383               	addwfc	(___flmul@prod+3)& (0+255),f,b
  3601  000EE8                     
  3602                           ; BSR set to: 0
  3603  000EE8  5172               	movf	(___flmul@a+1)& (0+255),w,b
  3604  000EEA  036F               	mulwf	(___flmul@b+2)& (0+255),b
  3605  000EEC  CFF3 F084          	movff	prodl,___flmul@temp
  3606  000EF0  CFF4 F085          	movff	prodh,___flmul@temp+1
  3607  000EF4                     
  3608                           ; BSR set to: 0
  3609  000EF4  5184               	movf	___flmul@temp& (0+255),w,b
  3610  000EF6  2780               	addwf	___flmul@prod& (0+255),f,b
  3611  000EF8  5185               	movf	(___flmul@temp+1)& (0+255),w,b
  3612  000EFA  2381               	addwfc	(___flmul@prod+1)& (0+255),f,b
  3613  000EFC  0E00               	movlw	0
  3614  000EFE  2382               	addwfc	(___flmul@prod+2)& (0+255),f,b
  3615  000F00  0E00               	movlw	0
  3616  000F02  2383               	addwfc	(___flmul@prod+3)& (0+255),f,b
  3617  000F04  5173               	movf	(___flmul@a+2)& (0+255),w,b
  3618  000F06  036F               	mulwf	(___flmul@b+2)& (0+255),b
  3619  000F08  CFF3 F084          	movff	prodl,___flmul@temp
  3620  000F0C  CFF4 F085          	movff	prodh,___flmul@temp+1
  3621  000F10                     
  3622                           ; BSR set to: 0
  3623  000F10  5184               	movf	___flmul@temp& (0+255),w,b
  3624  000F12  6F75               	movwf	??___flmul& (0+255),b
  3625  000F14  5185               	movf	(___flmul@temp+1)& (0+255),w,b
  3626  000F16  6F76               	movwf	(??___flmul+1)& (0+255),b
  3627  000F18  6B77               	clrf	(??___flmul+2)& (0+255),b
  3628  000F1A  6B78               	clrf	(??___flmul+3)& (0+255),b
  3629  000F1C  C077  F078         	movff	??___flmul+2,??___flmul+3
  3630  000F20  C076  F077         	movff	??___flmul+1,??___flmul+2
  3631  000F24  C075  F076         	movff	??___flmul,??___flmul+1
  3632  000F28  6B75               	clrf	??___flmul& (0+255),b
  3633  000F2A  5175               	movf	??___flmul& (0+255),w,b
  3634  000F2C  2780               	addwf	___flmul@prod& (0+255),f,b
  3635  000F2E  5176               	movf	(??___flmul+1)& (0+255),w,b
  3636  000F30  2381               	addwfc	(___flmul@prod+1)& (0+255),f,b
  3637  000F32  5177               	movf	(??___flmul+2)& (0+255),w,b
  3638  000F34  2382               	addwfc	(___flmul@prod+2)& (0+255),f,b
  3639  000F36  5178               	movf	(??___flmul+3)& (0+255),w,b
  3640  000F38  2383               	addwfc	(___flmul@prod+3)& (0+255),f,b
  3641  000F3A                     
  3642                           ; BSR set to: 0
  3643  000F3A  C07B  F075         	movff	___flmul@grs,??___flmul
  3644  000F3E  C07C  F076         	movff	___flmul@grs+1,??___flmul+1
  3645  000F42  C07D  F077         	movff	___flmul@grs+2,??___flmul+2
  3646  000F46  C07E  F078         	movff	___flmul@grs+3,??___flmul+3
  3647  000F4A  0E19               	movlw	25
  3648  000F4C  EFAD  F007         	goto	u3210
  3649  000F50                     u3215:
  3650  000F50  90D8               	bcf	status,0,c
  3651  000F52  3378               	rrcf	(??___flmul+3)& (0+255),f,b
  3652  000F54  3377               	rrcf	(??___flmul+2)& (0+255),f,b
  3653  000F56  3376               	rrcf	(??___flmul+1)& (0+255),f,b
  3654  000F58  3375               	rrcf	??___flmul& (0+255),f,b
  3655  000F5A                     u3210:
  3656  000F5A  2EE8               	decfsz	wreg,f,c
  3657  000F5C  EFA8  F007         	goto	u3215
  3658  000F60  5175               	movf	??___flmul& (0+255),w,b
  3659  000F62  2780               	addwf	___flmul@prod& (0+255),f,b
  3660  000F64  5176               	movf	(??___flmul+1)& (0+255),w,b
  3661  000F66  2381               	addwfc	(___flmul@prod+1)& (0+255),f,b
  3662  000F68  5177               	movf	(??___flmul+2)& (0+255),w,b
  3663  000F6A  2382               	addwfc	(___flmul@prod+2)& (0+255),f,b
  3664  000F6C  5178               	movf	(??___flmul+3)& (0+255),w,b
  3665  000F6E  2383               	addwfc	(___flmul@prod+3)& (0+255),f,b
  3666  000F70                     
  3667                           ; BSR set to: 0
  3668  000F70  C07D  F07E         	movff	___flmul@grs+2,___flmul@grs+3
  3669  000F74  C07C  F07D         	movff	___flmul@grs+1,___flmul@grs+2
  3670  000F78  C07B  F07C         	movff	___flmul@grs,___flmul@grs+1
  3671  000F7C  6B7B               	clrf	___flmul@grs& (0+255),b
  3672  000F7E                     
  3673                           ; BSR set to: 0
  3674  000F7E  517A               	movf	___flmul@aexp& (0+255),w,b
  3675  000F80  C07F  F075         	movff	___flmul@bexp,??___flmul
  3676  000F84  6B76               	clrf	(??___flmul+1)& (0+255),b
  3677  000F86  2775               	addwf	??___flmul& (0+255),f,b
  3678  000F88  0E00               	movlw	0
  3679  000F8A  2376               	addwfc	(??___flmul+1)& (0+255),f,b
  3680  000F8C  0E82               	movlw	130
  3681  000F8E  2575               	addwf	??___flmul& (0+255),w,b
  3682  000F90  6F84               	movwf	___flmul@temp& (0+255),b
  3683  000F92  0EFF               	movlw	255
  3684  000F94  2176               	addwfc	(??___flmul+1)& (0+255),w,b
  3685  000F96  6F85               	movwf	(___flmul@temp+1)& (0+255),b
  3686  000F98  EFE3  F007         	goto	l3337
  3687  000F9C                     l3331:
  3688                           
  3689                           ; BSR set to: 0
  3690  000F9C  90D8               	bcf	status,0,c
  3691  000F9E  3780               	rlcf	___flmul@prod& (0+255),f,b
  3692  000FA0  3781               	rlcf	(___flmul@prod+1)& (0+255),f,b
  3693  000FA2  3782               	rlcf	(___flmul@prod+2)& (0+255),f,b
  3694  000FA4  3783               	rlcf	(___flmul@prod+3)& (0+255),f,b
  3695  000FA6                     
  3696                           ; BSR set to: 0
  3697  000FA6  AF7E               	btfss	(___flmul@grs+3)& (0+255),7,b
  3698  000FA8  EFD8  F007         	goto	u3221
  3699  000FAC  EFDA  F007         	goto	u3220
  3700  000FB0                     u3221:
  3701  000FB0  EFDB  F007         	goto	l849
  3702  000FB4                     u3220:
  3703  000FB4                     
  3704                           ; BSR set to: 0
  3705  000FB4  8180               	bsf	___flmul@prod& (0+255),0,b
  3706  000FB6                     l849:
  3707                           
  3708                           ; BSR set to: 0
  3709  000FB6  90D8               	bcf	status,0,c
  3710  000FB8  377B               	rlcf	___flmul@grs& (0+255),f,b
  3711  000FBA  377C               	rlcf	(___flmul@grs+1)& (0+255),f,b
  3712  000FBC  377D               	rlcf	(___flmul@grs+2)& (0+255),f,b
  3713  000FBE  377E               	rlcf	(___flmul@grs+3)& (0+255),f,b
  3714  000FC0  0784               	decf	___flmul@temp& (0+255),f,b
  3715  000FC2  A0D8               	btfss	status,0,c
  3716  000FC4  0785               	decf	(___flmul@temp+1)& (0+255),f,b
  3717  000FC6                     l3337:
  3718                           
  3719                           ; BSR set to: 0
  3720  000FC6  AF82               	btfss	(___flmul@prod+2)& (0+255),7,b
  3721  000FC8  EFE8  F007         	goto	u3231
  3722  000FCC  EFEA  F007         	goto	u3230
  3723  000FD0                     u3231:
  3724  000FD0  EFCE  F007         	goto	l3331
  3725  000FD4                     u3230:
  3726  000FD4                     
  3727                           ; BSR set to: 0
  3728  000FD4  0E00               	movlw	0
  3729  000FD6  6F7A               	movwf	___flmul@aexp& (0+255),b
  3730  000FD8                     
  3731                           ; BSR set to: 0
  3732  000FD8  AF7E               	btfss	(___flmul@grs+3)& (0+255),7,b
  3733  000FDA  EFF1  F007         	goto	u3241
  3734  000FDE  EFF3  F007         	goto	u3240
  3735  000FE2                     u3241:
  3736  000FE2  EF17  F008         	goto	l851
  3737  000FE6                     u3240:
  3738  000FE6                     
  3739                           ; BSR set to: 0
  3740  000FE6  0EFF               	movlw	255
  3741  000FE8  157B               	andwf	___flmul@grs& (0+255),w,b
  3742  000FEA  6F75               	movwf	??___flmul& (0+255),b
  3743  000FEC  0EFF               	movlw	255
  3744  000FEE  157C               	andwf	(___flmul@grs+1)& (0+255),w,b
  3745  000FF0  6F76               	movwf	(??___flmul+1)& (0+255),b
  3746  000FF2  0EFF               	movlw	255
  3747  000FF4  157D               	andwf	(___flmul@grs+2)& (0+255),w,b
  3748  000FF6  6F77               	movwf	(??___flmul+2)& (0+255),b
  3749  000FF8  0E7F               	movlw	127
  3750  000FFA  157E               	andwf	(___flmul@grs+3)& (0+255),w,b
  3751  000FFC  6F78               	movwf	(??___flmul+3)& (0+255),b
  3752  000FFE  5175               	movf	??___flmul& (0+255),w,b
  3753  001000  1176               	iorwf	(??___flmul+1)& (0+255),w,b
  3754  001002  1177               	iorwf	(??___flmul+2)& (0+255),w,b
  3755  001004  1178               	iorwf	(??___flmul+3)& (0+255),w,b
  3756  001006  B4D8               	btfsc	status,2,c
  3757  001008  EF08  F008         	goto	u3251
  3758  00100C  EF0A  F008         	goto	u3250
  3759  001010                     u3251:
  3760  001010  EF0E  F008         	goto	l852
  3761  001014                     u3250:
  3762  001014                     l3345:
  3763                           
  3764                           ; BSR set to: 0
  3765  001014  0E01               	movlw	1
  3766  001016  6F7A               	movwf	___flmul@aexp& (0+255),b
  3767  001018  EF17  F008         	goto	l851
  3768  00101C                     l852:
  3769                           
  3770                           ; BSR set to: 0
  3771  00101C  A180               	btfss	___flmul@prod& (0+255),0,b
  3772  00101E  EF13  F008         	goto	u3261
  3773  001022  EF15  F008         	goto	u3260
  3774  001026                     u3261:
  3775  001026  EF17  F008         	goto	l851
  3776  00102A                     u3260:
  3777  00102A  EF0A  F008         	goto	l3345
  3778  00102E                     l851:
  3779                           
  3780                           ; BSR set to: 0
  3781  00102E  517A               	movf	___flmul@aexp& (0+255),w,b
  3782  001030  B4D8               	btfsc	status,2,c
  3783  001032  EF1D  F008         	goto	u3271
  3784  001036  EF1F  F008         	goto	u3270
  3785  00103A                     u3271:
  3786  00103A  EF43  F008         	goto	l3357
  3787  00103E                     u3270:
  3788  00103E                     
  3789                           ; BSR set to: 0
  3790  00103E  0E01               	movlw	1
  3791  001040  2780               	addwf	___flmul@prod& (0+255),f,b
  3792  001042  0E00               	movlw	0
  3793  001044  2381               	addwfc	(___flmul@prod+1)& (0+255),f,b
  3794  001046  2382               	addwfc	(___flmul@prod+2)& (0+255),f,b
  3795  001048  2383               	addwfc	(___flmul@prod+3)& (0+255),f,b
  3796  00104A                     
  3797                           ; BSR set to: 0
  3798  00104A  A183               	btfss	(___flmul@prod+3)& (0+255),0,b
  3799  00104C  EF2A  F008         	goto	u3281
  3800  001050  EF2C  F008         	goto	u3280
  3801  001054                     u3281:
  3802  001054  EF43  F008         	goto	l3357
  3803  001058                     u3280:
  3804  001058                     
  3805                           ; BSR set to: 0
  3806  001058  C080  F075         	movff	___flmul@prod,??___flmul
  3807  00105C  C081  F076         	movff	___flmul@prod+1,??___flmul+1
  3808  001060  C082  F077         	movff	___flmul@prod+2,??___flmul+2
  3809  001064  C083  F078         	movff	___flmul@prod+3,??___flmul+3
  3810  001068  3578               	rlcf	(??___flmul+3)& (0+255),w,b
  3811  00106A  3378               	rrcf	(??___flmul+3)& (0+255),f,b
  3812  00106C  3377               	rrcf	(??___flmul+2)& (0+255),f,b
  3813  00106E  3376               	rrcf	(??___flmul+1)& (0+255),f,b
  3814  001070  3375               	rrcf	??___flmul& (0+255),f,b
  3815  001072  C075  F080         	movff	??___flmul,___flmul@prod
  3816  001076  C076  F081         	movff	??___flmul+1,___flmul@prod+1
  3817  00107A  C077  F082         	movff	??___flmul+2,___flmul@prod+2
  3818  00107E  C078  F083         	movff	??___flmul+3,___flmul@prod+3
  3819  001082                     
  3820                           ; BSR set to: 0
  3821  001082  4B84               	infsnz	___flmul@temp& (0+255),f,b
  3822  001084  2B85               	incf	(___flmul@temp+1)& (0+255),f,b
  3823  001086                     l3357:
  3824                           
  3825                           ; BSR set to: 0
  3826  001086  BF85               	btfsc	(___flmul@temp+1)& (0+255),7,b
  3827  001088  EF4E  F008         	goto	u3291
  3828  00108C  5185               	movf	(___flmul@temp+1)& (0+255),w,b
  3829  00108E  E108               	bnz	u3290
  3830  001090  2984               	incf	___flmul@temp& (0+255),w,b
  3831  001092  A0D8               	btfss	status,0,c
  3832  001094  EF4E  F008         	goto	u3291
  3833  001098  EF50  F008         	goto	u3290
  3834  00109C                     u3291:
  3835  00109C  EF5A  F008         	goto	l3361
  3836  0010A0                     u3290:
  3837  0010A0                     
  3838                           ; BSR set to: 0
  3839  0010A0  0E00               	movlw	0
  3840  0010A2  6F80               	movwf	___flmul@prod& (0+255),b
  3841  0010A4  0E00               	movlw	0
  3842  0010A6  6F81               	movwf	(___flmul@prod+1)& (0+255),b
  3843  0010A8  0E80               	movlw	128
  3844  0010AA  6F82               	movwf	(___flmul@prod+2)& (0+255),b
  3845  0010AC  0E7F               	movlw	127
  3846  0010AE  6F83               	movwf	(___flmul@prod+3)& (0+255),b
  3847  0010B0  EF88  F008         	goto	l3373
  3848  0010B4                     l3361:
  3849                           
  3850                           ; BSR set to: 0
  3851  0010B4  BF85               	btfsc	(___flmul@temp+1)& (0+255),7,b
  3852  0010B6  EF67  F008         	goto	u3300
  3853  0010BA  5185               	movf	(___flmul@temp+1)& (0+255),w,b
  3854  0010BC  E106               	bnz	u3301
  3855  0010BE  0584               	decf	___flmul@temp& (0+255),w,b
  3856  0010C0  B0D8               	btfsc	status,0,c
  3857  0010C2  EF65  F008         	goto	u3301
  3858  0010C6  EF67  F008         	goto	u3300
  3859  0010CA                     u3301:
  3860  0010CA  EF73  F008         	goto	l859
  3861  0010CE                     u3300:
  3862  0010CE                     
  3863                           ; BSR set to: 0
  3864  0010CE  0E00               	movlw	0
  3865  0010D0  6F80               	movwf	___flmul@prod& (0+255),b
  3866  0010D2  0E00               	movlw	0
  3867  0010D4  6F81               	movwf	(___flmul@prod+1)& (0+255),b
  3868  0010D6  0E00               	movlw	0
  3869  0010D8  6F82               	movwf	(___flmul@prod+2)& (0+255),b
  3870  0010DA  0E00               	movlw	0
  3871  0010DC  6F83               	movwf	(___flmul@prod+3)& (0+255),b
  3872  0010DE  0E00               	movlw	0
  3873  0010E0  6F79               	movwf	___flmul@sign& (0+255),b
  3874  0010E2  EF88  F008         	goto	l3373
  3875  0010E6                     l859:
  3876                           
  3877                           ; BSR set to: 0
  3878  0010E6  C084  F07F         	movff	___flmul@temp,___flmul@bexp
  3879  0010EA                     
  3880                           ; BSR set to: 0
  3881  0010EA  0EFF               	movlw	255
  3882  0010EC  1780               	andwf	___flmul@prod& (0+255),f,b
  3883  0010EE  0EFF               	movlw	255
  3884  0010F0  1781               	andwf	(___flmul@prod+1)& (0+255),f,b
  3885  0010F2  0E7F               	movlw	127
  3886  0010F4  1782               	andwf	(___flmul@prod+2)& (0+255),f,b
  3887  0010F6  0E00               	movlw	0
  3888  0010F8  1783               	andwf	(___flmul@prod+3)& (0+255),f,b
  3889  0010FA                     
  3890                           ; BSR set to: 0
  3891  0010FA  A17F               	btfss	___flmul@bexp& (0+255),0,b
  3892  0010FC  EF82  F008         	goto	u3311
  3893  001100  EF84  F008         	goto	u3310
  3894  001104                     u3311:
  3895  001104  EF85  F008         	goto	l3371
  3896  001108                     u3310:
  3897  001108                     
  3898                           ; BSR set to: 0
  3899  001108  8F82               	bsf	(___flmul@prod+2)& (0+255),7,b
  3900  00110A                     l3371:
  3901                           
  3902                           ; BSR set to: 0
  3903  00110A  90D8               	bcf	status,0,c
  3904  00110C  317F               	rrcf	___flmul@bexp& (0+255),w,b
  3905  00110E  6F83               	movwf	(___flmul@prod+3)& (0+255),b
  3906  001110                     l3373:
  3907                           
  3908                           ; BSR set to: 0
  3909  001110  5179               	movf	___flmul@sign& (0+255),w,b
  3910  001112  1383               	iorwf	(___flmul@prod+3)& (0+255),f,b
  3911  001114                     
  3912                           ; BSR set to: 0
  3913  001114  C080  F06D         	movff	___flmul@prod,?___flmul
  3914  001118  C081  F06E         	movff	___flmul@prod+1,?___flmul+1
  3915  00111C  C082  F06F         	movff	___flmul@prod+2,?___flmul+2
  3916  001120  C083  F070         	movff	___flmul@prod+3,?___flmul+3
  3917  001124                     l846:
  3918                           
  3919                           ; BSR set to: 0
  3920  001124  0012               	return		;funcret
  3921  001126                     __end_of___flmul:
  3922                           	callstack 0
  3923                           
  3924 ;; *************** function ___awmod *****************
  3925 ;; Defined at:
  3926 ;;		line 7 in file "C:\Program Files\Microchip\xc8\v2.32\pic\sources\c99\common\awmod.c"
  3927 ;; Parameters:    Size  Location     Type
  3928 ;;  dividend        2   29[COMRAM] int 
  3929 ;;  divisor         2   31[COMRAM] int 
  3930 ;; Auto vars:     Size  Location     Type
  3931 ;;  sign            1   34[COMRAM] unsigned char 
  3932 ;;  counter         1   33[COMRAM] unsigned char 
  3933 ;; Return value:  Size  Location     Type
  3934 ;;                  2   29[COMRAM] int 
  3935 ;; Registers used:
  3936 ;;		wreg, status,2, status,0
  3937 ;; Tracked objects:
  3938 ;;		On entry : 0/0
  3939 ;;		On exit  : 0/0
  3940 ;;		Unchanged: 0/0
  3941 ;; Data sizes:     COMRAM   BANK0   BANK1   BANK2   BANK3   BANK4   BANK5   BANK6   BANK7
  3942 ;;      Params:         4       0       0       0       0       0       0       0       0
  3943 ;;      Locals:         2       0       0       0       0       0       0       0       0
  3944 ;;      Temps:          0       0       0       0       0       0       0       0       0
  3945 ;;      Totals:         6       0       0       0       0       0       0       0       0
  3946 ;;Total ram usage:        6 bytes
  3947 ;; Hardware stack levels used: 1
  3948 ;; Hardware stack levels required when called: 2
  3949 ;; This function calls:
  3950 ;;		Nothing
  3951 ;; This function is called by:
  3952 ;;		_displayStuff
  3953 ;; This function uses a non-reentrant model
  3954 ;;
  3955                           
  3956                           	psect	text12
  3957  001FB0                     __ptext12:
  3958                           	callstack 0
  3959  001FB0                     ___awmod:
  3960                           	callstack 27
  3961  001FB0  0E00               	movlw	0
  3962  001FB2  6E23               	movwf	___awmod@sign^0,c
  3963  001FB4  BE1F               	btfsc	(___awmod@dividend+1)^0,7,c
  3964  001FB6  EFE1  F00F         	goto	u2560
  3965  001FBA  EFDF  F00F         	goto	u2561
  3966  001FBE                     u2561:
  3967  001FBE  EFE7  F00F         	goto	l2785
  3968  001FC2                     u2560:
  3969  001FC2  6C1E               	negf	___awmod@dividend^0,c
  3970  001FC4  1E1F               	comf	(___awmod@dividend+1)^0,f,c
  3971  001FC6  B0D8               	btfsc	status,0,c
  3972  001FC8  2A1F               	incf	(___awmod@dividend+1)^0,f,c
  3973  001FCA  0E01               	movlw	1
  3974  001FCC  6E23               	movwf	___awmod@sign^0,c
  3975  001FCE                     l2785:
  3976  001FCE  BE21               	btfsc	(___awmod@divisor+1)^0,7,c
  3977  001FD0  EFEE  F00F         	goto	u2570
  3978  001FD4  EFEC  F00F         	goto	u2571
  3979  001FD8                     u2571:
  3980  001FD8  EFF2  F00F         	goto	l2789
  3981  001FDC                     u2570:
  3982  001FDC  6C20               	negf	___awmod@divisor^0,c
  3983  001FDE  1E21               	comf	(___awmod@divisor+1)^0,f,c
  3984  001FE0  B0D8               	btfsc	status,0,c
  3985  001FE2  2A21               	incf	(___awmod@divisor+1)^0,f,c
  3986  001FE4                     l2789:
  3987  001FE4  5020               	movf	___awmod@divisor^0,w,c
  3988  001FE6  1021               	iorwf	(___awmod@divisor+1)^0,w,c
  3989  001FE8  B4D8               	btfsc	status,2,c
  3990  001FEA  EFF9  F00F         	goto	u2581
  3991  001FEE  EFFB  F00F         	goto	u2580
  3992  001FF2                     u2581:
  3993  001FF2  EF1F  F010         	goto	l2805
  3994  001FF6                     u2580:
  3995  001FF6  0E01               	movlw	1
  3996  001FF8  6E22               	movwf	___awmod@counter^0,c
  3997  001FFA  EF03  F010         	goto	l2795
  3998  001FFE                     l2793:
  3999  001FFE  90D8               	bcf	status,0,c
  4000  002000  3620               	rlcf	___awmod@divisor^0,f,c
  4001  002002  3621               	rlcf	(___awmod@divisor+1)^0,f,c
  4002  002004  2A22               	incf	___awmod@counter^0,f,c
  4003  002006                     l2795:
  4004  002006  AE21               	btfss	(___awmod@divisor+1)^0,7,c
  4005  002008  EF08  F010         	goto	u2591
  4006  00200C  EF0A  F010         	goto	u2590
  4007  002010                     u2591:
  4008  002010  EFFF  F00F         	goto	l2793
  4009  002014                     u2590:
  4010  002014                     l2797:
  4011  002014  5020               	movf	___awmod@divisor^0,w,c
  4012  002016  5C1E               	subwf	___awmod@dividend^0,w,c
  4013  002018  5021               	movf	(___awmod@divisor+1)^0,w,c
  4014  00201A  581F               	subwfb	(___awmod@dividend+1)^0,w,c
  4015  00201C  A0D8               	btfss	status,0,c
  4016  00201E  EF13  F010         	goto	u2601
  4017  002022  EF15  F010         	goto	u2600
  4018  002026                     u2601:
  4019  002026  EF19  F010         	goto	l2801
  4020  00202A                     u2600:
  4021  00202A  5020               	movf	___awmod@divisor^0,w,c
  4022  00202C  5E1E               	subwf	___awmod@dividend^0,f,c
  4023  00202E  5021               	movf	(___awmod@divisor+1)^0,w,c
  4024  002030  5A1F               	subwfb	(___awmod@dividend+1)^0,f,c
  4025  002032                     l2801:
  4026  002032  90D8               	bcf	status,0,c
  4027  002034  3221               	rrcf	(___awmod@divisor+1)^0,f,c
  4028  002036  3220               	rrcf	___awmod@divisor^0,f,c
  4029  002038  2E22               	decfsz	___awmod@counter^0,f,c
  4030  00203A  EF0A  F010         	goto	l2797
  4031  00203E                     l2805:
  4032  00203E  5023               	movf	___awmod@sign^0,w,c
  4033  002040  B4D8               	btfsc	status,2,c
  4034  002042  EF25  F010         	goto	u2611
  4035  002046  EF27  F010         	goto	u2610
  4036  00204A                     u2611:
  4037  00204A  EF2B  F010         	goto	l2809
  4038  00204E                     u2610:
  4039  00204E  6C1E               	negf	___awmod@dividend^0,c
  4040  002050  1E1F               	comf	(___awmod@dividend+1)^0,f,c
  4041  002052  B0D8               	btfsc	status,0,c
  4042  002054  2A1F               	incf	(___awmod@dividend+1)^0,f,c
  4043  002056                     l2809:
  4044  002056  C01E  F01E         	movff	___awmod@dividend,?___awmod
  4045  00205A  C01F  F01F         	movff	___awmod@dividend+1,?___awmod+1
  4046  00205E  0012               	return		;funcret
  4047  002060                     __end_of___awmod:
  4048                           	callstack 0
  4049                           
  4050 ;; *************** function ___awdiv *****************
  4051 ;; Defined at:
  4052 ;;		line 7 in file "C:\Program Files\Microchip\xc8\v2.32\pic\sources\c99\common\awdiv.c"
  4053 ;; Parameters:    Size  Location     Type
  4054 ;;  dividend        2   29[COMRAM] int 
  4055 ;;  divisor         2   31[COMRAM] int 
  4056 ;; Auto vars:     Size  Location     Type
  4057 ;;  quotient        2   35[COMRAM] int 
  4058 ;;  sign            1   34[COMRAM] unsigned char 
  4059 ;;  counter         1   33[COMRAM] unsigned char 
  4060 ;; Return value:  Size  Location     Type
  4061 ;;                  2   29[COMRAM] int 
  4062 ;; Registers used:
  4063 ;;		wreg, status,2, status,0
  4064 ;; Tracked objects:
  4065 ;;		On entry : 0/0
  4066 ;;		On exit  : 0/0
  4067 ;;		Unchanged: 0/0
  4068 ;; Data sizes:     COMRAM   BANK0   BANK1   BANK2   BANK3   BANK4   BANK5   BANK6   BANK7
  4069 ;;      Params:         4       0       0       0       0       0       0       0       0
  4070 ;;      Locals:         4       0       0       0       0       0       0       0       0
  4071 ;;      Temps:          0       0       0       0       0       0       0       0       0
  4072 ;;      Totals:         8       0       0       0       0       0       0       0       0
  4073 ;;Total ram usage:        8 bytes
  4074 ;; Hardware stack levels used: 1
  4075 ;; Hardware stack levels required when called: 2
  4076 ;; This function calls:
  4077 ;;		Nothing
  4078 ;; This function is called by:
  4079 ;;		_displayStuff
  4080 ;; This function uses a non-reentrant model
  4081 ;;
  4082                           
  4083                           	psect	text13
  4084  001EEC                     __ptext13:
  4085                           	callstack 0
  4086  001EEC                     ___awdiv:
  4087                           	callstack 27
  4088  001EEC  0E00               	movlw	0
  4089  001EEE  6E23               	movwf	___awdiv@sign^0,c
  4090  001EF0  BE21               	btfsc	(___awdiv@divisor+1)^0,7,c
  4091  001EF2  EF7F  F00F         	goto	u2500
  4092  001EF6  EF7D  F00F         	goto	u2501
  4093  001EFA                     u2501:
  4094  001EFA  EF85  F00F         	goto	l2741
  4095  001EFE                     u2500:
  4096  001EFE  6C20               	negf	___awdiv@divisor^0,c
  4097  001F00  1E21               	comf	(___awdiv@divisor+1)^0,f,c
  4098  001F02  B0D8               	btfsc	status,0,c
  4099  001F04  2A21               	incf	(___awdiv@divisor+1)^0,f,c
  4100  001F06  0E01               	movlw	1
  4101  001F08  6E23               	movwf	___awdiv@sign^0,c
  4102  001F0A                     l2741:
  4103  001F0A  BE1F               	btfsc	(___awdiv@dividend+1)^0,7,c
  4104  001F0C  EF8C  F00F         	goto	u2510
  4105  001F10  EF8A  F00F         	goto	u2511
  4106  001F14                     u2511:
  4107  001F14  EF92  F00F         	goto	l2747
  4108  001F18                     u2510:
  4109  001F18  6C1E               	negf	___awdiv@dividend^0,c
  4110  001F1A  1E1F               	comf	(___awdiv@dividend+1)^0,f,c
  4111  001F1C  B0D8               	btfsc	status,0,c
  4112  001F1E  2A1F               	incf	(___awdiv@dividend+1)^0,f,c
  4113  001F20  0E01               	movlw	1
  4114  001F22  1A23               	xorwf	___awdiv@sign^0,f,c
  4115  001F24                     l2747:
  4116  001F24  0E00               	movlw	0
  4117  001F26  6E25               	movwf	(___awdiv@quotient+1)^0,c
  4118  001F28  0E00               	movlw	0
  4119  001F2A  6E24               	movwf	___awdiv@quotient^0,c
  4120  001F2C  5020               	movf	___awdiv@divisor^0,w,c
  4121  001F2E  1021               	iorwf	(___awdiv@divisor+1)^0,w,c
  4122  001F30  B4D8               	btfsc	status,2,c
  4123  001F32  EF9D  F00F         	goto	u2521
  4124  001F36  EF9F  F00F         	goto	u2520
  4125  001F3A                     u2521:
  4126  001F3A  EFC7  F00F         	goto	l2769
  4127  001F3E                     u2520:
  4128  001F3E  0E01               	movlw	1
  4129  001F40  6E22               	movwf	___awdiv@counter^0,c
  4130  001F42  EFA7  F00F         	goto	l2755
  4131  001F46                     l2753:
  4132  001F46  90D8               	bcf	status,0,c
  4133  001F48  3620               	rlcf	___awdiv@divisor^0,f,c
  4134  001F4A  3621               	rlcf	(___awdiv@divisor+1)^0,f,c
  4135  001F4C  2A22               	incf	___awdiv@counter^0,f,c
  4136  001F4E                     l2755:
  4137  001F4E  AE21               	btfss	(___awdiv@divisor+1)^0,7,c
  4138  001F50  EFAC  F00F         	goto	u2531
  4139  001F54  EFAE  F00F         	goto	u2530
  4140  001F58                     u2531:
  4141  001F58  EFA3  F00F         	goto	l2753
  4142  001F5C                     u2530:
  4143  001F5C                     l2757:
  4144  001F5C  90D8               	bcf	status,0,c
  4145  001F5E  3624               	rlcf	___awdiv@quotient^0,f,c
  4146  001F60  3625               	rlcf	(___awdiv@quotient+1)^0,f,c
  4147  001F62  5020               	movf	___awdiv@divisor^0,w,c
  4148  001F64  5C1E               	subwf	___awdiv@dividend^0,w,c
  4149  001F66  5021               	movf	(___awdiv@divisor+1)^0,w,c
  4150  001F68  581F               	subwfb	(___awdiv@dividend+1)^0,w,c
  4151  001F6A  A0D8               	btfss	status,0,c
  4152  001F6C  EFBA  F00F         	goto	u2541
  4153  001F70  EFBC  F00F         	goto	u2540
  4154  001F74                     u2541:
  4155  001F74  EFC1  F00F         	goto	l2765
  4156  001F78                     u2540:
  4157  001F78  5020               	movf	___awdiv@divisor^0,w,c
  4158  001F7A  5E1E               	subwf	___awdiv@dividend^0,f,c
  4159  001F7C  5021               	movf	(___awdiv@divisor+1)^0,w,c
  4160  001F7E  5A1F               	subwfb	(___awdiv@dividend+1)^0,f,c
  4161  001F80  8024               	bsf	___awdiv@quotient^0,0,c
  4162  001F82                     l2765:
  4163  001F82  90D8               	bcf	status,0,c
  4164  001F84  3221               	rrcf	(___awdiv@divisor+1)^0,f,c
  4165  001F86  3220               	rrcf	___awdiv@divisor^0,f,c
  4166  001F88  2E22               	decfsz	___awdiv@counter^0,f,c
  4167  001F8A  EFAE  F00F         	goto	l2757
  4168  001F8E                     l2769:
  4169  001F8E  5023               	movf	___awdiv@sign^0,w,c
  4170  001F90  B4D8               	btfsc	status,2,c
  4171  001F92  EFCD  F00F         	goto	u2551
  4172  001F96  EFCF  F00F         	goto	u2550
  4173  001F9A                     u2551:
  4174  001F9A  EFD3  F00F         	goto	l2773
  4175  001F9E                     u2550:
  4176  001F9E  6C24               	negf	___awdiv@quotient^0,c
  4177  001FA0  1E25               	comf	(___awdiv@quotient+1)^0,f,c
  4178  001FA2  B0D8               	btfsc	status,0,c
  4179  001FA4  2A25               	incf	(___awdiv@quotient+1)^0,f,c
  4180  001FA6                     l2773:
  4181  001FA6  C024  F01E         	movff	___awdiv@quotient,?___awdiv
  4182  001FAA  C025  F01F         	movff	___awdiv@quotient+1,?___awdiv+1
  4183  001FAE  0012               	return		;funcret
  4184  001FB0                     __end_of___awdiv:
  4185                           	callstack 0
  4186                           
  4187 ;; *************** function _configureTimer *****************
  4188 ;; Defined at:
  4189 ;;		line 255 in file "../ProjetoF_micro.X/main.c"
  4190 ;; Parameters:    Size  Location     Type
  4191 ;;		None
  4192 ;; Auto vars:     Size  Location     Type
  4193 ;;		None
  4194 ;; Return value:  Size  Location     Type
  4195 ;;                  1    wreg      void 
  4196 ;; Registers used:
  4197 ;;		wreg, status,2
  4198 ;; Tracked objects:
  4199 ;;		On entry : 0/0
  4200 ;;		On exit  : 0/0
  4201 ;;		Unchanged: 0/0
  4202 ;; Data sizes:     COMRAM   BANK0   BANK1   BANK2   BANK3   BANK4   BANK5   BANK6   BANK7
  4203 ;;      Params:         0       0       0       0       0       0       0       0       0
  4204 ;;      Locals:         0       0       0       0       0       0       0       0       0
  4205 ;;      Temps:          0       0       0       0       0       0       0       0       0
  4206 ;;      Totals:         0       0       0       0       0       0       0       0       0
  4207 ;;Total ram usage:        0 bytes
  4208 ;; Hardware stack levels used: 1
  4209 ;; Hardware stack levels required when called: 2
  4210 ;; This function calls:
  4211 ;;		Nothing
  4212 ;; This function is called by:
  4213 ;;		_main
  4214 ;; This function uses a non-reentrant model
  4215 ;;
  4216                           
  4217                           	psect	text14
  4218  002404                     __ptext14:
  4219                           	callstack 0
  4220  002404                     _configureTimer:
  4221                           	callstack 28
  4222  002404                     
  4223                           ;../ProjetoF_micro.X/main.c: 256:     T0CON = 0b10000100;
  4224  002404  0E84               	movlw	132
  4225  002406  6ED5               	movwf	213,c	;volatile
  4226                           
  4227                           ;../ProjetoF_micro.X/main.c: 262:     TMR0H = 0xC2;
  4228  002408  0EC2               	movlw	194
  4229  00240A  6ED7               	movwf	215,c	;volatile
  4230                           
  4231                           ;../ProjetoF_micro.X/main.c: 263:     TMR0L = 0xF7;
  4232  00240C  0EF7               	movlw	247
  4233  00240E  6ED6               	movwf	214,c	;volatile
  4234  002410                     
  4235                           ;../ProjetoF_micro.X/main.c: 265:     INTCONbits.TMR0IF = 0;
  4236  002410  94F2               	bcf	242,2,c	;volatile
  4237  002412  0012               	return		;funcret
  4238  002414                     __end_of_configureTimer:
  4239                           	callstack 0
  4240                           
  4241 ;; *************** function _configureLCD *****************
  4242 ;; Defined at:
  4243 ;;		line 230 in file "../ProjetoF_micro.X/main.c"
  4244 ;; Parameters:    Size  Location     Type
  4245 ;;		None
  4246 ;; Auto vars:     Size  Location     Type
  4247 ;;		None
  4248 ;; Return value:  Size  Location     Type
  4249 ;;                  1    wreg      void 
  4250 ;; Registers used:
  4251 ;;		wreg, status,2, status,0, cstack
  4252 ;; Tracked objects:
  4253 ;;		On entry : 0/0
  4254 ;;		On exit  : 0/0
  4255 ;;		Unchanged: 0/0
  4256 ;; Data sizes:     COMRAM   BANK0   BANK1   BANK2   BANK3   BANK4   BANK5   BANK6   BANK7
  4257 ;;      Params:         0       0       0       0       0       0       0       0       0
  4258 ;;      Locals:         0       0       0       0       0       0       0       0       0
  4259 ;;      Temps:          0       0       0       0       0       0       0       0       0
  4260 ;;      Totals:         0       0       0       0       0       0       0       0       0
  4261 ;;Total ram usage:        0 bytes
  4262 ;; Hardware stack levels used: 1
  4263 ;; Hardware stack levels required when called: 5
  4264 ;; This function calls:
  4265 ;;		_OpenXLCD
  4266 ;;		_WriteCmdXLCD
  4267 ;; This function is called by:
  4268 ;;		_main
  4269 ;; This function uses a non-reentrant model
  4270 ;;
  4271                           
  4272                           	psect	text15
  4273  002434                     __ptext15:
  4274                           	callstack 0
  4275  002434                     _configureLCD:
  4276                           	callstack 25
  4277  002434                     
  4278                           ;../ProjetoF_micro.X/main.c: 231:     OpenXLCD(0b00101100 & 0b00111000);
  4279  002434  0E28               	movlw	40
  4280  002436  EC9A  F00E         	call	_OpenXLCD
  4281                           
  4282                           ;../ProjetoF_micro.X/main.c: 232:     WriteCmdXLCD(0x01);
  4283  00243A  0E01               	movlw	1
  4284  00243C  ECD0  F011         	call	_WriteCmdXLCD
  4285  002440  0012               	return		;funcret
  4286  002442                     __end_of_configureLCD:
  4287                           	callstack 0
  4288                           
  4289 ;; *************** function _OpenXLCD *****************
  4290 ;; Defined at:
  4291 ;;		line 41 in file "../ProjetoF_micro.X/nxlcd.c"
  4292 ;; Parameters:    Size  Location     Type
  4293 ;;  lcdtype         1    wreg     unsigned char 
  4294 ;; Auto vars:     Size  Location     Type
  4295 ;;  lcdtype         1   30[COMRAM] unsigned char 
  4296 ;; Return value:  Size  Location     Type
  4297 ;;                  1    wreg      void 
  4298 ;; Registers used:
  4299 ;;		wreg, status,2, status,0, cstack
  4300 ;; Tracked objects:
  4301 ;;		On entry : 0/0
  4302 ;;		On exit  : 0/0
  4303 ;;		Unchanged: 0/0
  4304 ;; Data sizes:     COMRAM   BANK0   BANK1   BANK2   BANK3   BANK4   BANK5   BANK6   BANK7
  4305 ;;      Params:         0       0       0       0       0       0       0       0       0
  4306 ;;      Locals:         1       0       0       0       0       0       0       0       0
  4307 ;;      Temps:          0       0       0       0       0       0       0       0       0
  4308 ;;      Totals:         1       0       0       0       0       0       0       0       0
  4309 ;;Total ram usage:        1 bytes
  4310 ;; Hardware stack levels used: 1
  4311 ;; Hardware stack levels required when called: 4
  4312 ;; This function calls:
  4313 ;;		_BusyXLCD
  4314 ;;		_DelayPORXLCD
  4315 ;;		_DelayXLCD
  4316 ;;		_SetDDRamAddr
  4317 ;;		_WriteCmdXLCD
  4318 ;; This function is called by:
  4319 ;;		_configureLCD
  4320 ;; This function uses a non-reentrant model
  4321 ;;
  4322                           
  4323                           	psect	text16
  4324  001D34                     __ptext16:
  4325                           	callstack 0
  4326  001D34                     _OpenXLCD:
  4327                           	callstack 25
  4328                           
  4329                           ;incstack = 0
  4330                           ;OpenXLCD@lcdtype stored from wreg
  4331  001D34  6E1F               	movwf	OpenXLCD@lcdtype^0,c
  4332  001D36                     
  4333                           ;../ProjetoF_micro.X/nxlcd.c: 41: void OpenXLCD(unsigned char lcdtype);../ProjetoF_micro
      +                          .X/nxlcd.c: 42: {;../ProjetoF_micro.X/nxlcd.c: 50:         PORTD &= 0x0f;
  4334  001D36  0E0F               	movlw	15
  4335  001D38  1683               	andwf	131,f,c	;volatile
  4336                           
  4337                           ;../ProjetoF_micro.X/nxlcd.c: 51:         TRISD &= 0x0F;
  4338  001D3A  0E0F               	movlw	15
  4339  001D3C  1695               	andwf	149,f,c	;volatile
  4340  001D3E                     
  4341                           ;../ProjetoF_micro.X/nxlcd.c: 57:         TRISEbits.TRISE2 = 0;
  4342  001D3E  9496               	bcf	150,2,c	;volatile
  4343  001D40                     
  4344                           ;../ProjetoF_micro.X/nxlcd.c: 58:         TRISEbits.TRISE0 = 0;
  4345  001D40  9096               	bcf	150,0,c	;volatile
  4346  001D42                     
  4347                           ;../ProjetoF_micro.X/nxlcd.c: 59:         TRISEbits.TRISE1 = 0;
  4348  001D42  9296               	bcf	150,1,c	;volatile
  4349  001D44                     
  4350                           ;../ProjetoF_micro.X/nxlcd.c: 60:         LATEbits.LATE2 = 0;
  4351  001D44  948D               	bcf	141,2,c	;volatile
  4352  001D46                     
  4353                           ;../ProjetoF_micro.X/nxlcd.c: 61:         LATEbits.LATE0 = 0;
  4354  001D46  908D               	bcf	141,0,c	;volatile
  4355  001D48                     
  4356                           ;../ProjetoF_micro.X/nxlcd.c: 62:         LATEbits.LATE1 = 0;
  4357  001D48  928D               	bcf	141,1,c	;volatile
  4358  001D4A                     
  4359                           ;../ProjetoF_micro.X/nxlcd.c: 65:         DelayPORXLCD();
  4360  001D4A  EC0A  F012         	call	_DelayPORXLCD	;wreg free
  4361  001D4E                     
  4362                           ;../ProjetoF_micro.X/nxlcd.c: 67:    WriteCmdXLCD(0x30);
  4363  001D4E  0E30               	movlw	48
  4364  001D50  ECD0  F011         	call	_WriteCmdXLCD
  4365  001D54                     
  4366                           ;../ProjetoF_micro.X/nxlcd.c: 68:    DelayXLCD();
  4367  001D54  ECF9  F011         	call	_DelayXLCD	;wreg free
  4368  001D58                     
  4369                           ;../ProjetoF_micro.X/nxlcd.c: 69:    DelayXLCD();
  4370  001D58  ECF9  F011         	call	_DelayXLCD	;wreg free
  4371  001D5C                     
  4372                           ;../ProjetoF_micro.X/nxlcd.c: 70:    WriteCmdXLCD(0x30);
  4373  001D5C  0E30               	movlw	48
  4374  001D5E  ECD0  F011         	call	_WriteCmdXLCD
  4375  001D62                     
  4376                           ;../ProjetoF_micro.X/nxlcd.c: 71:    DelayXLCD();
  4377  001D62  ECF9  F011         	call	_DelayXLCD	;wreg free
  4378  001D66                     
  4379                           ;../ProjetoF_micro.X/nxlcd.c: 72:    DelayXLCD();
  4380  001D66  ECF9  F011         	call	_DelayXLCD	;wreg free
  4381  001D6A                     
  4382                           ;../ProjetoF_micro.X/nxlcd.c: 73:    WriteCmdXLCD(0x32);
  4383  001D6A  0E32               	movlw	50
  4384  001D6C  ECD0  F011         	call	_WriteCmdXLCD
  4385  001D70                     l2421:
  4386  001D70  EC6E  F011         	call	_BusyXLCD	;wreg free
  4387  001D74  0900               	iorlw	0
  4388  001D76  A4D8               	btfss	status,2,c
  4389  001D78  EFC0  F00E         	goto	u1971
  4390  001D7C  EFC2  F00E         	goto	u1970
  4391  001D80                     u1971:
  4392  001D80  EFB8  F00E         	goto	l2421
  4393  001D84                     u1970:
  4394  001D84                     l2423:
  4395  001D84  EC6E  F011         	call	_BusyXLCD	;wreg free
  4396  001D88  0900               	iorlw	0
  4397  001D8A  A4D8               	btfss	status,2,c
  4398  001D8C  EFCA  F00E         	goto	u1981
  4399  001D90  EFCC  F00E         	goto	u1980
  4400  001D94                     u1981:
  4401  001D94  EFC2  F00E         	goto	l2423
  4402  001D98                     u1980:
  4403  001D98                     
  4404                           ;../ProjetoF_micro.X/nxlcd.c: 80:         WriteCmdXLCD(lcdtype);
  4405  001D98  501F               	movf	OpenXLCD@lcdtype^0,w,c
  4406  001D9A  ECD0  F011         	call	_WriteCmdXLCD
  4407  001D9E                     l2427:
  4408  001D9E  EC6E  F011         	call	_BusyXLCD	;wreg free
  4409  001DA2  0900               	iorlw	0
  4410  001DA4  A4D8               	btfss	status,2,c
  4411  001DA6  EFD7  F00E         	goto	u1991
  4412  001DAA  EFD9  F00E         	goto	u1990
  4413  001DAE                     u1991:
  4414  001DAE  EFCF  F00E         	goto	l2427
  4415  001DB2                     u1990:
  4416  001DB2                     
  4417                           ;../ProjetoF_micro.X/nxlcd.c: 84:         WriteCmdXLCD(0b00001011&0b00001101&0b00001110)
      +                          ;
  4418  001DB2  0E08               	movlw	8
  4419  001DB4  ECD0  F011         	call	_WriteCmdXLCD
  4420  001DB8                     l2431:
  4421  001DB8  EC6E  F011         	call	_BusyXLCD	;wreg free
  4422  001DBC  0900               	iorlw	0
  4423  001DBE  A4D8               	btfss	status,2,c
  4424  001DC0  EFE4  F00E         	goto	u2001
  4425  001DC4  EFE6  F00E         	goto	u2000
  4426  001DC8                     u2001:
  4427  001DC8  EFDC  F00E         	goto	l2431
  4428  001DCC                     u2000:
  4429  001DCC                     
  4430                           ;../ProjetoF_micro.X/nxlcd.c: 86:         WriteCmdXLCD(0b00001111&0b00001111&0b00001111)
      +                          ;
  4431  001DCC  0E0F               	movlw	15
  4432  001DCE  ECD0  F011         	call	_WriteCmdXLCD
  4433  001DD2                     l2435:
  4434  001DD2  EC6E  F011         	call	_BusyXLCD	;wreg free
  4435  001DD6  0900               	iorlw	0
  4436  001DD8  A4D8               	btfss	status,2,c
  4437  001DDA  EFF1  F00E         	goto	u2011
  4438  001DDE  EFF3  F00E         	goto	u2010
  4439  001DE2                     u2011:
  4440  001DE2  EFE9  F00E         	goto	l2435
  4441  001DE6                     u2010:
  4442  001DE6                     
  4443                           ;../ProjetoF_micro.X/nxlcd.c: 90:         WriteCmdXLCD(0x01);
  4444  001DE6  0E01               	movlw	1
  4445  001DE8  ECD0  F011         	call	_WriteCmdXLCD
  4446  001DEC                     l2439:
  4447  001DEC  EC6E  F011         	call	_BusyXLCD	;wreg free
  4448  001DF0  0900               	iorlw	0
  4449  001DF2  A4D8               	btfss	status,2,c
  4450  001DF4  EFFE  F00E         	goto	u2021
  4451  001DF8  EF00  F00F         	goto	u2020
  4452  001DFC                     u2021:
  4453  001DFC  EFF6  F00E         	goto	l2439
  4454  001E00                     u2020:
  4455  001E00                     
  4456                           ;../ProjetoF_micro.X/nxlcd.c: 94:         WriteCmdXLCD(0b00000100);
  4457  001E00  0E04               	movlw	4
  4458  001E02  ECD0  F011         	call	_WriteCmdXLCD
  4459  001E06                     l2443:
  4460  001E06  EC6E  F011         	call	_BusyXLCD	;wreg free
  4461  001E0A  0900               	iorlw	0
  4462  001E0C  A4D8               	btfss	status,2,c
  4463  001E0E  EF0B  F00F         	goto	u2031
  4464  001E12  EF0D  F00F         	goto	u2030
  4465  001E16                     u2031:
  4466  001E16  EF03  F00F         	goto	l2443
  4467  001E1A                     u2030:
  4468  001E1A                     
  4469                           ;../ProjetoF_micro.X/nxlcd.c: 98:         SetDDRamAddr(0x80);
  4470  001E1A  0E80               	movlw	128
  4471  001E1C  EC91  F011         	call	_SetDDRamAddr
  4472  001E20  0012               	return		;funcret
  4473  001E22                     __end_of_OpenXLCD:
  4474                           	callstack 0
  4475                           
  4476 ;; *************** function _WriteCmdXLCD *****************
  4477 ;; Defined at:
  4478 ;;		line 388 in file "../ProjetoF_micro.X/nxlcd.c"
  4479 ;; Parameters:    Size  Location     Type
  4480 ;;  cmd             1    wreg     unsigned char 
  4481 ;; Auto vars:     Size  Location     Type
  4482 ;;  cmd             1   29[COMRAM] unsigned char 
  4483 ;; Return value:  Size  Location     Type
  4484 ;;                  1    wreg      void 
  4485 ;; Registers used:
  4486 ;;		wreg, status,2, status,0, cstack
  4487 ;; Tracked objects:
  4488 ;;		On entry : 0/0
  4489 ;;		On exit  : 0/0
  4490 ;;		Unchanged: 0/0
  4491 ;; Data sizes:     COMRAM   BANK0   BANK1   BANK2   BANK3   BANK4   BANK5   BANK6   BANK7
  4492 ;;      Params:         0       0       0       0       0       0       0       0       0
  4493 ;;      Locals:         1       0       0       0       0       0       0       0       0
  4494 ;;      Temps:          0       0       0       0       0       0       0       0       0
  4495 ;;      Totals:         1       0       0       0       0       0       0       0       0
  4496 ;;Total ram usage:        1 bytes
  4497 ;; Hardware stack levels used: 1
  4498 ;; Hardware stack levels required when called: 3
  4499 ;; This function calls:
  4500 ;;		_DelayFor18TCY
  4501 ;; This function is called by:
  4502 ;;		_OpenXLCD
  4503 ;;		_main
  4504 ;;		_configureLCD
  4505 ;;		_displayStuff
  4506 ;; This function uses a non-reentrant model
  4507 ;;
  4508                           
  4509                           	psect	text17
  4510  0023A0                     __ptext17:
  4511                           	callstack 0
  4512  0023A0                     _WriteCmdXLCD:
  4513                           	callstack 26
  4514                           
  4515                           ;incstack = 0
  4516                           ;WriteCmdXLCD@cmd stored from wreg
  4517  0023A0  6E1E               	movwf	WriteCmdXLCD@cmd^0,c
  4518  0023A2                     
  4519                           ;../ProjetoF_micro.X/nxlcd.c: 388: void WriteCmdXLCD(unsigned char cmd);../ProjetoF_micr
      +                          o.X/nxlcd.c: 389: {;../ProjetoF_micro.X/nxlcd.c: 403:         TRISD &= 0x0f;
  4520  0023A2  0E0F               	movlw	15
  4521  0023A4  1695               	andwf	149,f,c	;volatile
  4522                           
  4523                           ;../ProjetoF_micro.X/nxlcd.c: 404:         PORTD &= 0x0f;
  4524  0023A6  0E0F               	movlw	15
  4525  0023A8  1683               	andwf	131,f,c	;volatile
  4526                           
  4527                           ;../ProjetoF_micro.X/nxlcd.c: 405:         PORTD |= cmd&0xf0;
  4528  0023AA  501E               	movf	WriteCmdXLCD@cmd^0,w,c
  4529  0023AC  0BF0               	andlw	240
  4530  0023AE  1283               	iorwf	131,f,c	;volatile
  4531  0023B0                     
  4532                           ;../ProjetoF_micro.X/nxlcd.c: 411:         LATEbits.LATE2 = 0;
  4533  0023B0  948D               	bcf	141,2,c	;volatile
  4534  0023B2                     
  4535                           ;../ProjetoF_micro.X/nxlcd.c: 412:         LATEbits.LATE0 = 0;
  4536  0023B2  908D               	bcf	141,0,c	;volatile
  4537  0023B4                     
  4538                           ;../ProjetoF_micro.X/nxlcd.c: 413:         DelayFor18TCY();
  4539  0023B4  EC28  F012         	call	_DelayFor18TCY	;wreg free
  4540  0023B8                     
  4541                           ;../ProjetoF_micro.X/nxlcd.c: 414:         LATEbits.LATE1 = 1;
  4542  0023B8  828D               	bsf	141,1,c	;volatile
  4543  0023BA                     
  4544                           ;../ProjetoF_micro.X/nxlcd.c: 415:         DelayFor18TCY();
  4545  0023BA  EC28  F012         	call	_DelayFor18TCY	;wreg free
  4546  0023BE                     
  4547                           ;../ProjetoF_micro.X/nxlcd.c: 416:         LATEbits.LATE1 = 0;
  4548  0023BE  928D               	bcf	141,1,c	;volatile
  4549                           
  4550                           ;../ProjetoF_micro.X/nxlcd.c: 418:         PORTD &= 0x0f;
  4551  0023C0  0E0F               	movlw	15
  4552  0023C2  1683               	andwf	131,f,c	;volatile
  4553                           
  4554                           ;../ProjetoF_micro.X/nxlcd.c: 419:         PORTD |= (cmd<<4)&0xf0;
  4555  0023C4  381E               	swapf	WriteCmdXLCD@cmd^0,w,c
  4556  0023C6  0BF0               	andlw	240
  4557  0023C8  0BF0               	andlw	240
  4558  0023CA  1283               	iorwf	131,f,c	;volatile
  4559  0023CC                     
  4560                           ;../ProjetoF_micro.X/nxlcd.c: 424:         DelayFor18TCY();
  4561  0023CC  EC28  F012         	call	_DelayFor18TCY	;wreg free
  4562  0023D0                     
  4563                           ;../ProjetoF_micro.X/nxlcd.c: 425:         LATEbits.LATE1 = 1;
  4564  0023D0  828D               	bsf	141,1,c	;volatile
  4565  0023D2                     
  4566                           ;../ProjetoF_micro.X/nxlcd.c: 426:         DelayFor18TCY();
  4567  0023D2  EC28  F012         	call	_DelayFor18TCY	;wreg free
  4568  0023D6                     
  4569                           ;../ProjetoF_micro.X/nxlcd.c: 427:         LATEbits.LATE1 = 0;
  4570  0023D6  928D               	bcf	141,1,c	;volatile
  4571                           
  4572                           ;../ProjetoF_micro.X/nxlcd.c: 429:         TRISD |= 0xf0;
  4573  0023D8  0EF0               	movlw	240
  4574  0023DA  1295               	iorwf	149,f,c	;volatile
  4575  0023DC  0012               	return		;funcret
  4576  0023DE                     __end_of_WriteCmdXLCD:
  4577                           	callstack 0
  4578                           
  4579 ;; *************** function _SetDDRamAddr *****************
  4580 ;; Defined at:
  4581 ;;		line 171 in file "../ProjetoF_micro.X/nxlcd.c"
  4582 ;; Parameters:    Size  Location     Type
  4583 ;;  DDaddr          1    wreg     unsigned char 
  4584 ;; Auto vars:     Size  Location     Type
  4585 ;;  DDaddr          1   29[COMRAM] unsigned char 
  4586 ;; Return value:  Size  Location     Type
  4587 ;;                  1    wreg      void 
  4588 ;; Registers used:
  4589 ;;		wreg, status,2, status,0, cstack
  4590 ;; Tracked objects:
  4591 ;;		On entry : 0/0
  4592 ;;		On exit  : 0/0
  4593 ;;		Unchanged: 0/0
  4594 ;; Data sizes:     COMRAM   BANK0   BANK1   BANK2   BANK3   BANK4   BANK5   BANK6   BANK7
  4595 ;;      Params:         0       0       0       0       0       0       0       0       0
  4596 ;;      Locals:         1       0       0       0       0       0       0       0       0
  4597 ;;      Temps:          0       0       0       0       0       0       0       0       0
  4598 ;;      Totals:         1       0       0       0       0       0       0       0       0
  4599 ;;Total ram usage:        1 bytes
  4600 ;; Hardware stack levels used: 1
  4601 ;; Hardware stack levels required when called: 3
  4602 ;; This function calls:
  4603 ;;		_DelayFor18TCY
  4604 ;; This function is called by:
  4605 ;;		_OpenXLCD
  4606 ;; This function uses a non-reentrant model
  4607 ;;
  4608                           
  4609                           	psect	text18
  4610  002322                     __ptext18:
  4611                           	callstack 0
  4612  002322                     _SetDDRamAddr:
  4613                           	callstack 25
  4614                           
  4615                           ;incstack = 0
  4616                           ;SetDDRamAddr@DDaddr stored from wreg
  4617  002322  6E1E               	movwf	SetDDRamAddr@DDaddr^0,c
  4618  002324                     
  4619                           ;../ProjetoF_micro.X/nxlcd.c: 171: void SetDDRamAddr(unsigned char DDaddr);../ProjetoF_m
      +                          icro.X/nxlcd.c: 172: {;../ProjetoF_micro.X/nxlcd.c: 186:         TRISD &= 0x0f;
  4620  002324  0E0F               	movlw	15
  4621  002326  1695               	andwf	149,f,c	;volatile
  4622                           
  4623                           ;../ProjetoF_micro.X/nxlcd.c: 187:         PORTD &= 0x0f;
  4624  002328  0E0F               	movlw	15
  4625  00232A  1683               	andwf	131,f,c	;volatile
  4626                           
  4627                           ;../ProjetoF_micro.X/nxlcd.c: 188:         PORTD |= ((DDaddr | 0b10000000) & 0xf0);
  4628  00232C  501E               	movf	SetDDRamAddr@DDaddr^0,w,c
  4629  00232E  0980               	iorlw	128
  4630  002330  0BF0               	andlw	240
  4631  002332  1283               	iorwf	131,f,c	;volatile
  4632  002334                     
  4633                           ;../ProjetoF_micro.X/nxlcd.c: 194:         LATEbits.LATE2 = 0;
  4634  002334  948D               	bcf	141,2,c	;volatile
  4635  002336                     
  4636                           ;../ProjetoF_micro.X/nxlcd.c: 195:         LATEbits.LATE0 = 0;
  4637  002336  908D               	bcf	141,0,c	;volatile
  4638  002338                     
  4639                           ;../ProjetoF_micro.X/nxlcd.c: 196:         DelayFor18TCY();
  4640  002338  EC28  F012         	call	_DelayFor18TCY	;wreg free
  4641  00233C                     
  4642                           ;../ProjetoF_micro.X/nxlcd.c: 197:         LATEbits.LATE1 = 1;
  4643  00233C  828D               	bsf	141,1,c	;volatile
  4644  00233E                     
  4645                           ;../ProjetoF_micro.X/nxlcd.c: 198:         DelayFor18TCY();
  4646  00233E  EC28  F012         	call	_DelayFor18TCY	;wreg free
  4647  002342                     
  4648                           ;../ProjetoF_micro.X/nxlcd.c: 199:         LATEbits.LATE1 = 0;
  4649  002342  928D               	bcf	141,1,c	;volatile
  4650                           
  4651                           ;../ProjetoF_micro.X/nxlcd.c: 201:         PORTD &= 0x0f;
  4652  002344  0E0F               	movlw	15
  4653  002346  1683               	andwf	131,f,c	;volatile
  4654                           
  4655                           ;../ProjetoF_micro.X/nxlcd.c: 202:         PORTD |= ((DDaddr<<4)&0xf0);
  4656  002348  381E               	swapf	SetDDRamAddr@DDaddr^0,w,c
  4657  00234A  0BF0               	andlw	240
  4658  00234C  0BF0               	andlw	240
  4659  00234E  1283               	iorwf	131,f,c	;volatile
  4660  002350                     
  4661                           ;../ProjetoF_micro.X/nxlcd.c: 207:         DelayFor18TCY();
  4662  002350  EC28  F012         	call	_DelayFor18TCY	;wreg free
  4663  002354                     
  4664                           ;../ProjetoF_micro.X/nxlcd.c: 208:         LATEbits.LATE1 = 1;
  4665  002354  828D               	bsf	141,1,c	;volatile
  4666  002356                     
  4667                           ;../ProjetoF_micro.X/nxlcd.c: 209:         DelayFor18TCY();
  4668  002356  EC28  F012         	call	_DelayFor18TCY	;wreg free
  4669  00235A                     
  4670                           ;../ProjetoF_micro.X/nxlcd.c: 210:         LATEbits.LATE1 = 0;
  4671  00235A  928D               	bcf	141,1,c	;volatile
  4672                           
  4673                           ;../ProjetoF_micro.X/nxlcd.c: 212:         TRISD |= 0xf0;
  4674  00235C  0EF0               	movlw	240
  4675  00235E  1295               	iorwf	149,f,c	;volatile
  4676  002360  0012               	return		;funcret
  4677  002362                     __end_of_SetDDRamAddr:
  4678                           	callstack 0
  4679                           
  4680 ;; *************** function _DelayXLCD *****************
  4681 ;; Defined at:
  4682 ;;		line 22 in file "../ProjetoF_micro.X/nxlcd.c"
  4683 ;; Parameters:    Size  Location     Type
  4684 ;;		None
  4685 ;; Auto vars:     Size  Location     Type
  4686 ;;		None
  4687 ;; Return value:  Size  Location     Type
  4688 ;;                  1    wreg      void 
  4689 ;; Registers used:
  4690 ;;		wreg
  4691 ;; Tracked objects:
  4692 ;;		On entry : 0/0
  4693 ;;		On exit  : 0/0
  4694 ;;		Unchanged: 0/0
  4695 ;; Data sizes:     COMRAM   BANK0   BANK1   BANK2   BANK3   BANK4   BANK5   BANK6   BANK7
  4696 ;;      Params:         0       0       0       0       0       0       0       0       0
  4697 ;;      Locals:         0       0       0       0       0       0       0       0       0
  4698 ;;      Temps:          1       0       0       0       0       0       0       0       0
  4699 ;;      Totals:         1       0       0       0       0       0       0       0       0
  4700 ;;Total ram usage:        1 bytes
  4701 ;; Hardware stack levels used: 1
  4702 ;; Hardware stack levels required when called: 2
  4703 ;; This function calls:
  4704 ;;		Nothing
  4705 ;; This function is called by:
  4706 ;;		_OpenXLCD
  4707 ;; This function uses a non-reentrant model
  4708 ;;
  4709                           
  4710                           	psect	text19
  4711  0023F2                     __ptext19:
  4712                           	callstack 0
  4713  0023F2                     _DelayXLCD:
  4714                           	callstack 26
  4715  0023F2                     
  4716                           ;../ProjetoF_micro.X/nxlcd.c: 24:     _delay((unsigned long)((5)*(20000000/4000.0)));
  4717  0023F2  0E21               	movlw	33
  4718  0023F4  6E1E               	movwf	??_DelayXLCD^0,c
  4719  0023F6  0E76               	movlw	118
  4720  0023F8                     u3387:
  4721  0023F8  2EE8               	decfsz	wreg,f,c
  4722  0023FA  D7FE               	bra	u3387
  4723  0023FC  2E1E               	decfsz	??_DelayXLCD^0,f,c
  4724  0023FE  D7FC               	bra	u3387
  4725  002400  D000               	nop2	
  4726  002402  0012               	return		;funcret
  4727  002404                     __end_of_DelayXLCD:
  4728                           	callstack 0
  4729                           
  4730 ;; *************** function _DelayPORXLCD *****************
  4731 ;; Defined at:
  4732 ;;		line 17 in file "../ProjetoF_micro.X/nxlcd.c"
  4733 ;; Parameters:    Size  Location     Type
  4734 ;;		None
  4735 ;; Auto vars:     Size  Location     Type
  4736 ;;		None
  4737 ;; Return value:  Size  Location     Type
  4738 ;;                  1    wreg      void 
  4739 ;; Registers used:
  4740 ;;		wreg
  4741 ;; Tracked objects:
  4742 ;;		On entry : 0/0
  4743 ;;		On exit  : 0/0
  4744 ;;		Unchanged: 0/0
  4745 ;; Data sizes:     COMRAM   BANK0   BANK1   BANK2   BANK3   BANK4   BANK5   BANK6   BANK7
  4746 ;;      Params:         0       0       0       0       0       0       0       0       0
  4747 ;;      Locals:         0       0       0       0       0       0       0       0       0
  4748 ;;      Temps:          1       0       0       0       0       0       0       0       0
  4749 ;;      Totals:         1       0       0       0       0       0       0       0       0
  4750 ;;Total ram usage:        1 bytes
  4751 ;; Hardware stack levels used: 1
  4752 ;; Hardware stack levels required when called: 2
  4753 ;; This function calls:
  4754 ;;		Nothing
  4755 ;; This function is called by:
  4756 ;;		_OpenXLCD
  4757 ;; This function uses a non-reentrant model
  4758 ;;
  4759                           
  4760                           	psect	text20
  4761  002414                     __ptext20:
  4762                           	callstack 0
  4763  002414                     _DelayPORXLCD:
  4764                           	callstack 26
  4765  002414                     
  4766                           ;../ProjetoF_micro.X/nxlcd.c: 19:     _delay((unsigned long)((15)*(20000000/4000.0)));
  4767  002414  0E62               	movlw	98
  4768  002416  6E1E               	movwf	??_DelayPORXLCD^0,c
  4769  002418  0E66               	movlw	102
  4770  00241A                     u3397:
  4771  00241A  2EE8               	decfsz	wreg,f,c
  4772  00241C  D7FE               	bra	u3397
  4773  00241E  2E1E               	decfsz	??_DelayPORXLCD^0,f,c
  4774  002420  D7FC               	bra	u3397
  4775  002422  0012               	return		;funcret
  4776  002424                     __end_of_DelayPORXLCD:
  4777                           	callstack 0
  4778                           
  4779 ;; *************** function _BusyXLCD *****************
  4780 ;; Defined at:
  4781 ;;		line 227 in file "../ProjetoF_micro.X/nxlcd.c"
  4782 ;; Parameters:    Size  Location     Type
  4783 ;;		None
  4784 ;; Auto vars:     Size  Location     Type
  4785 ;;		None
  4786 ;; Return value:  Size  Location     Type
  4787 ;;                  1    wreg      unsigned char 
  4788 ;; Registers used:
  4789 ;;		wreg, cstack
  4790 ;; Tracked objects:
  4791 ;;		On entry : 0/0
  4792 ;;		On exit  : 0/0
  4793 ;;		Unchanged: 0/0
  4794 ;; Data sizes:     COMRAM   BANK0   BANK1   BANK2   BANK3   BANK4   BANK5   BANK6   BANK7
  4795 ;;      Params:         0       0       0       0       0       0       0       0       0
  4796 ;;      Locals:         0       0       0       0       0       0       0       0       0
  4797 ;;      Temps:          0       0       0       0       0       0       0       0       0
  4798 ;;      Totals:         0       0       0       0       0       0       0       0       0
  4799 ;;Total ram usage:        0 bytes
  4800 ;; Hardware stack levels used: 1
  4801 ;; Hardware stack levels required when called: 3
  4802 ;; This function calls:
  4803 ;;		_DelayFor18TCY
  4804 ;; This function is called by:
  4805 ;;		_OpenXLCD
  4806 ;;		_putsXLCD
  4807 ;;		_putrsXLCD
  4808 ;; This function uses a non-reentrant model
  4809 ;;
  4810                           
  4811                           	psect	text21
  4812  0022DC                     __ptext21:
  4813                           	callstack 0
  4814  0022DC                     _BusyXLCD:
  4815                           	callstack 26
  4816  0022DC                     
  4817                           ;../ProjetoF_micro.X/nxlcd.c: 229:         LATEbits.LATE2 = 1;
  4818  0022DC  848D               	bsf	141,2,c	;volatile
  4819                           
  4820                           ;../ProjetoF_micro.X/nxlcd.c: 230:         LATEbits.LATE0 = 0;
  4821  0022DE  908D               	bcf	141,0,c	;volatile
  4822  0022E0                     
  4823                           ;../ProjetoF_micro.X/nxlcd.c: 231:         DelayFor18TCY();
  4824  0022E0  EC28  F012         	call	_DelayFor18TCY	;wreg free
  4825  0022E4                     
  4826                           ;../ProjetoF_micro.X/nxlcd.c: 232:         LATEbits.LATE1 = 1;
  4827  0022E4  828D               	bsf	141,1,c	;volatile
  4828                           
  4829                           ;../ProjetoF_micro.X/nxlcd.c: 233:         DelayFor18TCY();
  4830  0022E6  EC28  F012         	call	_DelayFor18TCY	;wreg free
  4831  0022EA                     
  4832                           ;../ProjetoF_micro.X/nxlcd.c: 249:         if(PORTD&0x80)
  4833  0022EA  AE83               	btfss	131,7,c	;volatile
  4834  0022EC  EF7A  F011         	goto	u1571
  4835  0022F0  EF7C  F011         	goto	u1570
  4836  0022F4                     u1571:
  4837  0022F4  EF87  F011         	goto	l58
  4838  0022F8                     u1570:
  4839  0022F8                     
  4840                           ;../ProjetoF_micro.X/nxlcd.c: 253:         {;../ProjetoF_micro.X/nxlcd.c: 254:          
      +                                 LATEbits.LATE1 = 0;
  4841  0022F8  928D               	bcf	141,1,c	;volatile
  4842  0022FA                     
  4843                           ;../ProjetoF_micro.X/nxlcd.c: 255:                 DelayFor18TCY();
  4844  0022FA  EC28  F012         	call	_DelayFor18TCY	;wreg free
  4845  0022FE                     
  4846                           ;../ProjetoF_micro.X/nxlcd.c: 256:                 LATEbits.LATE1 = 1;
  4847  0022FE  828D               	bsf	141,1,c	;volatile
  4848                           
  4849                           ;../ProjetoF_micro.X/nxlcd.c: 257:                 DelayFor18TCY();
  4850  002300  EC28  F012         	call	_DelayFor18TCY	;wreg free
  4851  002304                     
  4852                           ;../ProjetoF_micro.X/nxlcd.c: 258:                 LATEbits.LATE1 = 0;
  4853  002304  928D               	bcf	141,1,c	;volatile
  4854  002306                     
  4855                           ;../ProjetoF_micro.X/nxlcd.c: 259:                 LATEbits.LATE2 = 0;
  4856  002306  948D               	bcf	141,2,c	;volatile
  4857  002308                     
  4858                           ;../ProjetoF_micro.X/nxlcd.c: 260:                 return 1;
  4859  002308  0E01               	movlw	1
  4860  00230A  EF90  F011         	goto	l59
  4861  00230E                     l58:
  4862                           
  4863                           ;../ProjetoF_micro.X/nxlcd.c: 263:         {;../ProjetoF_micro.X/nxlcd.c: 264:          
      +                                 LATEbits.LATE1 = 0;
  4864  00230E  928D               	bcf	141,1,c	;volatile
  4865  002310                     
  4866                           ;../ProjetoF_micro.X/nxlcd.c: 265:                 DelayFor18TCY();
  4867  002310  EC28  F012         	call	_DelayFor18TCY	;wreg free
  4868  002314                     
  4869                           ;../ProjetoF_micro.X/nxlcd.c: 266:                 LATEbits.LATE1 = 1;
  4870  002314  828D               	bsf	141,1,c	;volatile
  4871                           
  4872                           ;../ProjetoF_micro.X/nxlcd.c: 267:                 DelayFor18TCY();
  4873  002316  EC28  F012         	call	_DelayFor18TCY	;wreg free
  4874  00231A                     
  4875                           ;../ProjetoF_micro.X/nxlcd.c: 268:                 LATEbits.LATE1 = 0;
  4876  00231A  928D               	bcf	141,1,c	;volatile
  4877  00231C                     
  4878                           ;../ProjetoF_micro.X/nxlcd.c: 269:                 LATEbits.LATE2 = 0;
  4879  00231C  948D               	bcf	141,2,c	;volatile
  4880  00231E                     
  4881                           ;../ProjetoF_micro.X/nxlcd.c: 270:                 return 0;
  4882  00231E  0E00               	movlw	0
  4883  002320                     l59:
  4884  002320  0012               	return		;funcret
  4885  002322                     __end_of_BusyXLCD:
  4886                           	callstack 0
  4887                           
  4888 ;; *************** function _DelayFor18TCY *****************
  4889 ;; Defined at:
  4890 ;;		line 12 in file "../ProjetoF_micro.X/nxlcd.c"
  4891 ;; Parameters:    Size  Location     Type
  4892 ;;		None
  4893 ;; Auto vars:     Size  Location     Type
  4894 ;;		None
  4895 ;; Return value:  Size  Location     Type
  4896 ;;                  1    wreg      void 
  4897 ;; Registers used:
  4898 ;;		wreg
  4899 ;; Tracked objects:
  4900 ;;		On entry : 0/0
  4901 ;;		On exit  : 0/0
  4902 ;;		Unchanged: 0/0
  4903 ;; Data sizes:     COMRAM   BANK0   BANK1   BANK2   BANK3   BANK4   BANK5   BANK6   BANK7
  4904 ;;      Params:         0       0       0       0       0       0       0       0       0
  4905 ;;      Locals:         0       0       0       0       0       0       0       0       0
  4906 ;;      Temps:          0       0       0       0       0       0       0       0       0
  4907 ;;      Totals:         0       0       0       0       0       0       0       0       0
  4908 ;;Total ram usage:        0 bytes
  4909 ;; Hardware stack levels used: 1
  4910 ;; Hardware stack levels required when called: 2
  4911 ;; This function calls:
  4912 ;;		Nothing
  4913 ;; This function is called by:
  4914 ;;		_SetDDRamAddr
  4915 ;;		_BusyXLCD
  4916 ;;		_WriteCmdXLCD
  4917 ;;		_WriteDataXLCD
  4918 ;;		_SetCGRamAddr
  4919 ;;		_ReadAddrXLCD
  4920 ;;		_ReadDataXLCD
  4921 ;; This function uses a non-reentrant model
  4922 ;;
  4923                           
  4924                           	psect	text22
  4925  002450                     __ptext22:
  4926                           	callstack 0
  4927  002450                     _DelayFor18TCY:
  4928                           	callstack 26
  4929  002450                     
  4930                           ;../ProjetoF_micro.X/nxlcd.c: 14:     _delay((unsigned long)((20)*(20000000/4000000.0)))
      +                          ;
  4931  002450  0E21               	movlw	33
  4932  002452                     u3407:
  4933  002452  2EE8               	decfsz	wreg,f,c
  4934  002454  D7FE               	bra	u3407
  4935  002456  F000               	nop	
  4936  002458  0012               	return		;funcret
  4937  00245A                     __end_of_DelayFor18TCY:
  4938                           	callstack 0
  4939                           
  4940 ;; *************** function _configureInterrupt *****************
  4941 ;; Defined at:
  4942 ;;		line 237 in file "../ProjetoF_micro.X/main.c"
  4943 ;; Parameters:    Size  Location     Type
  4944 ;;		None
  4945 ;; Auto vars:     Size  Location     Type
  4946 ;;		None
  4947 ;; Return value:  Size  Location     Type
  4948 ;;                  1    wreg      void 
  4949 ;; Registers used:
  4950 ;;		None
  4951 ;; Tracked objects:
  4952 ;;		On entry : 0/0
  4953 ;;		On exit  : 0/0
  4954 ;;		Unchanged: 0/0
  4955 ;; Data sizes:     COMRAM   BANK0   BANK1   BANK2   BANK3   BANK4   BANK5   BANK6   BANK7
  4956 ;;      Params:         0       0       0       0       0       0       0       0       0
  4957 ;;      Locals:         0       0       0       0       0       0       0       0       0
  4958 ;;      Temps:          0       0       0       0       0       0       0       0       0
  4959 ;;      Totals:         0       0       0       0       0       0       0       0       0
  4960 ;;Total ram usage:        0 bytes
  4961 ;; Hardware stack levels used: 1
  4962 ;; Hardware stack levels required when called: 2
  4963 ;; This function calls:
  4964 ;;		Nothing
  4965 ;; This function is called by:
  4966 ;;		_main
  4967 ;; This function uses a non-reentrant model
  4968 ;;
  4969                           
  4970                           	psect	text23
  4971  0023DE                     __ptext23:
  4972                           	callstack 0
  4973  0023DE                     _configureInterrupt:
  4974                           	callstack 28
  4975  0023DE                     
  4976                           ;../ProjetoF_micro.X/main.c: 240:     RCONbits.IPEN = 1;
  4977  0023DE  8ED0               	bsf	208,7,c	;volatile
  4978                           
  4979                           ;../ProjetoF_micro.X/main.c: 241:     INTCONbits.GIE = 1;
  4980  0023E0  8EF2               	bsf	242,7,c	;volatile
  4981                           
  4982                           ;../ProjetoF_micro.X/main.c: 242:     INTCONbits.PEIE = 1;
  4983  0023E2  8CF2               	bsf	242,6,c	;volatile
  4984                           
  4985                           ;../ProjetoF_micro.X/main.c: 244:     INTCON2bits.TMR0IP = 1;
  4986  0023E4  84F1               	bsf	241,2,c	;volatile
  4987                           
  4988                           ;../ProjetoF_micro.X/main.c: 245:     INTCONbits.TMR0IE = 1;
  4989  0023E6  8AF2               	bsf	242,5,c	;volatile
  4990                           
  4991                           ;../ProjetoF_micro.X/main.c: 246:     INTCONbits.TMR0IF = 0;
  4992  0023E8  94F2               	bcf	242,2,c	;volatile
  4993                           
  4994                           ;../ProjetoF_micro.X/main.c: 248:     INTCON2bits.RBIP = 0;
  4995  0023EA  90F1               	bcf	241,0,c	;volatile
  4996                           
  4997                           ;../ProjetoF_micro.X/main.c: 249:     INTCONbits.RBIE = 1;
  4998  0023EC  86F2               	bsf	242,3,c	;volatile
  4999                           
  5000                           ;../ProjetoF_micro.X/main.c: 250:     INTCONbits.RBIF = 0;
  5001  0023EE  90F2               	bcf	242,0,c	;volatile
  5002  0023F0  0012               	return		;funcret
  5003  0023F2                     __end_of_configureInterrupt:
  5004                           	callstack 0
  5005                           
  5006 ;; *************** function _configureIO *****************
  5007 ;; Defined at:
  5008 ;;		line 211 in file "../ProjetoF_micro.X/main.c"
  5009 ;; Parameters:    Size  Location     Type
  5010 ;;		None
  5011 ;; Auto vars:     Size  Location     Type
  5012 ;;		None
  5013 ;; Return value:  Size  Location     Type
  5014 ;;                  1    wreg      void 
  5015 ;; Registers used:
  5016 ;;		wreg, status,2
  5017 ;; Tracked objects:
  5018 ;;		On entry : 0/0
  5019 ;;		On exit  : 0/0
  5020 ;;		Unchanged: 0/0
  5021 ;; Data sizes:     COMRAM   BANK0   BANK1   BANK2   BANK3   BANK4   BANK5   BANK6   BANK7
  5022 ;;      Params:         0       0       0       0       0       0       0       0       0
  5023 ;;      Locals:         0       0       0       0       0       0       0       0       0
  5024 ;;      Temps:          0       0       0       0       0       0       0       0       0
  5025 ;;      Totals:         0       0       0       0       0       0       0       0       0
  5026 ;;Total ram usage:        0 bytes
  5027 ;; Hardware stack levels used: 1
  5028 ;; Hardware stack levels required when called: 2
  5029 ;; This function calls:
  5030 ;;		Nothing
  5031 ;; This function is called by:
  5032 ;;		_main
  5033 ;; This function uses a non-reentrant model
  5034 ;;
  5035                           
  5036                           	psect	text24
  5037  002424                     __ptext24:
  5038                           	callstack 0
  5039  002424                     _configureIO:
  5040                           	callstack 28
  5041  002424                     
  5042                           ;../ProjetoF_micro.X/main.c: 212:     TRISB = 0xF0;
  5043  002424  0EF0               	movlw	240
  5044  002426  6E93               	movwf	147,c	;volatile
  5045  002428                     
  5046                           ;../ProjetoF_micro.X/main.c: 213:     TRISAbits.RA3 = 1;
  5047  002428  8692               	bsf	146,3,c	;volatile
  5048  00242A                     
  5049                           ;../ProjetoF_micro.X/main.c: 214:     TRISDbits.TRISD0 = 0;
  5050  00242A  9095               	bcf	149,0,c	;volatile
  5051  00242C                     
  5052                           ;../ProjetoF_micro.X/main.c: 215:     TRISDbits.TRISD1 = 0;
  5053  00242C  9295               	bcf	149,1,c	;volatile
  5054  00242E                     
  5055                           ;../ProjetoF_micro.X/main.c: 216:     PORTDbits.RD0 = 0;
  5056  00242E  9083               	bcf	131,0,c	;volatile
  5057  002430                     
  5058                           ;../ProjetoF_micro.X/main.c: 217:     PORTDbits.RD1 = 0;
  5059  002430  9283               	bcf	131,1,c	;volatile
  5060  002432  0012               	return		;funcret
  5061  002434                     __end_of_configureIO:
  5062                           	callstack 0
  5063                           
  5064 ;; *************** function _configureADC *****************
  5065 ;; Defined at:
  5066 ;;		line 222 in file "../ProjetoF_micro.X/main.c"
  5067 ;; Parameters:    Size  Location     Type
  5068 ;;		None
  5069 ;; Auto vars:     Size  Location     Type
  5070 ;;		None
  5071 ;; Return value:  Size  Location     Type
  5072 ;;                  1    wreg      void 
  5073 ;; Registers used:
  5074 ;;		wreg, status,2
  5075 ;; Tracked objects:
  5076 ;;		On entry : 0/0
  5077 ;;		On exit  : 0/0
  5078 ;;		Unchanged: 0/0
  5079 ;; Data sizes:     COMRAM   BANK0   BANK1   BANK2   BANK3   BANK4   BANK5   BANK6   BANK7
  5080 ;;      Params:         0       0       0       0       0       0       0       0       0
  5081 ;;      Locals:         0       0       0       0       0       0       0       0       0
  5082 ;;      Temps:          0       0       0       0       0       0       0       0       0
  5083 ;;      Totals:         0       0       0       0       0       0       0       0       0
  5084 ;;Total ram usage:        0 bytes
  5085 ;; Hardware stack levels used: 1
  5086 ;; Hardware stack levels required when called: 2
  5087 ;; This function calls:
  5088 ;;		Nothing
  5089 ;; This function is called by:
  5090 ;;		_main
  5091 ;; This function uses a non-reentrant model
  5092 ;;
  5093                           
  5094                           	psect	text25
  5095  002442                     __ptext25:
  5096                           	callstack 0
  5097  002442                     _configureADC:
  5098                           	callstack 28
  5099  002442                     
  5100                           ;../ProjetoF_micro.X/main.c: 223:     ADCON1 = 0b00001011;
  5101  002442  0E0B               	movlw	11
  5102  002444  6EC1               	movwf	193,c	;volatile
  5103                           
  5104                           ;../ProjetoF_micro.X/main.c: 224:     ADCON0 = 0b00001101;
  5105  002446  0E0D               	movlw	13
  5106  002448  6EC2               	movwf	194,c	;volatile
  5107                           
  5108                           ;../ProjetoF_micro.X/main.c: 225:     ADCON2 = 0b10010101;
  5109  00244A  0E95               	movlw	149
  5110  00244C  6EC0               	movwf	192,c	;volatile
  5111  00244E  0012               	return		;funcret
  5112  002450                     __end_of_configureADC:
  5113                           	callstack 0
  5114                           
  5115 ;; *************** function ___lwmod *****************
  5116 ;; Defined at:
  5117 ;;		line 7 in file "C:\Program Files\Microchip\xc8\v2.32\pic\sources\c99\common\lwmod.c"
  5118 ;; Parameters:    Size  Location     Type
  5119 ;;  dividend        2   29[COMRAM] unsigned int 
  5120 ;;  divisor         2   31[COMRAM] unsigned int 
  5121 ;; Auto vars:     Size  Location     Type
  5122 ;;  counter         1   33[COMRAM] unsigned char 
  5123 ;; Return value:  Size  Location     Type
  5124 ;;                  2   29[COMRAM] unsigned int 
  5125 ;; Registers used:
  5126 ;;		wreg, status,2, status,0
  5127 ;; Tracked objects:
  5128 ;;		On entry : 0/0
  5129 ;;		On exit  : 0/0
  5130 ;;		Unchanged: 0/0
  5131 ;; Data sizes:     COMRAM   BANK0   BANK1   BANK2   BANK3   BANK4   BANK5   BANK6   BANK7
  5132 ;;      Params:         4       0       0       0       0       0       0       0       0
  5133 ;;      Locals:         1       0       0       0       0       0       0       0       0
  5134 ;;      Temps:          0       0       0       0       0       0       0       0       0
  5135 ;;      Totals:         5       0       0       0       0       0       0       0       0
  5136 ;;Total ram usage:        5 bytes
  5137 ;; Hardware stack levels used: 1
  5138 ;; Hardware stack levels required when called: 2
  5139 ;; This function calls:
  5140 ;;		Nothing
  5141 ;; This function is called by:
  5142 ;;		_main
  5143 ;; This function uses a non-reentrant model
  5144 ;;
  5145                           
  5146                           	psect	text26
  5147  0021DC                     __ptext26:
  5148                           	callstack 0
  5149  0021DC                     ___lwmod:
  5150                           	callstack 28
  5151  0021DC  5020               	movf	___lwmod@divisor^0,w,c
  5152  0021DE  1021               	iorwf	(___lwmod@divisor+1)^0,w,c
  5153  0021E0  B4D8               	btfsc	status,2,c
  5154  0021E2  EFF5  F010         	goto	u2941
  5155  0021E6  EFF7  F010         	goto	u2940
  5156  0021EA                     u2941:
  5157  0021EA  EF1B  F011         	goto	l729
  5158  0021EE                     u2940:
  5159  0021EE  0E01               	movlw	1
  5160  0021F0  6E22               	movwf	___lwmod@counter^0,c
  5161  0021F2  EFFF  F010         	goto	l3039
  5162  0021F6                     l3037:
  5163  0021F6  90D8               	bcf	status,0,c
  5164  0021F8  3620               	rlcf	___lwmod@divisor^0,f,c
  5165  0021FA  3621               	rlcf	(___lwmod@divisor+1)^0,f,c
  5166  0021FC  2A22               	incf	___lwmod@counter^0,f,c
  5167  0021FE                     l3039:
  5168  0021FE  AE21               	btfss	(___lwmod@divisor+1)^0,7,c
  5169  002200  EF04  F011         	goto	u2951
  5170  002204  EF06  F011         	goto	u2950
  5171  002208                     u2951:
  5172  002208  EFFB  F010         	goto	l3037
  5173  00220C                     u2950:
  5174  00220C                     l3041:
  5175  00220C  5020               	movf	___lwmod@divisor^0,w,c
  5176  00220E  5C1E               	subwf	___lwmod@dividend^0,w,c
  5177  002210  5021               	movf	(___lwmod@divisor+1)^0,w,c
  5178  002212  581F               	subwfb	(___lwmod@dividend+1)^0,w,c
  5179  002214  A0D8               	btfss	status,0,c
  5180  002216  EF0F  F011         	goto	u2961
  5181  00221A  EF11  F011         	goto	u2960
  5182  00221E                     u2961:
  5183  00221E  EF15  F011         	goto	l3045
  5184  002222                     u2960:
  5185  002222  5020               	movf	___lwmod@divisor^0,w,c
  5186  002224  5E1E               	subwf	___lwmod@dividend^0,f,c
  5187  002226  5021               	movf	(___lwmod@divisor+1)^0,w,c
  5188  002228  5A1F               	subwfb	(___lwmod@dividend+1)^0,f,c
  5189  00222A                     l3045:
  5190  00222A  90D8               	bcf	status,0,c
  5191  00222C  3221               	rrcf	(___lwmod@divisor+1)^0,f,c
  5192  00222E  3220               	rrcf	___lwmod@divisor^0,f,c
  5193  002230  2E22               	decfsz	___lwmod@counter^0,f,c
  5194  002232  EF06  F011         	goto	l3041
  5195  002236                     l729:
  5196  002236  C01E  F01E         	movff	___lwmod@dividend,?___lwmod
  5197  00223A  C01F  F01F         	movff	___lwmod@dividend+1,?___lwmod+1
  5198  00223E  0012               	return		;funcret
  5199  002240                     __end_of___lwmod:
  5200                           	callstack 0
  5201                           
  5202 ;; *************** function ___lwdiv *****************
  5203 ;; Defined at:
  5204 ;;		line 7 in file "C:\Program Files\Microchip\xc8\v2.32\pic\sources\c99\common\lwdiv.c"
  5205 ;; Parameters:    Size  Location     Type
  5206 ;;  dividend        2   29[COMRAM] unsigned int 
  5207 ;;  divisor         2   31[COMRAM] unsigned int 
  5208 ;; Auto vars:     Size  Location     Type
  5209 ;;  quotient        2   33[COMRAM] unsigned int 
  5210 ;;  counter         1   35[COMRAM] unsigned char 
  5211 ;; Return value:  Size  Location     Type
  5212 ;;                  2   29[COMRAM] unsigned int 
  5213 ;; Registers used:
  5214 ;;		wreg, status,2, status,0
  5215 ;; Tracked objects:
  5216 ;;		On entry : 0/0
  5217 ;;		On exit  : 0/0
  5218 ;;		Unchanged: 0/0
  5219 ;; Data sizes:     COMRAM   BANK0   BANK1   BANK2   BANK3   BANK4   BANK5   BANK6   BANK7
  5220 ;;      Params:         4       0       0       0       0       0       0       0       0
  5221 ;;      Locals:         3       0       0       0       0       0       0       0       0
  5222 ;;      Temps:          0       0       0       0       0       0       0       0       0
  5223 ;;      Totals:         7       0       0       0       0       0       0       0       0
  5224 ;;Total ram usage:        7 bytes
  5225 ;; Hardware stack levels used: 1
  5226 ;; Hardware stack levels required when called: 2
  5227 ;; This function calls:
  5228 ;;		Nothing
  5229 ;; This function is called by:
  5230 ;;		_main
  5231 ;; This function uses a non-reentrant model
  5232 ;;
  5233                           
  5234                           	psect	text27
  5235  0020F6                     __ptext27:
  5236                           	callstack 0
  5237  0020F6                     ___lwdiv:
  5238                           	callstack 28
  5239  0020F6  0E00               	movlw	0
  5240  0020F8  6E23               	movwf	(___lwdiv@quotient+1)^0,c
  5241  0020FA  0E00               	movlw	0
  5242  0020FC  6E22               	movwf	___lwdiv@quotient^0,c
  5243  0020FE  5020               	movf	___lwdiv@divisor^0,w,c
  5244  002100  1021               	iorwf	(___lwdiv@divisor+1)^0,w,c
  5245  002102  B4D8               	btfsc	status,2,c
  5246  002104  EF86  F010         	goto	u2911
  5247  002108  EF88  F010         	goto	u2910
  5248  00210C                     u2911:
  5249  00210C  EFB0  F010         	goto	l719
  5250  002110                     u2910:
  5251  002110  0E01               	movlw	1
  5252  002112  6E24               	movwf	___lwdiv@counter^0,c
  5253  002114  EF90  F010         	goto	l3019
  5254  002118                     l3017:
  5255  002118  90D8               	bcf	status,0,c
  5256  00211A  3620               	rlcf	___lwdiv@divisor^0,f,c
  5257  00211C  3621               	rlcf	(___lwdiv@divisor+1)^0,f,c
  5258  00211E  2A24               	incf	___lwdiv@counter^0,f,c
  5259  002120                     l3019:
  5260  002120  AE21               	btfss	(___lwdiv@divisor+1)^0,7,c
  5261  002122  EF95  F010         	goto	u2921
  5262  002126  EF97  F010         	goto	u2920
  5263  00212A                     u2921:
  5264  00212A  EF8C  F010         	goto	l3017
  5265  00212E                     u2920:
  5266  00212E                     l3021:
  5267  00212E  90D8               	bcf	status,0,c
  5268  002130  3622               	rlcf	___lwdiv@quotient^0,f,c
  5269  002132  3623               	rlcf	(___lwdiv@quotient+1)^0,f,c
  5270  002134  5020               	movf	___lwdiv@divisor^0,w,c
  5271  002136  5C1E               	subwf	___lwdiv@dividend^0,w,c
  5272  002138  5021               	movf	(___lwdiv@divisor+1)^0,w,c
  5273  00213A  581F               	subwfb	(___lwdiv@dividend+1)^0,w,c
  5274  00213C  A0D8               	btfss	status,0,c
  5275  00213E  EFA3  F010         	goto	u2931
  5276  002142  EFA5  F010         	goto	u2930
  5277  002146                     u2931:
  5278  002146  EFAA  F010         	goto	l3029
  5279  00214A                     u2930:
  5280  00214A  5020               	movf	___lwdiv@divisor^0,w,c
  5281  00214C  5E1E               	subwf	___lwdiv@dividend^0,f,c
  5282  00214E  5021               	movf	(___lwdiv@divisor+1)^0,w,c
  5283  002150  5A1F               	subwfb	(___lwdiv@dividend+1)^0,f,c
  5284  002152  8022               	bsf	___lwdiv@quotient^0,0,c
  5285  002154                     l3029:
  5286  002154  90D8               	bcf	status,0,c
  5287  002156  3221               	rrcf	(___lwdiv@divisor+1)^0,f,c
  5288  002158  3220               	rrcf	___lwdiv@divisor^0,f,c
  5289  00215A  2E24               	decfsz	___lwdiv@counter^0,f,c
  5290  00215C  EF97  F010         	goto	l3021
  5291  002160                     l719:
  5292  002160  C022  F01E         	movff	___lwdiv@quotient,?___lwdiv
  5293  002164  C023  F01F         	movff	___lwdiv@quotient+1,?___lwdiv+1
  5294  002168  0012               	return		;funcret
  5295  00216A                     __end_of___lwdiv:
  5296                           	callstack 0
  5297                           
  5298 ;; *************** function ___flge *****************
  5299 ;; Defined at:
  5300 ;;		line 4 in file "C:\Program Files\Microchip\xc8\v2.32\pic\sources\c99\common\flge.c"
  5301 ;; Parameters:    Size  Location     Type
  5302 ;;  ff1             4   29[COMRAM] unsigned int 
  5303 ;;  ff2             4   33[COMRAM] unsigned int 
  5304 ;; Auto vars:     Size  Location     Type
  5305 ;;		None
  5306 ;; Return value:  Size  Location     Type
  5307 ;;		None               void
  5308 ;; Registers used:
  5309 ;;		wreg, status,2, status,0
  5310 ;; Tracked objects:
  5311 ;;		On entry : 0/0
  5312 ;;		On exit  : 0/0
  5313 ;;		Unchanged: 0/0
  5314 ;; Data sizes:     COMRAM   BANK0   BANK1   BANK2   BANK3   BANK4   BANK5   BANK6   BANK7
  5315 ;;      Params:         8       0       0       0       0       0       0       0       0
  5316 ;;      Locals:         0       0       0       0       0       0       0       0       0
  5317 ;;      Temps:          4       0       0       0       0       0       0       0       0
  5318 ;;      Totals:        12       0       0       0       0       0       0       0       0
  5319 ;;Total ram usage:       12 bytes
  5320 ;; Hardware stack levels used: 1
  5321 ;; Hardware stack levels required when called: 2
  5322 ;; This function calls:
  5323 ;;		Nothing
  5324 ;; This function is called by:
  5325 ;;		_main
  5326 ;; This function uses a non-reentrant model
  5327 ;;
  5328                           
  5329                           	psect	text28
  5330  001B34                     __ptext28:
  5331                           	callstack 0
  5332  001B34                     ___flge:
  5333                           	callstack 28
  5334  001B34  0E00               	movlw	0
  5335  001B36  141E               	andwf	___flge@ff1^0,w,c
  5336  001B38  6E26               	movwf	??___flge^0,c
  5337  001B3A  0E00               	movlw	0
  5338  001B3C  141F               	andwf	(___flge@ff1+1)^0,w,c
  5339  001B3E  6E27               	movwf	(??___flge+1)^0,c
  5340  001B40  0E80               	movlw	128
  5341  001B42  1420               	andwf	(___flge@ff1+2)^0,w,c
  5342  001B44  6E28               	movwf	(??___flge+2)^0,c
  5343  001B46  0E7F               	movlw	127
  5344  001B48  1421               	andwf	(___flge@ff1+3)^0,w,c
  5345  001B4A  6E29               	movwf	(??___flge+3)^0,c
  5346  001B4C  5026               	movf	??___flge^0,w,c
  5347  001B4E  1027               	iorwf	(??___flge+1)^0,w,c
  5348  001B50  1028               	iorwf	(??___flge+2)^0,w,c
  5349  001B52  1029               	iorwf	(??___flge+3)^0,w,c
  5350  001B54  A4D8               	btfss	status,2,c
  5351  001B56  EFAF  F00D         	goto	u2861
  5352  001B5A  EFB1  F00D         	goto	u2860
  5353  001B5E                     u2861:
  5354  001B5E  EFB9  F00D         	goto	l2993
  5355  001B62                     u2860:
  5356  001B62  0E00               	movlw	0
  5357  001B64  6E1E               	movwf	___flge@ff1^0,c
  5358  001B66  0E00               	movlw	0
  5359  001B68  6E1F               	movwf	(___flge@ff1+1)^0,c
  5360  001B6A  0E00               	movlw	0
  5361  001B6C  6E20               	movwf	(___flge@ff1+2)^0,c
  5362  001B6E  0E00               	movlw	0
  5363  001B70  6E21               	movwf	(___flge@ff1+3)^0,c
  5364  001B72                     l2993:
  5365  001B72  0E00               	movlw	0
  5366  001B74  1422               	andwf	___flge@ff2^0,w,c
  5367  001B76  6E26               	movwf	??___flge^0,c
  5368  001B78  0E00               	movlw	0
  5369  001B7A  1423               	andwf	(___flge@ff2+1)^0,w,c
  5370  001B7C  6E27               	movwf	(??___flge+1)^0,c
  5371  001B7E  0E80               	movlw	128
  5372  001B80  1424               	andwf	(___flge@ff2+2)^0,w,c
  5373  001B82  6E28               	movwf	(??___flge+2)^0,c
  5374  001B84  0E7F               	movlw	127
  5375  001B86  1425               	andwf	(___flge@ff2+3)^0,w,c
  5376  001B88  6E29               	movwf	(??___flge+3)^0,c
  5377  001B8A  5026               	movf	??___flge^0,w,c
  5378  001B8C  1027               	iorwf	(??___flge+1)^0,w,c
  5379  001B8E  1028               	iorwf	(??___flge+2)^0,w,c
  5380  001B90  1029               	iorwf	(??___flge+3)^0,w,c
  5381  001B92  A4D8               	btfss	status,2,c
  5382  001B94  EFCE  F00D         	goto	u2871
  5383  001B98  EFD0  F00D         	goto	u2870
  5384  001B9C                     u2871:
  5385  001B9C  EFD8  F00D         	goto	l2997
  5386  001BA0                     u2870:
  5387  001BA0  0E00               	movlw	0
  5388  001BA2  6E22               	movwf	___flge@ff2^0,c
  5389  001BA4  0E00               	movlw	0
  5390  001BA6  6E23               	movwf	(___flge@ff2+1)^0,c
  5391  001BA8  0E00               	movlw	0
  5392  001BAA  6E24               	movwf	(___flge@ff2+2)^0,c
  5393  001BAC  0E00               	movlw	0
  5394  001BAE  6E25               	movwf	(___flge@ff2+3)^0,c
  5395  001BB0                     l2997:
  5396  001BB0  AE21               	btfss	(___flge@ff1+3)^0,7,c
  5397  001BB2  EFDD  F00D         	goto	u2881
  5398  001BB6  EFDF  F00D         	goto	u2880
  5399  001BBA                     u2881:
  5400  001BBA  EFE8  F00D         	goto	l3001
  5401  001BBE                     u2880:
  5402  001BBE  6C1E               	negf	___flge@ff1^0,c
  5403  001BC0  1E1F               	comf	(___flge@ff1+1)^0,f,c
  5404  001BC2  B0D8               	btfsc	status,0,c
  5405  001BC4  2A1F               	incf	(___flge@ff1+1)^0,f,c
  5406  001BC6  1E20               	comf	(___flge@ff1+2)^0,f,c
  5407  001BC8  B0D8               	btfsc	status,0,c
  5408  001BCA  2A20               	incf	(___flge@ff1+2)^0,f,c
  5409  001BCC  0E80               	movlw	128
  5410  001BCE  5621               	subfwb	(___flge@ff1+3)^0,f,c
  5411  001BD0                     l3001:
  5412  001BD0  AE25               	btfss	(___flge@ff2+3)^0,7,c
  5413  001BD2  EFED  F00D         	goto	u2891
  5414  001BD6  EFEF  F00D         	goto	u2890
  5415  001BDA                     u2891:
  5416  001BDA  EFF8  F00D         	goto	l493
  5417  001BDE                     u2890:
  5418  001BDE  6C22               	negf	___flge@ff2^0,c
  5419  001BE0  1E23               	comf	(___flge@ff2+1)^0,f,c
  5420  001BE2  B0D8               	btfsc	status,0,c
  5421  001BE4  2A23               	incf	(___flge@ff2+1)^0,f,c
  5422  001BE6  1E24               	comf	(___flge@ff2+2)^0,f,c
  5423  001BE8  B0D8               	btfsc	status,0,c
  5424  001BEA  2A24               	incf	(___flge@ff2+2)^0,f,c
  5425  001BEC  0E80               	movlw	128
  5426  001BEE  5625               	subfwb	(___flge@ff2+3)^0,f,c
  5427  001BF0                     l493:
  5428  001BF0  0E00               	movlw	0
  5429  001BF2  1A1E               	xorwf	___flge@ff1^0,f,c
  5430  001BF4  0E00               	movlw	0
  5431  001BF6  1A1F               	xorwf	(___flge@ff1+1)^0,f,c
  5432  001BF8  0E00               	movlw	0
  5433  001BFA  1A20               	xorwf	(___flge@ff1+2)^0,f,c
  5434  001BFC  0E80               	movlw	128
  5435  001BFE  1A21               	xorwf	(___flge@ff1+3)^0,f,c
  5436  001C00  0E00               	movlw	0
  5437  001C02  1A22               	xorwf	___flge@ff2^0,f,c
  5438  001C04  0E00               	movlw	0
  5439  001C06  1A23               	xorwf	(___flge@ff2+1)^0,f,c
  5440  001C08  0E00               	movlw	0
  5441  001C0A  1A24               	xorwf	(___flge@ff2+2)^0,f,c
  5442  001C0C  0E80               	movlw	128
  5443  001C0E  1A25               	xorwf	(___flge@ff2+3)^0,f,c
  5444  001C10  5022               	movf	___flge@ff2^0,w,c
  5445  001C12  5C1E               	subwf	___flge@ff1^0,w,c
  5446  001C14  5023               	movf	(___flge@ff2+1)^0,w,c
  5447  001C16  581F               	subwfb	(___flge@ff1+1)^0,w,c
  5448  001C18  5024               	movf	(___flge@ff2+2)^0,w,c
  5449  001C1A  5820               	subwfb	(___flge@ff1+2)^0,w,c
  5450  001C1C  5025               	movf	(___flge@ff2+3)^0,w,c
  5451  001C1E  5821               	subwfb	(___flge@ff1+3)^0,w,c
  5452  001C20  B0D8               	btfsc	status,0,c
  5453  001C22  EF15  F00E         	goto	u2901
  5454  001C26  EF17  F00E         	goto	u2900
  5455  001C2A                     u2901:
  5456  001C2A  EF1A  F00E         	goto	l3007
  5457  001C2E                     u2900:
  5458  001C2E  90D8               	bcf	status,0,c
  5459  001C30  EF1B  F00E         	goto	l498
  5460  001C34                     l3007:
  5461  001C34  80D8               	bsf	status,0,c
  5462  001C36                     l498:
  5463  001C36  0012               	return		;funcret
  5464  001C38                     __end_of___flge:
  5465                           	callstack 0
  5466                           
  5467 ;; *************** function _ISR *****************
  5468 ;; Defined at:
  5469 ;;		line 180 in file "../ProjetoF_micro.X/main.c"
  5470 ;; Parameters:    Size  Location     Type
  5471 ;;		None
  5472 ;; Auto vars:     Size  Location     Type
  5473 ;;  tecla           1   28[COMRAM] unsigned char 
  5474 ;; Return value:  Size  Location     Type
  5475 ;;                  1    wreg      void 
  5476 ;; Registers used:
  5477 ;;		wreg, fsr2l, fsr2h, status,2, status,0, tblptrl, tblptrh, tblptru, cstack
  5478 ;; Tracked objects:
  5479 ;;		On entry : 0/0
  5480 ;;		On exit  : 0/0
  5481 ;;		Unchanged: 0/0
  5482 ;; Data sizes:     COMRAM   BANK0   BANK1   BANK2   BANK3   BANK4   BANK5   BANK6   BANK7
  5483 ;;      Params:         0       0       0       0       0       0       0       0       0
  5484 ;;      Locals:         1       0       0       0       0       0       0       0       0
  5485 ;;      Temps:         10       0       0       0       0       0       0       0       0
  5486 ;;      Totals:        11       0       0       0       0       0       0       0       0
  5487 ;;Total ram usage:       11 bytes
  5488 ;; Hardware stack levels used: 1
  5489 ;; Hardware stack levels required when called: 1
  5490 ;; This function calls:
  5491 ;;		i2_readKey
  5492 ;; This function is called by:
  5493 ;;		Interrupt level 2
  5494 ;; This function uses a non-reentrant model
  5495 ;;
  5496                           
  5497                           	psect	intcode
  5498  000008                     __pintcode:
  5499                           	callstack 0
  5500  000008                     _ISR:
  5501                           	callstack 25
  5502                           
  5503                           ;incstack = 0
  5504  000008  8242               	bsf	int$flags,1,c	;set compiler interrupt flag (level 2)
  5505  00000A  ED11  F00F         	call	int_func,f	;refresh shadow registers
  5506                           
  5507                           	psect	intcode_body
  5508  001E22                     __pintcode_body:
  5509                           	callstack 25
  5510  001E22                     int_func:
  5511                           	callstack 25
  5512  001E22  0006               	pop		; remove dummy address from shadow register refresh
  5513  001E24  CFD9 F017          	movff	fsr2l,??_ISR+4
  5514  001E28  CFDA F018          	movff	fsr2h,??_ISR+5
  5515  001E2C  CFF6 F019          	movff	tblptrl,??_ISR+6
  5516  001E30  CFF7 F01A          	movff	tblptrh,??_ISR+7
  5517  001E34  CFF8 F01B          	movff	tblptru,??_ISR+8
  5518  001E38  CFF5 F01C          	movff	tablat,??_ISR+9
  5519  001E3C                     
  5520                           ;../ProjetoF_micro.X/main.c: 182:     if (INTCONbits.TMR0IF) {
  5521  001E3C  A4F2               	btfss	242,2,c	;volatile
  5522  001E3E  EF23  F00F         	goto	i2u309_41
  5523  001E42  EF25  F00F         	goto	i2u309_40
  5524  001E46                     i2u309_41:
  5525  001E46  EF40  F00F         	goto	i2l3239
  5526  001E4A                     i2u309_40:
  5527  001E4A                     
  5528                           ;../ProjetoF_micro.X/main.c: 183:         static unsigned int tik = 0;;../ProjetoF_micro
      +                          .X/main.c: 186:         TMR0H = 0xC2;
  5529  001E4A  0EC2               	movlw	194
  5530  001E4C  6ED7               	movwf	215,c	;volatile
  5531                           
  5532                           ;../ProjetoF_micro.X/main.c: 187:         TMR0L = 0xF7;
  5533  001E4E  0EF7               	movlw	247
  5534  001E50  6ED6               	movwf	214,c	;volatile
  5535  001E52                     
  5536                           ;../ProjetoF_micro.X/main.c: 189:         tik++;
  5537  001E52  4A3A               	infsnz	ISR@tik^0,f,c
  5538  001E54  2A3B               	incf	(ISR@tik+1)^0,f,c
  5539  001E56                     
  5540                           ;../ProjetoF_micro.X/main.c: 190:         if (tik >= 10) {
  5541  001E56  503B               	movf	(ISR@tik+1)^0,w,c
  5542  001E58  E109               	bnz	i2u310_40
  5543  001E5A  0E0A               	movlw	10
  5544  001E5C  5C3A               	subwf	ISR@tik^0,w,c
  5545  001E5E  A0D8               	btfss	status,0,c
  5546  001E60  EF34  F00F         	goto	i2u310_41
  5547  001E64  EF36  F00F         	goto	i2u310_40
  5548  001E68                     i2u310_41:
  5549  001E68  EF3F  F00F         	goto	i2l3237
  5550  001E6C                     i2u310_40:
  5551  001E6C                     
  5552                           ;../ProjetoF_micro.X/main.c: 191:             tik = 0;
  5553  001E6C  0E00               	movlw	0
  5554  001E6E  6E3B               	movwf	(ISR@tik+1)^0,c
  5555  001E70  0E00               	movlw	0
  5556  001E72  6E3A               	movwf	ISR@tik^0,c
  5557                           
  5558                           ;../ProjetoF_micro.X/main.c: 192:             tak=1;
  5559  001E74  0E00               	movlw	0
  5560  001E76  0100               	movlb	0	; () banked
  5561  001E78  6F9C               	movwf	(_tak+1)& (0+255),b
  5562  001E7A  0E01               	movlw	1
  5563  001E7C  6F9B               	movwf	_tak& (0+255),b
  5564  001E7E                     i2l3237:
  5565                           
  5566                           ;../ProjetoF_micro.X/main.c: 194:         INTCONbits.TMR0IF = 0;
  5567  001E7E  94F2               	bcf	242,2,c	;volatile
  5568  001E80                     i2l3239:
  5569                           
  5570                           ;../ProjetoF_micro.X/main.c: 198:     if (INTCONbits.RBIF) {
  5571  001E80  A0F2               	btfss	242,0,c	;volatile
  5572  001E82  EF45  F00F         	goto	i2u311_41
  5573  001E86  EF47  F00F         	goto	i2u311_40
  5574  001E8A                     i2u311_41:
  5575  001E8A  EF68  F00F         	goto	i2l189
  5576  001E8E                     i2u311_40:
  5577  001E8E                     
  5578                           ;../ProjetoF_micro.X/main.c: 200:         char tecla = readKey();
  5579  001E8E  EC81  F00C         	call	i2_readKey	;wreg free
  5580  001E92  6E1D               	movwf	ISR@tecla^0,c
  5581  001E94                     
  5582                           ;../ProjetoF_micro.X/main.c: 201:         if((tecla-'0')<10 && (tecla-'0') >=0){
  5583  001E94  0ED0               	movlw	208
  5584  001E96  6E13               	movwf	??_ISR^0,c
  5585  001E98  0EFF               	movlw	255
  5586  001E9A  6E14               	movwf	(??_ISR+1)^0,c
  5587  001E9C  501D               	movf	ISR@tecla^0,w,c
  5588  001E9E  6E15               	movwf	(??_ISR+2)^0,c
  5589  001EA0  6A16               	clrf	(??_ISR+3)^0,c
  5590  001EA2  5013               	movf	??_ISR^0,w,c
  5591  001EA4  2615               	addwf	(??_ISR+2)^0,f,c
  5592  001EA6  5014               	movf	(??_ISR+1)^0,w,c
  5593  001EA8  2216               	addwfc	(??_ISR+3)^0,f,c
  5594  001EAA  5016               	movf	(??_ISR+3)^0,w,c
  5595  001EAC  E107               	bnz	i2u312_41
  5596  001EAE  0E0A               	movlw	10
  5597  001EB0  5C15               	subwf	(??_ISR+2)^0,w,c
  5598  001EB2  B0D8               	btfsc	status,0,c
  5599  001EB4  EF5E  F00F         	goto	i2u312_41
  5600  001EB8  EF60  F00F         	goto	i2u312_40
  5601  001EBC                     i2u312_41:
  5602  001EBC  EF67  F00F         	goto	i2l3247
  5603  001EC0                     i2u312_40:
  5604  001EC0                     
  5605                           ;../ProjetoF_micro.X/main.c: 202:             tempuu = tecla-'0';
  5606  001EC0  0ED0               	movlw	208
  5607  001EC2  241D               	addwf	ISR@tecla^0,w,c
  5608  001EC4  0100               	movlb	0	; () banked
  5609  001EC6  6FA0               	movwf	_tempuu& (0+255),b	;volatile
  5610  001EC8  6BA1               	clrf	(_tempuu+1)& (0+255),b	;volatile
  5611  001ECA  0EFF               	movlw	255
  5612  001ECC  23A1               	addwfc	(_tempuu+1)& (0+255),f,b	;volatile
  5613  001ECE                     i2l3247:
  5614                           
  5615                           ;../ProjetoF_micro.X/main.c: 204:         INTCONbits.RBIF = 0;
  5616  001ECE  90F2               	bcf	242,0,c	;volatile
  5617  001ED0                     i2l189:
  5618  001ED0  C01C  FFF5         	movff	??_ISR+9,tablat
  5619  001ED4  C01B  FFF8         	movff	??_ISR+8,tblptru
  5620  001ED8  C01A  FFF7         	movff	??_ISR+7,tblptrh
  5621  001EDC  C019  FFF6         	movff	??_ISR+6,tblptrl
  5622  001EE0  C018  FFDA         	movff	??_ISR+5,fsr2h
  5623  001EE4  C017  FFD9         	movff	??_ISR+4,fsr2l
  5624  001EE8  9242               	bcf	int$flags,1,c	;clear compiler interrupt flag (level 2)
  5625  001EEA  0011               	retfie		f
  5626  001EEC                     __end_of_ISR:
  5627                           	callstack 0
  5628                           
  5629 ;; *************** function i2_readKey *****************
  5630 ;; Defined at:
  5631 ;;		line 269 in file "../ProjetoF_micro.X/main.c"
  5632 ;; Parameters:    Size  Location     Type
  5633 ;;		None
  5634 ;; Auto vars:     Size  Location     Type
  5635 ;;  InvCol          8    6[COMRAM] const int [4]
  5636 ;;  row             2   16[COMRAM] int 
  5637 ;;  col             2   14[COMRAM] int 
  5638 ;; Return value:  Size  Location     Type
  5639 ;;                  1    wreg      unsigned char 
  5640 ;; Registers used:
  5641 ;;		wreg, fsr2l, fsr2h, status,2, status,0, tblptrl, tblptrh, tblptru
  5642 ;; Tracked objects:
  5643 ;;		On entry : 0/0
  5644 ;;		On exit  : 0/0
  5645 ;;		Unchanged: 0/0
  5646 ;; Data sizes:     COMRAM   BANK0   BANK1   BANK2   BANK3   BANK4   BANK5   BANK6   BANK7
  5647 ;;      Params:         0       0       0       0       0       0       0       0       0
  5648 ;;      Locals:        12       0       0       0       0       0       0       0       0
  5649 ;;      Temps:          6       0       0       0       0       0       0       0       0
  5650 ;;      Totals:        18       0       0       0       0       0       0       0       0
  5651 ;;Total ram usage:       18 bytes
  5652 ;; Hardware stack levels used: 1
  5653 ;; This function calls:
  5654 ;;		Nothing
  5655 ;; This function is called by:
  5656 ;;		_ISR
  5657 ;; This function uses a non-reentrant model
  5658 ;;
  5659                           
  5660                           	psect	text30
  5661  001902                     __ptext30:
  5662                           	callstack 0
  5663  001902                     i2_readKey:
  5664                           	callstack 25
  5665  001902                     
  5666                           ;../ProjetoF_micro.X/main.c: 270:     static char currentKey;;../ProjetoF_micro.X/main.c
      +                          : 271:     const int InvCol[4] = {3, 2, 1, 0};
  5667  001902  0E11               	movlw	low readKey@F3244
  5668  001904  6EF6               	movwf	tblptrl,c
  5669  001906                     	if	1	;There is more than 1 active tblptr byte
  5670  001906  0E08               	movlw	high readKey@F3244
  5671  001908  6EF7               	movwf	tblptrh,c
  5672  00190A                     	endif
  5673  00190A                     	if	0	;There are less than 3 active tblptr bytes
  5674  00190A                     	endif
  5675  00190A  EE20  F007         	lfsr	2,i2readKey@InvCol
  5676  00190E  0E07               	movlw	7
  5677  001910                     i2u297_40:
  5678  001910  0009               	tblrd		*+
  5679  001912  CFF5 FFDE          	movff	tablat,postinc2
  5680  001916  06E8               	decf	wreg,f,c
  5681  001918  E2FB               	bc	i2u297_40
  5682  00191A                     
  5683                           ;../ProjetoF_micro.X/main.c: 273:     for (int col = 0; col < 4; col++) {
  5684  00191A  0E00               	movlw	0
  5685  00191C  6E10               	movwf	(i2readKey@col+1)^0,c
  5686  00191E  0E00               	movlw	0
  5687  001920  6E0F               	movwf	i2readKey@col^0,c
  5688  001922                     i2l3053:
  5689  001922  BE10               	btfsc	(i2readKey@col+1)^0,7,c
  5690  001924  EF9D  F00C         	goto	i2u298_41
  5691  001928  5010               	movf	(i2readKey@col+1)^0,w,c
  5692  00192A  E109               	bnz	i2u298_40
  5693  00192C  0E04               	movlw	4
  5694  00192E  5C0F               	subwf	i2readKey@col^0,w,c
  5695  001930  A0D8               	btfss	status,0,c
  5696  001932  EF9D  F00C         	goto	i2u298_41
  5697  001936  EF9F  F00C         	goto	i2u298_40
  5698  00193A                     i2u298_41:
  5699  00193A  EFA1  F00C         	goto	i2l3057
  5700  00193E                     i2u298_40:
  5701  00193E  EFFE  F00C         	goto	i2l3071
  5702  001942                     i2l3057:
  5703                           
  5704                           ;../ProjetoF_micro.X/main.c: 274:         LATB = ~(1 << col);
  5705  001942  C00F  F001         	movff	i2readKey@col,??i2_readKey
  5706  001946  0E01               	movlw	1
  5707  001948  6E02               	movwf	(??i2_readKey+1)^0,c
  5708  00194A  2A01               	incf	??i2_readKey^0,f,c
  5709  00194C  EFAA  F00C         	goto	i2u299_44
  5710  001950                     i2u299_45:
  5711  001950  90D8               	bcf	status,0,c
  5712  001952  3602               	rlcf	(??i2_readKey+1)^0,f,c
  5713  001954                     i2u299_44:
  5714  001954  2E01               	decfsz	??i2_readKey^0,f,c
  5715  001956  EFA8  F00C         	goto	i2u299_45
  5716  00195A  5002               	movf	(??i2_readKey+1)^0,w,c
  5717  00195C  0AFF               	xorlw	255
  5718  00195E  6E8A               	movwf	138,c	;volatile
  5719  001960                     
  5720                           ;../ProjetoF_micro.X/main.c: 278:         _delay((unsigned long)((5)*(20000000/4000.0)))
      +                          ;
  5721  001960  0E21               	movlw	33
  5722  001962  6E01               	movwf	??i2_readKey^0,c
  5723  001964  0E76               	movlw	118
  5724  001966                     i2u341_47:
  5725  001966  2EE8               	decfsz	wreg,f,c
  5726  001968  D7FE               	bra	i2u341_47
  5727  00196A  2E01               	decfsz	??i2_readKey^0,f,c
  5728  00196C  D7FC               	bra	i2u341_47
  5729  00196E  D000               	nop2	
  5730  001970                     
  5731                           ;../ProjetoF_micro.X/main.c: 280:         for (int row = 0; row < 4; row++) {
  5732  001970  0E00               	movlw	0
  5733  001972  6E12               	movwf	(i2readKey@row+1)^0,c
  5734  001974  0E00               	movlw	0
  5735  001976  6E11               	movwf	i2readKey@row^0,c
  5736  001978                     i2l3067:
  5737                           
  5738                           ;../ProjetoF_micro.X/main.c: 281:             if (!(PORTB & (1 << (row + 4)))) {
  5739  001978  C011  F001         	movff	i2readKey@row,??i2_readKey
  5740  00197C  0E04               	movlw	4
  5741  00197E  2601               	addwf	??i2_readKey^0,f,c
  5742  001980  0E01               	movlw	1
  5743  001982  6E02               	movwf	(??i2_readKey+1)^0,c
  5744  001984  2A01               	incf	??i2_readKey^0,f,c
  5745  001986  EFC7  F00C         	goto	i2u300_44
  5746  00198A                     i2u300_45:
  5747  00198A  90D8               	bcf	status,0,c
  5748  00198C  3602               	rlcf	(??i2_readKey+1)^0,f,c
  5749  00198E                     i2u300_44:
  5750  00198E  2E01               	decfsz	??i2_readKey^0,f,c
  5751  001990  EFC5  F00C         	goto	i2u300_45
  5752  001994  5002               	movf	(??i2_readKey+1)^0,w,c
  5753  001996  1481               	andwf	129,w,c	;volatile
  5754  001998  0900               	iorlw	0
  5755  00199A  A4D8               	btfss	status,2,c
  5756  00199C  EFD2  F00C         	goto	i2u301_41
  5757  0019A0  EFD4  F00C         	goto	i2u301_40
  5758  0019A4                     i2u301_41:
  5759  0019A4  EF01  F00D         	goto	i2l3075
  5760  0019A8                     i2u301_40:
  5761  0019A8                     
  5762                           ;../ProjetoF_micro.X/main.c: 282:                 currentKey = keymap[row][InvCol[col]];
  5763  0019A8  90D8               	bcf	status,0,c
  5764  0019AA  340F               	rlcf	i2readKey@col^0,w,c
  5765  0019AC  6ED9               	movwf	fsr2l,c
  5766  0019AE  3410               	rlcf	(i2readKey@col+1)^0,w,c
  5767  0019B0  6EDA               	movwf	fsr2h,c
  5768  0019B2  0E07               	movlw	low i2readKey@InvCol
  5769  0019B4  26D9               	addwf	fsr2l,f,c
  5770  0019B6  0E00               	movlw	high i2readKey@InvCol
  5771  0019B8  22DA               	addwfc	fsr2h,f,c
  5772  0019BA  CFDE F001          	movff	postinc2,??i2_readKey
  5773  0019BE  CFDD F002          	movff	postdec2,??i2_readKey+1
  5774  0019C2  C011  F003         	movff	i2readKey@row,??i2_readKey+2
  5775  0019C6  C012  F004         	movff	i2readKey@row+1,??i2_readKey+3
  5776  0019CA  90D8               	bcf	status,0,c
  5777  0019CC  3603               	rlcf	(??i2_readKey+2)^0,f,c
  5778  0019CE  3604               	rlcf	(??i2_readKey+3)^0,f,c
  5779  0019D0  90D8               	bcf	status,0,c
  5780  0019D2  3603               	rlcf	(??i2_readKey+2)^0,f,c
  5781  0019D4  3604               	rlcf	(??i2_readKey+3)^0,f,c
  5782  0019D6  0E01               	movlw	low _keymap
  5783  0019D8  6E05               	movwf	(??i2_readKey+4)^0,c
  5784  0019DA  0E08               	movlw	high _keymap
  5785  0019DC  6E06               	movwf	(??i2_readKey+5)^0,c
  5786  0019DE  5003               	movf	(??i2_readKey+2)^0,w,c
  5787  0019E0  2605               	addwf	(??i2_readKey+4)^0,f,c
  5788  0019E2  5004               	movf	(??i2_readKey+3)^0,w,c
  5789  0019E4  2206               	addwfc	(??i2_readKey+5)^0,f,c
  5790  0019E6  5001               	movf	??i2_readKey^0,w,c
  5791  0019E8  2605               	addwf	(??i2_readKey+4)^0,f,c
  5792  0019EA  5002               	movf	(??i2_readKey+1)^0,w,c
  5793  0019EC  2206               	addwfc	(??i2_readKey+5)^0,f,c
  5794  0019EE  C005  FFF6         	movff	??i2_readKey+4,tblptrl
  5795  0019F2  C006  FFF7         	movff	??i2_readKey+5,tblptrh
  5796  0019F6                     	if	0	;tblptru may be non-zero
  5797  0019F6                     	endif
  5798  0019F6                     	if	0	;tblptru may be non-zero
  5799  0019F6                     	endif
  5800  0019F6  0008               	tblrd		*
  5801  0019F8  CFF5 F03E          	movff	tablat,readKey@currentKey
  5802  0019FC                     i2l3071:
  5803                           
  5804                           ;../ProjetoF_micro.X/main.c: 283:                 return currentKey;
  5805  0019FC  503E               	movf	readKey@currentKey^0,w,c
  5806  0019FE  EF15  F00D         	goto	i2l216
  5807  001A02                     i2l3075:
  5808                           
  5809                           ;../ProjetoF_micro.X/main.c: 285:         }
  5810  001A02  4A11               	infsnz	i2readKey@row^0,f,c
  5811  001A04  2A12               	incf	(i2readKey@row+1)^0,f,c
  5812  001A06  BE12               	btfsc	(i2readKey@row+1)^0,7,c
  5813  001A08  EF0F  F00D         	goto	i2u302_41
  5814  001A0C  5012               	movf	(i2readKey@row+1)^0,w,c
  5815  001A0E  E109               	bnz	i2u302_40
  5816  001A10  0E04               	movlw	4
  5817  001A12  5C11               	subwf	i2readKey@row^0,w,c
  5818  001A14  A0D8               	btfss	status,0,c
  5819  001A16  EF0F  F00D         	goto	i2u302_41
  5820  001A1A  EF11  F00D         	goto	i2u302_40
  5821  001A1E                     i2u302_41:
  5822  001A1E  EFBC  F00C         	goto	i2l3067
  5823  001A22                     i2u302_40:
  5824  001A22                     
  5825                           ;../ProjetoF_micro.X/main.c: 286:     }
  5826  001A22  4A0F               	infsnz	i2readKey@col^0,f,c
  5827  001A24  2A10               	incf	(i2readKey@col+1)^0,f,c
  5828  001A26  EF91  F00C         	goto	i2l3053
  5829  001A2A                     i2l216:
  5830  001A2A  0012               	return		;funcret
  5831  001A2C                     __end_ofi2_readKey:
  5832                           	callstack 0
  5833                           
  5834                           	psect	rparam
  5835  0000                     
  5836                           	psect	temp
  5837  000042                     btemp:
  5838                           	callstack 0
  5839  000042                     	ds	1
  5840  0000                     int$flags	set	btemp
  5841  0000                     wtemp8	set	btemp+1
  5842  0000                     ttemp5	set	btemp+1
  5843  0000                     ttemp6	set	btemp+4
  5844  0000                     ttemp7	set	btemp+8
  5845                           
  5846                           	psect	idloc
  5847                           
  5848                           ;Config register IDLOC0 @ 0x200000
  5849                           ;	unspecified, using default values
  5850  200000                     	org	2097152
  5851  200000  FF                 	db	255
  5852                           
  5853                           ;Config register IDLOC1 @ 0x200001
  5854                           ;	unspecified, using default values
  5855  200001                     	org	2097153
  5856  200001  FF                 	db	255
  5857                           
  5858                           ;Config register IDLOC2 @ 0x200002
  5859                           ;	unspecified, using default values
  5860  200002                     	org	2097154
  5861  200002  FF                 	db	255
  5862                           
  5863                           ;Config register IDLOC3 @ 0x200003
  5864                           ;	unspecified, using default values
  5865  200003                     	org	2097155
  5866  200003  FF                 	db	255
  5867                           
  5868                           ;Config register IDLOC4 @ 0x200004
  5869                           ;	unspecified, using default values
  5870  200004                     	org	2097156
  5871  200004  FF                 	db	255
  5872                           
  5873                           ;Config register IDLOC5 @ 0x200005
  5874                           ;	unspecified, using default values
  5875  200005                     	org	2097157
  5876  200005  FF                 	db	255
  5877                           
  5878                           ;Config register IDLOC6 @ 0x200006
  5879                           ;	unspecified, using default values
  5880  200006                     	org	2097158
  5881  200006  FF                 	db	255
  5882                           
  5883                           ;Config register IDLOC7 @ 0x200007
  5884                           ;	unspecified, using default values
  5885  200007                     	org	2097159
  5886  200007  FF                 	db	255
  5887                           
  5888                           	psect	config
  5889                           
  5890                           ;Config register CONFIG1L @ 0x300000
  5891                           ;	PLL Prescaler Selection bits
  5892                           ;	PLLDIV = 1, No prescale (4 MHz oscillator input drives PLL directly)
  5893                           ;	System Clock Postscaler Selection bits
  5894                           ;	CPUDIV = OSC1_PLL2, [Primary Oscillator Src: /1][96 MHz PLL Src: /2]
  5895                           ;	USB Clock Selection bit (used in Full-Speed USB mode only; UCFG:FSEN = 1)
  5896                           ;	USBDIV = 1, USB clock source comes directly from the primary oscillator block with no 
      +                          postscale
  5897  300000                     	org	3145728
  5898  300000  00                 	db	0
  5899                           
  5900                           ;Config register CONFIG1H @ 0x300001
  5901                           ;	Oscillator Selection bits
  5902                           ;	FOSC = HS, HS oscillator (HS)
  5903                           ;	Fail-Safe Clock Monitor Enable bit
  5904                           ;	FCMEN = OFF, Fail-Safe Clock Monitor disabled
  5905                           ;	Internal/External Oscillator Switchover bit
  5906                           ;	IESO = OFF, Oscillator Switchover mode disabled
  5907  300001                     	org	3145729
  5908  300001  0C                 	db	12
  5909                           
  5910                           ;Config register CONFIG2L @ 0x300002
  5911                           ;	Power-up Timer Enable bit
  5912                           ;	PWRT = OFF, PWRT disabled
  5913                           ;	Brown-out Reset Enable bits
  5914                           ;	BOR = OFF, Brown-out Reset disabled in hardware and software
  5915                           ;	Brown-out Reset Voltage bits
  5916                           ;	BORV = 3, Minimum setting 2.05V
  5917                           ;	USB Voltage Regulator Enable bit
  5918                           ;	VREGEN = OFF, USB voltage regulator disabled
  5919  300002                     	org	3145730
  5920  300002  19                 	db	25
  5921                           
  5922                           ;Config register CONFIG2H @ 0x300003
  5923                           ;	Watchdog Timer Enable bit
  5924                           ;	WDT = OFF, WDT disabled (control is placed on the SWDTEN bit)
  5925                           ;	Watchdog Timer Postscale Select bits
  5926                           ;	WDTPS = 32768, 1:32768
  5927  300003                     	org	3145731
  5928  300003  1E                 	db	30
  5929                           
  5930                           ; Padding undefined space
  5931  300004                     	org	3145732
  5932  300004  FF                 	db	255
  5933                           
  5934                           ;Config register CONFIG3H @ 0x300005
  5935                           ;	CCP2 MUX bit
  5936                           ;	CCP2MX = OFF, CCP2 input/output is multiplexed with RB3
  5937                           ;	PORTB A/D Enable bit
  5938                           ;	PBADEN = OFF, PORTB<4:0> pins are configured as digital I/O on Reset
  5939                           ;	Low-Power Timer 1 Oscillator Enable bit
  5940                           ;	LPT1OSC = OFF, Timer1 configured for higher power operation
  5941                           ;	MCLR Pin Enable bit
  5942                           ;	MCLRE = ON, MCLR pin enabled; RE3 input pin disabled
  5943  300005                     	org	3145733
  5944  300005  80                 	db	128
  5945                           
  5946                           ;Config register CONFIG4L @ 0x300006
  5947                           ;	Stack Full/Underflow Reset Enable bit
  5948                           ;	STVREN = OFF, Stack full/underflow will not cause Reset
  5949                           ;	Single-Supply ICSP Enable bit
  5950                           ;	LVP = OFF, Single-Supply ICSP disabled
  5951                           ;	Dedicated In-Circuit Debug/Programming Port (ICPORT) Enable bit
  5952                           ;	ICPRT = OFF, ICPORT disabled
  5953                           ;	Extended Instruction Set Enable bit
  5954                           ;	XINST = OFF, Instruction set extension and Indexed Addressing mode disabled (Legacy mo
      +                          de)
  5955                           ;	Background Debugger Enable bit
  5956                           ;	DEBUG = 0x1, unprogrammed default
  5957  300006                     	org	3145734
  5958  300006  80                 	db	128
  5959                           
  5960                           ; Padding undefined space
  5961  300007                     	org	3145735
  5962  300007  FF                 	db	255
  5963                           
  5964                           ;Config register CONFIG5L @ 0x300008
  5965                           ;	Code Protection bit
  5966                           ;	CP0 = OFF, Block 0 (000800-001FFFh) is not code-protected
  5967                           ;	Code Protection bit
  5968                           ;	CP1 = OFF, Block 1 (002000-003FFFh) is not code-protected
  5969                           ;	Code Protection bit
  5970                           ;	CP2 = OFF, Block 2 (004000-005FFFh) is not code-protected
  5971                           ;	Code Protection bit
  5972                           ;	CP3 = OFF, Block 3 (006000-007FFFh) is not code-protected
  5973  300008                     	org	3145736
  5974  300008  0F                 	db	15
  5975                           
  5976                           ;Config register CONFIG5H @ 0x300009
  5977                           ;	Boot Block Code Protection bit
  5978                           ;	CPB = OFF, Boot block (000000-0007FFh) is not code-protected
  5979                           ;	Data EEPROM Code Protection bit
  5980                           ;	CPD = OFF, Data EEPROM is not code-protected
  5981  300009                     	org	3145737
  5982  300009  C0                 	db	192
  5983                           
  5984                           ;Config register CONFIG6L @ 0x30000A
  5985                           ;	Write Protection bit
  5986                           ;	WRT0 = OFF, Block 0 (000800-001FFFh) is not write-protected
  5987                           ;	Write Protection bit
  5988                           ;	WRT1 = OFF, Block 1 (002000-003FFFh) is not write-protected
  5989                           ;	Write Protection bit
  5990                           ;	WRT2 = OFF, Block 2 (004000-005FFFh) is not write-protected
  5991                           ;	Write Protection bit
  5992                           ;	WRT3 = OFF, Block 3 (006000-007FFFh) is not write-protected
  5993  30000A                     	org	3145738
  5994  30000A  0F                 	db	15
  5995                           
  5996                           ;Config register CONFIG6H @ 0x30000B
  5997                           ;	Configuration Register Write Protection bit
  5998                           ;	WRTC = OFF, Configuration registers (300000-3000FFh) are not write-protected
  5999                           ;	Boot Block Write Protection bit
  6000                           ;	WRTB = OFF, Boot block (000000-0007FFh) is not write-protected
  6001                           ;	Data EEPROM Write Protection bit
  6002                           ;	WRTD = OFF, Data EEPROM is not write-protected
  6003  30000B                     	org	3145739
  6004  30000B  E0                 	db	224
  6005                           
  6006                           ;Config register CONFIG7L @ 0x30000C
  6007                           ;	Table Read Protection bit
  6008                           ;	EBTR0 = OFF, Block 0 (000800-001FFFh) is not protected from table reads executed in ot
      +                          her blocks
  6009                           ;	Table Read Protection bit
  6010                           ;	EBTR1 = OFF, Block 1 (002000-003FFFh) is not protected from table reads executed in ot
      +                          her blocks
  6011                           ;	Table Read Protection bit
  6012                           ;	EBTR2 = OFF, Block 2 (004000-005FFFh) is not protected from table reads executed in ot
      +                          her blocks
  6013                           ;	Table Read Protection bit
  6014                           ;	EBTR3 = OFF, Block 3 (006000-007FFFh) is not protected from table reads executed in ot
      +                          her blocks
  6015  30000C                     	org	3145740
  6016  30000C  0F                 	db	15
  6017                           
  6018                           ;Config register CONFIG7H @ 0x30000D
  6019                           ;	Boot Block Table Read Protection bit
  6020                           ;	EBTRB = OFF, Boot block (000000-0007FFh) is not protected from table reads executed in
      +                           other blocks
  6021  30000D                     	org	3145741
  6022  30000D  40                 	db	64
  6023                           tosu	equ	0xFFF
  6024                           tosh	equ	0xFFE
  6025                           tosl	equ	0xFFD
  6026                           stkptr	equ	0xFFC
  6027                           pclatu	equ	0xFFB
  6028                           pclath	equ	0xFFA
  6029                           pcl	equ	0xFF9
  6030                           tblptru	equ	0xFF8
  6031                           tblptrh	equ	0xFF7
  6032                           tblptrl	equ	0xFF6
  6033                           tablat	equ	0xFF5
  6034                           prodh	equ	0xFF4
  6035                           prodl	equ	0xFF3
  6036                           indf0	equ	0xFEF
  6037                           postinc0	equ	0xFEE
  6038                           postdec0	equ	0xFED
  6039                           preinc0	equ	0xFEC
  6040                           plusw0	equ	0xFEB
  6041                           fsr0h	equ	0xFEA
  6042                           fsr0l	equ	0xFE9
  6043                           wreg	equ	0xFE8
  6044                           indf1	equ	0xFE7
  6045                           postinc1	equ	0xFE6
  6046                           postdec1	equ	0xFE5
  6047                           preinc1	equ	0xFE4
  6048                           plusw1	equ	0xFE3
  6049                           fsr1h	equ	0xFE2
  6050                           fsr1l	equ	0xFE1
  6051                           bsr	equ	0xFE0
  6052                           indf2	equ	0xFDF
  6053                           postinc2	equ	0xFDE
  6054                           postdec2	equ	0xFDD
  6055                           preinc2	equ	0xFDC
  6056                           plusw2	equ	0xFDB
  6057                           fsr2h	equ	0xFDA
  6058                           fsr2l	equ	0xFD9
  6059                           status	equ	0xFD8

Data Sizes:
    Strings     32
    Constant    24
    Data        4
    BSS         11
    Persistent  0
    Stack       0

Auto Spaces:
    Space          Size  Autos    Used
    COMRAM           94     57      65
    BANK0           160     59      66
    BANK1           256      0       0
    BANK2           256      0       0
    BANK3           256      0       0
    BANK4           256      0       0
    BANK5           256      0       0
    BANK6           256      0       0
    BANK7           256      0       0

Pointer List with Targets:

    putsXLCD@buffer	PTR unsigned char  size(2) Largest target is 11
		 -> STR_4(CODE[5]), stringTempo(BANK0[3]), STR_3(CODE[11]), STR_2(CODE[8]), 
		 -> STR_1(CODE[8]), 


Critical Paths under _main in COMRAM

    _main->_readAnalog
    _readAnalog->___fldiv
    ___fldiv->___xxtofl
    _displayStuff->___fltol
    _putsXLCD->_WriteDataXLCD
    ___flsub->___fladd
    ___flmul->___fldiv
    _configureLCD->_OpenXLCD
    _OpenXLCD->_DelayPORXLCD
    _OpenXLCD->_DelayXLCD
    _OpenXLCD->_SetDDRamAddr
    _OpenXLCD->_WriteCmdXLCD

Critical Paths under _ISR in COMRAM

    _ISR->i2_readKey

Critical Paths under _main in BANK0

    _main->_displayStuff
    _readAnalog->___flmul
    _displayStuff->___fltol
    ___fltol->___flmul
    ___flmul->___fldiv

Critical Paths under _ISR in BANK0

    None.

Critical Paths under _main in BANK1

    None.

Critical Paths under _ISR in BANK1

    None.

Critical Paths under _main in BANK2

    None.

Critical Paths under _ISR in BANK2

    None.

Critical Paths under _main in BANK3

    None.

Critical Paths under _ISR in BANK3

    None.

Critical Paths under _main in BANK4

    None.

Critical Paths under _ISR in BANK4

    None.

Critical Paths under _main in BANK5

    None.

Critical Paths under _ISR in BANK5

    None.

Critical Paths under _main in BANK6

    None.

Critical Paths under _ISR in BANK6

    None.

Critical Paths under _main in BANK7

    None.

Critical Paths under _ISR in BANK7

    None.

Call Graph Tables:

 ---------------------------------------------------------------------------------
 (Depth) Function   	        Calls       Base Space   Used Autos Params    Refs
 ---------------------------------------------------------------------------------
 (0) _main                                                 7     7      0   14435
                                             54 BANK0      5     5      0
                       _WriteCmdXLCD
                             ___flge
                            ___lwdiv
                            ___lwmod
                       _configureADC
                        _configureIO
                 _configureInterrupt
                       _configureLCD
                     _configureTimer
                       _displayStuff
                           _putsXLCD
                         _readAnalog
                            _readKey
 ---------------------------------------------------------------------------------
 (1) _readKey                                             18    18      0     204
                                             29 COMRAM    18    18      0
 ---------------------------------------------------------------------------------
 (1) _readAnalog                                           8     4      4    4600
                                             55 COMRAM     2     2      0
                                             38 BANK0      6     2      4
                            ___fldiv
                            ___flmul
                           ___xxtofl
 ---------------------------------------------------------------------------------
 (2) ___fldiv                                             25    17      8    1399
                                             43 COMRAM    12     4      8
                                              0 BANK0     13    13      0
                           ___xxtofl (ARG)
 ---------------------------------------------------------------------------------
 (1) _displayStuff                                         9     5      4    7872
                                             46 BANK0      8     4      4
                       _WriteCmdXLCD
                      _WriteDataXLCD
                            ___awdiv
                            ___awmod
                            ___flmul
                            ___flsub
                            ___fltol
                           ___xxtofl
                           _putsXLCD
 ---------------------------------------------------------------------------------
 (1) _putsXLCD                                             2     0      2     469
                                             30 COMRAM     2     0      2
                           _BusyXLCD
                      _WriteDataXLCD
 ---------------------------------------------------------------------------------
 (2) _WriteDataXLCD                                        1     1      0      44
                                             29 COMRAM     1     1      0
                      _DelayFor18TCY
 ---------------------------------------------------------------------------------
 (2) ___xxtofl                                            14    10      4     474
                                             29 COMRAM    14    10      4
 ---------------------------------------------------------------------------------
 (2) ___fltol                                             10     6      4     381
                                             55 COMRAM     2     2      0
                                             38 BANK0      8     4      4
                            ___flmul (ARG)
                            ___flsub (ARG)
                           ___xxtofl (ARG)
 ---------------------------------------------------------------------------------
 (2) ___flsub                                              8     0      8    2585
                                             45 COMRAM     8     0      8
                            ___fladd
                           ___xxtofl (ARG)
 ---------------------------------------------------------------------------------
 (3) ___fladd                                             16     8      8    2262
                                             29 COMRAM    16     8      8
 ---------------------------------------------------------------------------------
 (2) ___flmul                                             25    17      8    2693
                                             13 BANK0     25    17      8
                            ___fldiv (ARG)
                            ___flsub (ARG)
                           ___xxtofl (ARG)
 ---------------------------------------------------------------------------------
 (2) ___awmod                                              6     2      4     448
                                             29 COMRAM     6     2      4
 ---------------------------------------------------------------------------------
 (2) ___awdiv                                              8     4      4     452
                                             29 COMRAM     8     4      4
 ---------------------------------------------------------------------------------
 (1) _configureTimer                                       0     0      0       0
 ---------------------------------------------------------------------------------
 (1) _configureLCD                                         0     0      0     154
                           _OpenXLCD
                       _WriteCmdXLCD
 ---------------------------------------------------------------------------------
 (2) _OpenXLCD                                             1     1      0     110
                                             30 COMRAM     1     1      0
                           _BusyXLCD
                       _DelayPORXLCD
                          _DelayXLCD
                       _SetDDRamAddr
                       _WriteCmdXLCD
 ---------------------------------------------------------------------------------
 (2) _WriteCmdXLCD                                         1     1      0      44
                                             29 COMRAM     1     1      0
                      _DelayFor18TCY
 ---------------------------------------------------------------------------------
 (3) _SetDDRamAddr                                         1     1      0      44
                                             29 COMRAM     1     1      0
                      _DelayFor18TCY
 ---------------------------------------------------------------------------------
 (3) _DelayXLCD                                            1     1      0       0
                                             29 COMRAM     1     1      0
 ---------------------------------------------------------------------------------
 (3) _DelayPORXLCD                                         1     1      0       0
                                             29 COMRAM     1     1      0
 ---------------------------------------------------------------------------------
 (2) _BusyXLCD                                             0     0      0       0
                      _DelayFor18TCY
 ---------------------------------------------------------------------------------
 (3) _DelayFor18TCY                                        0     0      0       0
 ---------------------------------------------------------------------------------
 (1) _configureInterrupt                                   0     0      0       0
 ---------------------------------------------------------------------------------
 (1) _configureIO                                          0     0      0       0
 ---------------------------------------------------------------------------------
 (1) _configureADC                                         0     0      0       0
 ---------------------------------------------------------------------------------
 (1) ___lwmod                                              5     1      4     311
                                             29 COMRAM     5     1      4
 ---------------------------------------------------------------------------------
 (1) ___lwdiv                                              7     3      4     314
                                             29 COMRAM     7     3      4
 ---------------------------------------------------------------------------------
 (1) ___flge                                              12     4      8     334
                                             29 COMRAM    12     4      8
 ---------------------------------------------------------------------------------
 Estimated maximum stack depth 3
 ---------------------------------------------------------------------------------
 (Depth) Function   	        Calls       Base Space   Used Autos Params    Refs
 ---------------------------------------------------------------------------------
 (5) _ISR                                                 11    11      0     249
                                             18 COMRAM    11    11      0
                          i2_readKey
 ---------------------------------------------------------------------------------
 (6) i2_readKey                                           18    18      0     204
                                              0 COMRAM    18    18      0
 ---------------------------------------------------------------------------------
 Estimated maximum stack depth 6
 ---------------------------------------------------------------------------------

 Call Graph Graphs:

 _main (ROOT)
   _WriteCmdXLCD
     _DelayFor18TCY
   ___flge
   ___lwdiv
   ___lwmod
   _configureADC
   _configureIO
   _configureInterrupt
   _configureLCD
     _OpenXLCD
       _BusyXLCD
         _DelayFor18TCY
       _DelayPORXLCD
       _DelayXLCD
       _SetDDRamAddr
         _DelayFor18TCY
       _WriteCmdXLCD
     _WriteCmdXLCD
   _configureTimer
   _displayStuff
     _WriteCmdXLCD
     _WriteDataXLCD
       _DelayFor18TCY
     ___awdiv
     ___awmod
     ___flmul
       ___fldiv (ARG)
         ___xxtofl (ARG)
       ___flsub (ARG)
         ___fladd
         ___xxtofl (ARG)
       ___xxtofl (ARG)
     ___flsub
     ___fltol
       ___flmul (ARG)
       ___flsub (ARG)
       ___xxtofl (ARG)
     ___xxtofl
     _putsXLCD
       _BusyXLCD
       _WriteDataXLCD
   _putsXLCD
   _readAnalog
     ___fldiv
     ___flmul
     ___xxtofl
   _readKey

 _ISR (ROOT)
   i2_readKey

 Address spaces:
Name               Size   Autos  Total    Cost      Usage
BIGRAM             7FF      0       0      21        0.0%
EEDATA             100      0       0       0        0.0%
BITBANK7           100      0       0      18        0.0%
BANK7              100      0       0      19        0.0%
BITBANK6           100      0       0      16        0.0%
BANK6              100      0       0      17        0.0%
BITBANK5           100      0       0      14        0.0%
BANK5              100      0       0      15        0.0%
BITBANK4           100      0       0      12        0.0%
BANK4              100      0       0      13        0.0%
BITBANK3           100      0       0      10        0.0%
BANK3              100      0       0      11        0.0%
BITBANK2           100      0       0       8        0.0%
BANK2              100      0       0       9        0.0%
BITBANK1           100      0       0       6        0.0%
BANK1              100      0       0       7        0.0%
BITBANK0            A0      0       0       4        0.0%
BANK0               A0     3B      42       5       41.2%
BITCOMRAM           5E      0       0       0        0.0%
COMRAM              5E     39      41       1       69.1%
BITSFR               0      0       0     200        0.0%
SFR                  0      0       0     200        0.0%
STACK                0      0       0       2        0.0%
NULL                 0      0       0       0        0.0%
ABS                  0      0      83      20        0.0%
DATA                 0      0      83       3        0.0%
CODE                 0      0       0       0        0.0%


Microchip Technology PIC18 Macro Assembler V2.32 build 20210201212658 
Symbol Table                                                                                   Thu Dec 12 07:48:12 2024

               ?_configureIO 0001                ?_configureADC 0001                ?_configureLCD 0001  
               ___fldiv@aexp 006C                 ___fldiv@bexp 006B                 ___fldiv@sign 0064  
                         l22 2422                           l25 2402                           l19 2458  
                         l55 2360                           l72 239E                           l49 1E20  
                         l81 21DA                           l58 230E                           l59 2320  
                         l69 23DC                 ___awdiv@sign 0023                ?_displayStuff 008E  
                        l201 23F0                          l204 2412                          l222 20F4  
                        l216 1900                          l225 1D32                          l219 2062  
                        l172 170A                          l192 2432                          l195 244E  
                        l525 1B32                          l198 2440                          l472 205E  
                        l810 14C0                          l459 1FAE                          l812 1320  
                        l493 1BF0                          l821 1366                          l726 2168  
                        l719 2160                          l823 13DE                          l815 12E4  
                        l736 223E                          l824 13CC                          l729 2236  
                        l498 1C36                          l842 0DC0                          l851 102E  
                        l852 101C                          l756 0A28                          l773 0B42  
                        l765 0CF8                          l757 0A16                          l846 1124  
                        l782 0C12                          l758 09DC                          l783 0C00  
                        l849 0FB6                          l890 15B0                          l859 10E6  
                        l883 1518                          l798 22DA                          l886 1674  
                        l897 160C                          _ISR 0008              ?_configureTimer 0001  
                        _tak 009B        __size_of_WriteCmdXLCD 003E                 ___awmod@sign 0023  
                        wreg 000FE8                 ___flmul@aexp 007A                 ___flmul@bexp 007F  
               main@V_analog 0096            readKey@currentKey 003E                 ___flmul@sign 0079  
               ___flmul@temp 0084                 ___flmul@prod 0080                         ?_ISR 0001  
               ___fltol@exp1 0039                         l2101 23D6                         l2111 22EA  
                       l3001 1BD0                         l2121 2306                         l2113 22F8  
                       l2105 22DC                         l2201 0886                         l3003 1BDE  
                       l3011 20F6                         l2131 2314                         l2123 2308  
                       l2115 22FA                         l2107 22E0                         l2211 08B8  
                       l2203 0888                         l3005 1C2E                         l3021 212E  
                       l3013 20FE                         l2133 231A                         l2117 22FE  
                       l2109 22E4                         l2141 2324                         l2301 0A86  
                       l2221 08E0                         l2213 08BA                         l2205 0890  
                       l3007 1C34                         l3031 215A                         l3023 2134  
                       l3015 2110                         l2135 231C                         l2119 2304  
                       l2151 233E                         l2143 2334                         l2311 0AB0  
                       l2303 0A92                         l2231 091A                         l2223 08F0  
                       l2215 08C0                         l2207 08A0                         l3025 214A  
                       l3017 2118                         l3041 220C                         l3033 21DC  
                       l2137 231E                         l2129 2310                         l2161 235A  
                       l2153 2342                         l2145 2336                         l2081 23A2  
                       l2401 1D46                         l2321 0B22                         l2305 0A96  
                       l2313 0AB6                         l2241 0946                         l2233 092C  
                       l2225 0900                         l2217 08CE                         l2209 08A6  
                       l3027 2152                         l3019 2120                         l3043 2222  
                       l3035 21EE                         l2075 2450                         l2155 2350  
                       l2147 2338                         l2091 23BA                         l2083 23B0  
                       l2411 1D58                         l2403 1D48                         l2331 0B7C  
                       l2315 0ADC                         l2323 0B32                         l2307 0AA4  
                       l2251 095A                         l2243 094A                         l2235 093A  
                       l2227 0902                         l2219 08D0                         l2171 2376  
                       l3029 2154                         l3045 222A                         l3037 21F6  
                       l2077 2414                         l2157 2354                         l2149 233C  
                       l2093 23BE                         l2085 23B2                         l2421 1D70  
                       l2413 1D5C                         l2405 1D4A                         l3301 0E50  
                       l2341 0BAC                         l2333 0B86                         l2325 0B58  
                       l2317 0B10                         l2309 0AA6                         l2261 096E  
                       l2253 095E                         l2245 094E                         l2237 093E  
                       l2229 090A                         l2181 2392                         l2173 237A  
                       l2165 2364                         l2501 121A                         l3047 2230  
                       l3039 21FE                         l2079 23F2                         l2159 2356  
                       l2095 23CC                         l2087 23B4                         l2431 1DB8  
                       l2423 1D84                         l2415 1D62                         l2407 1D4E  
                       l3311 0E92                         l3303 0E5C                         l2351 0BD4  
                       l2343 0BB0                         l2335 0B94                         l2327 0B68  
                       l2319 0B12                         l2271 09A8                         l2263 0972  
                       l2255 0962                         l2247 0952                         l2239 0942  
                       l2191 0846                         l2183 2394                         l2175 237C  
                       l2167 2372                         l2511 124A                         l2503 1222  
                       l2097 23D0                         l2089 23B8                         l2441 1E00  
                       l2433 1DCC                         l2425 1D98                         l2417 1D66  
                       l2409 1D54                         l3321 0EF4                         l3313 0EA2  
                       l3305 0E6A                         l2361 0C2E                         l2353 0BE2  
                       l2345 0BC0                         l2337 0B96                         l2281 09FA  
                       l2273 09C4                         l2265 0976                         l2257 0966  
                       l2249 0956                         l2193 0854                         l2185 2398  
                       l2177 2380                         l2169 2374                         l3401 1CFA  
                       l2521 1288                         l2513 124A                         l2505 1226  
                       l2099 23D2                         l2443 1E06                         l2435 1DD2  
                       l2427 1D9E                         l2419 1D6A                         l3331 0F9C  
                       l3323 0F10                         l3315 0EBC                         l3307 0E76  
                       l3251 0D08                         l2371 0C98                         l2363 0C3C  
                       l2355 0BF8                         l2339 0BA4                         l2347 0BC2  
                       l2291 0A46                         l2283 0A08                         l2275 09D4  
                       l2259 096A                         l2267 097A                         l2195 0856  
                       l2179 238E                         l2451 216E                         l3403 1D16  
                       l2531 12D4                         l2523 1298                         l3411 167C  
                       l2445 1E1A                         l2437 1DE6                         l2429 1DB2  
                       l3341 0FD8                         l3333 0FA6                         l3325 0F3A  
                       l3317 0ECC                         l3309 0E86                         l3261 0D48  
                       l3253 0D16                         l2381 0CD2                         l2373 0CB8  
                       l2365 0C76                         l2349 0BD0                         l2285 0A0A  
                       l2277 09EA                         l2269 097E                         l2197 0866  
                       l2189 083A                         l2453 2182                         l2541 131E  
                       l2533 12E2                         l2525 12A8                         l2517 125E  
                       l2509 123A                         l2461 1134                         l3421 1694  
                       l3413 1680                         l3405 1676                         l2439 1DEC  
                       l2391 1D36                         l3351 104A                         l3343 0FE6  
                       l3335 0FB4                         l3327 0F70                         l3319 0EE8  
                       l3271 0D78                         l3263 0D4E                         l3255 0D18  
                       l2383 0CD8                         l2375 0CBC                         l2359 0C22  
                       l2367 0C78                         l2295 0A5A                         l2287 0A14  
                       l2279 09F6                         l2199 0876                         l2455 21A6  
                       l2551 1364                         l2543 1330                         l2535 12EE  
                       l2527 12B0                         l2519 1278                         l2471 1174  
                       l2463 1142                         l3431 16FA                         l3423 16A8  
                       l3415 1684                         l3407 1676                         l2393 1D3E  
                       l2801 2032                         l3361 10B4                         l3353 1058  
                       l3345 1014                         l3337 0FC6                         l3329 0F7E  
                       l3281 0DB0                         l3273 0D7A                         l3265 0D5E  
                       l3257 0D28                         l3249 0CFA                         l2385 0CE6  
                       l2377 0CCA                         l2369 0C88                         l2297 0A6A  
                       l2289 0A36                         l2457 21AA                         l2449 216A  
                       l2561 13C4                         l2545 1346                         l2553 1376  
                       l2537 130C                         l2529 12C0                         l2481 119A  
                       l2473 1176                         l2465 1144                         l3441 1744  
                       l3433 170C                         l3425 16C0                         l3417 1688  
                       l3409 1678                         l2395 1D40                         l2803 2038  
                       l3371 110A                         l3363 10CE                         l3355 1082  
                       l3339 0FD4                         l3291 0E00                         l3283 0DD0  
                       l3275 0D8A                         l3267 0D64                         l3259 0D38  
                       l2387 0CE8                         l2379 0CD0                         l2299 0A78  
                       l2571 1432                         l2555 1384                         l2547 134C  
                       l2539 130E                         l2491 11DA                         l2483 11A8  
                       l2467 1154                         l2475 117E                         l2459 1126  
                       l3451 1776                         l3443 174A                         l3435 1712  
                       l3427 16F2                         l3419 168C                         l2397 1D42  
                       l2741 1F0A                         l2733 1EEC                         l2805 203E  
                       l3365 10EA                         l3373 1110                         l3349 103E  
                       l3357 1086                         l3293 0E0A                         l3285 0DE0  
                       l3277 0D9A                         l3269 0D6A                         l2821 1A82  
                       l2813 1A2C                         l2581 149C                         l2565 13EE  
                       l2573 1436                         l2557 1388                         l2549 1356  
                       l2493 11DC                         l2485 11AA                         l2477 118E  
                       l2469 1164                         l3381 2070                         l3453 1782  
                       l3445 1752                         l3437 171E                         l3429 16F4  
                       l2911 242E                         l2903 2424                         l2399 1D44  
                       l2751 1F3E                         l2743 1F18                         l2735 1EF0  
                       l2807 204E                         l3375 1114                         l3367 10FA  
                       l3359 10A0                         l3295 0E20                         l3279 0DAA  
                       l2727 2296                         l2823 1A84                         l2815 1A44  
                       l3391 1CD2                         l2583 14A0                         l2575 1450  
                       l2567 13FA                         l2559 1396                         l2487 11BA  
                       l2495 11E4                         l2479 1194                         l3383 2088  
                       l3455 179E                         l3447 1768                         l3439 1732  
                       l2913 2430                         l2905 2428                         l2921 2410  
                       l2761 1F78                         l2753 1F46                         l2745 1F20  
                       l2737 1EFE                         l2809 2056                         l3369 1108  
                       l3297 0E2C                         l3289 0DF4                         l2729 22A6  
                       l2825 1A94                         l3393 1CD8                         l2585 14AE  
                       l2577 1466                         l2569 1408                         l2497 11F4  
                       l2489 11CA                         l3457 17BA                         l3449 1770  
                       l2915 2442                         l2907 242A                         l2923 23DE  
                       l2771 1F9E                         l2763 1F80                         l2755 1F4E  
                       l2747 1F24                         l2739 1F06                         l3299 0E44  
                       l2851 1B12                         l2835 1ABE                         l2827 1A98  
                       l2819 1A58                         l3395 1CE4                         l3387 1C38  
                       l2587 14B4                         l2579 1480                         l2499 120A  
                       l3379 2060                         l3459 17BE                         l2909 242C  
                       l2917 2434                         l2773 1FA6                         l2765 1F82  
                       l2757 1F5C                         l2749 1F2C                         l2781 1FC2  
                       l2853 1B22                         l2845 1AE6                         l2837 1AC8  
                       l2829 1AA6                         l2861 14E2                         l3397 1CEA  
                       l3389 1C54                         l2589 14B6                         l2933 1818  
                       l2925 17D8                         l2919 2404                         l2767 1F88  
                       l2759 1F62                         l2791 1FF6                         l2783 1FCA  
                       l2847 1AF2                         l2839 1AD2                         l2871 155A  
                       l2863 1528                         l3399 1CF4                         l2951 18D8  
                       l2943 184E                         l2935 1836                         l2927 17F0  
                       l2769 1F8E                         l2793 1FFE                         l2785 1FCE  
                       l2777 1FB0                         l2849 1B02                         l2881 15E2  
                       l2873 1566                         l2865 153E                         l2857 14C4  
                       l2953 18DC                         l2945 187E                         l2937 1846  
                       l2929 17F8                         l2795 2006                         l2787 1FDC  
                       l2779 1FB4                         l2891 1620                         l2883 15EE  
                       l2875 1598                         l2859 14D4                         l2955 18F8  
                       l2947 18D2                         l2797 2014                         l2789 1FE4  
                       l2893 1644                         l2885 15FC                         l2877 159A  
                       l2869 1552                         l2991 1B62                         l2799 202A  
                       l2895 1654                         l2887 161A                         l2879 15A6  
                       l2993 1B72                         l2897 1662                         l2889 161C  
                       l2995 1BA0                         l2899 1664                         l2997 1BB0  
                       l2989 1B34                         l2999 1BBE                         STR_1 082C  
                       STR_2 0824                         STR_3 0819                         STR_4 0834  
                       u2000 1DCC                         u2001 1DC8                         u2010 1DE6  
                       u2011 1DE2                         u2020 1E00                         u2100 1164  
                       u2021 1DFC                         u2101 1160                         u2030 1E1A  
                       u2110 11A8                         u2031 1E16                         u2111 11A4  
                       u2040 2182                         u2200 1346                         u2120 11BA  
                       u2041 217E                         u2201 1342                         u2121 11B6  
                       u2050 21A2                         u2210 1364                         u2130 11CA  
                       u2211 1360                         u2131 11C6                         u2060 21CA  
                       u2300 14AE                         u2220 1384                         u2140 120A  
                       u2301 14AA                         u2221 1380                         u2141 1206  
                       u2070 21DA                         u2230 1396                         u2150 124A  
                       _LATB 000F8A                         u2071 21D6                         u2231 1392  
                       u2151 1246                         u3200 0DE0                         u1600 0876  
                       u2240 13C4                         u2160 12C0                         u2080 1142  
                       u3201 0DDC                         u1601 0872                         u2057 2198  
                       u2241 13C0                         u2161 12BC                         u2081 113E  
                       u3210 0F5A                         u3130 0D16                         u1610 08B8  
                       u2250 13DA                         u2170 12E2                         u2090 1154  
                       u3131 0D12                         u1611 08B4                         u2067 21C0  
                       u2251 13D6                         u2171 12DE                         u2091 1150  
                       u2500 1EFE                         u3300 10CE                         u3220 0FB4  
                       u3140 0D28                         u1700 09EA                         u1620 08CE  
                       u2260 13EE                         u2180 130C                         u2501 1EFA  
                       u3301 10CA                         u3221 0FB0                         u3141 0D24  
                       u1701 09E6                         u1621 08CA                         u2261 13EA  
                       u2181 1308                         u2510 1F18                         u3310 1108  
                       u3230 0FD4                         u3150 0D38                         u1710 0A08  
                       u1630 08E0                         u2270 1408                         u2190 1330  
                       u2511 1F14                         u3311 1104                         u3231 0FD0  
                       u3215 0F50                         u3151 0D34                         u1711 0A04  
                       u1631 08DC                         u2271 1404                         u2191 132C  
                       u2520 1F3E                         u2600 202A                         u3240 0FE6  
                       u3160 0D78                         u1800 0B58                         u1720 0A28  
                       u1640 08F0                         u2280 1450                         u3320 2070  
                       u2521 1F3A                         u2601 2026                         u3241 0FE2  
                       u3161 0D74                         u1801 0B54                         u1721 0A24  
                       u1641 08EC                         u2281 144C                         u3321 206C  
                       u1570 22F8                         u2530 1F5C                         u2610 204E  
                       u3250 1014                         u3170 0D8A                         u1810 0B68  
                       u1730 0A36                         u1650 092C                         u2290 1480  
                       u3330 16F2                         u1571 22F4                         u2531 1F58  
                       u2611 204A                         u3251 1010                         u3171 0D86  
                       u1811 0B64                         u1731 0A32                         u1651 0928  
                       u2291 147C                         u3331 16EE                         u2540 1F78  
                       u3260 102A                         u3180 0D9A                         u1900 0C3C  
                       u1820 0B94                         u1740 0A46                         u1660 093A  
                       u1580 0854                         u2620 1A44                         u2700 14E2  
                       u3340 1732                         u2541 1F74                         u3261 1026  
                       u3181 0D96                         u1901 0C38                         u1821 0B90  
                       u1741 0A42                         u1661 0936                         u1581 0850  
                       u2621 1A40                         u2701 14DE                         u3341 172E  
                       u2550 1F9E                         u3270 103E                         u3190 0DD0  
                       u1910 0C76                         u1830 0BA4                         u1750 0A78  
                       u1670 09A8                         u1590 0866                         u2630 1A78  
                       u2710 153E                         u3350 1744                         u3407 2452  
                       u2551 1F9A                         u3271 103A                         u3191 0DCC  
                       u1911 0C72                         u1831 0BA0                         u1751 0A74  
                       u1671 09A4                         u1591 0862                         u2711 153A  
                       u3351 1740                         u2560 1FC2                         u3280 1058  
                       u1920 0C88                         u1840 0BC0                         u1760 0A86  
                       u1680 09C0                         u2640 1AA6                         u2720 1594  
                       u2800 1814                         u3360 1768                         u2561 1FBE  
                       u3281 1054                         u1921 0C84                         u1841 0BBC  
                       u1761 0A82                         u1681 09BA                         u2641 1AA2  
                       u2721 1590                         u2801 1810                         u3361 1764  
                       u2570 1FDC                         u3290 10A0                         u1930 0C98  
                       u1850 0BD0                         u1770 0AA4                         u1690 09C2  
                       u2650 1ABA                         u2730 15DE                         u2571 1FD8  
                       u3291 109C                         u1931 0C94                         u1851 0BCC  
                       u1771 0AA0                         u2651 1AB6                         u2635 1A6E  
                       u2731 15DA                         u2900 1C2E                         u2580 1FF6  
                       u1940 0CB8                         u1860 0BE2                         u1780 0ADC  
                       u2660 1AE2                         u2740 15FC                         u2901 1C2A  
                       u2581 1FF2                         u1941 0CB4                         u1861 0BDE  
                       u1781 0AD8                         u2661 1ADE                         u2741 15F8  
                       u2910 2110                         u2590 2014                         u1950 0CCA  
                       u1870 0BF8                         u1790 0B22                         u2670 1B02  
                       u2750 160C                         u2830 187E                         u2814 182A  
                       u2911 210C                         u2591 2010                         u1951 0CC6  
                       u1871 0BF4                         u1791 0B1E                         u2671 1AFE  
                       u2751 1608                         u2831 187A                         u2815 1826  
                       u2920 212E                         u1960 0CE6                         u1880 0C0E  
                       u2680 1B12                         u2760 161A                         u2840 18F8  
                       u2824 1864                         u2921 212A                         u1961 0CE2  
                       u1881 0C0A                         u2681 1B0E                         u2761 1616  
                       u2841 18F4                         u2825 1860                         u3377 183C  
                       u2930 214A                         u1970 1D84                         u1890 0C22  
                       u2770 1654                         u2690 14D4                         u2931 2146  
                       u3387 23F8                         u1971 1D80                         u1891 0C1E  
                       u2771 1650                         u2691 14D0                         u2860 1B62  
                       u2940 21EE                         u1980 1D98                         u2780 1662  
                       u2861 1B5E                         u2941 21EA                         u3397 241A  
                       u1981 1D94                         u2781 165E                         u2870 1BA0  
                       u2950 220C                         u1990 1DB2                         u2790 17E6  
                       u2871 1B9C                         u2951 2208                         u1991 1DAE  
                       u2880 1BBE                         u2960 2222                         u2881 1BBA  
                       u2961 221E                         u2890 1BDE                         u2891 1BDA  
                       _Vmax 0040                         _main 1676                         fsr0h 000FEA  
                       indf0 000FEF                         fsr2h 000FDA                         fsr0l 000FE9  
                       fsr2l 000FD9                         btemp 0042         displayStuff@V_analog 008E  
     __size_of_WriteDataXLCD 003E                         prodh 000FF4                         prodl 000FF3  
                       start 000E              ___fldiv@new_exp 0065               ??_configureADC 001E  
             ??_configureLCD 0020                 ___param_bank 000000                  _stringTempo 009D  
                      ??_ISR 0013   __end_of_configureInterrupt 23F2                 _WriteCmdXLCD 23A0  
             ??_displayStuff 003A                ___fltol@sign1 0038                ?_SetDDRamAddr 0001  
            __end_of___fladd 0CFA                        ?_main 0001              __end_of___fldiv 14C2  
            __end_of___awdiv 1FB0              __end_of___awmod 2060              __end_of___flmul 1126  
            __end_of___flsub 22DC              __end_of___fltol 1B34                        _T0CON 000FD5  
            ___awdiv@divisor 0020              __end_of___lwdiv 216A              __end_of___lwmod 2240  
                      i2l216 1A2A                        i2l189 1ED0              ___awdiv@counter 0022  
                      _TMR0H 000FD7                        _TMR0L 000FD6                        _PORTB 000F81  
                      _PORTD 000F83                        _TRISB 000F93                        _TRISD 000F95  
            __end_of_readKey 1902                        tablat 000FF5         __end_ofreadKey@F3244 0819  
                      ttemp5 0043                        ttemp6 0046                        ttemp7 004A  
                      status 000FD8                        wtemp8 0043              __initialization 2240  
               __end_of_main 17D8             __end_of_BusyXLCD 2322           __size_of_DelayXLCD 0012  
         __size_ofi2_readKey 012A        __size_of_DelayPORXLCD 0010               ??_SetDDRamAddr 001E  
           __end_of_OpenXLCD 1E22                       ??_main 003A              i2readKey@InvCol 0007  
              __activetblptr 000002                _WriteDataXLCD 2362                       ISR@tik 003A  
                     _ADCON0 000FC2                       _ADCON1 000FC1                       _ADCON2 000FC0  
                     _ADRESH 000FC4                       _ADRESL 000FC3             ___awdiv@dividend 001E  
                     i2l3051 191A                       i2l3061 1970                       i2l3053 1922  
                     i2l3071 19FC                       i2l3231 1E52                       i2l3057 1942  
                     i2l3049 1902                       i2l3241 1E8E                       i2l3233 1E56  
                     i2l3075 1A02                       i2l3067 1978                       i2l3059 1960  
                     i2l3243 1E94                       i2l3235 1E6C                       i2l3227 1E3C  
                     i2l3077 1A06                       i2l3069 19A8                       i2l3245 1EC0  
                     i2l3237 1E7E                       i2l3229 1E4A                       i2l3079 1A22  
                     i2l3247 1ECE                       i2l3239 1E80             __end_of___xxtofl 1676  
               _DelayPORXLCD 2414                       ___flge 1B34                    ??___fladd 0026  
                  ??___fldiv 0034                    ??___awdiv 0022                    ??___awmod 0022  
                  ??___flmul 0075                    ??___flsub 0036                    ??___fltol 008A  
                  ??___lwdiv 0022                    ??___lwmod 0022         __size_of_configureIO 0010  
                     _keymap 0801             ___awdiv@quotient 0024              ___awmod@divisor 0020  
                     isa$std 000001                       _tempuu 00A0              ___awmod@counter 0022  
             ?_WriteDataXLCD 0001                    ??_readKey 001E                 __pdataCOMRAM 0040  
               __mediumconst 0000                       tblptrh 000FF7                       tblptrl 000FF6  
                     tblptru 000FF8         __end_of_configureADC 2450             __end_of_putsXLCD 21DC  
       __end_of_configureLCD 2442            __end_of_DelayXLCD 2404                   ___flge@ff1 001E  
                 ___flge@ff2 0022            __end_ofi2_readKey 1A2C                 ___xxtofl@arg 0028  
               ___xxtofl@exp 0027                 ___xxtofl@val 001E                   __accesstop 0060  
    __end_of__initialization 2288         __end_of_displayStuff 1D34                ___rparam_used 000001  
                 ___fltol@f1 0086               __pcstackCOMRAM 0001                 __pidataBANK0 245C  
           ??_configureTimer 001E       __size_of_DelayFor18TCY 000A                   __pbssBANK0 009B  
                  ?_BusyXLCD 0001              WriteCmdXLCD@cmd 001E         __end_of_SetDDRamAddr 2362  
                  ?_OpenXLCD 0001                      ?___flge 001E            WriteDataXLCD@data 001E  
            ??_WriteDataXLCD 001E                 readKey@F3244 0811                    ?___xxtofl 001E  
         _configureInterrupt 23DE                   ??_BusyXLCD 001E          ?_configureInterrupt 0001  
                 ??_OpenXLCD 001F                 i2readKey@col 000F                      __Hparam 0000  
               i2readKey@row 0011                   _keyPressed 003F                      __Lparam 0000  
                 _readAnalog 2060              __size_of___flge 0104                      ___fladd 083A  
                    ___fldiv 1126                      ___awdiv 1EEC                _DelayFor18TCY 2450  
                    ___awmod 1FB0                      ___flmul 0CFA                      ___flsub 2296  
                    ___fltol 1A2C                    ?_putsXLCD 001F                      ___lwdiv 20F6  
                    ___lwmod 21DC                 __psmallconst 0800         ??_configureInterrupt 001E  
                    __pcinit 2240                      __ramtop 0800                      __ptext0 1676  
                    __ptext1 17D8                      __ptext2 2060                      __ptext3 1126  
                    __ptext4 1C38                      __ptext5 216A                      __ptext6 2362  
                    __ptext7 14C2                      __ptext8 1A2C                      __ptext9 2296  
      __size_of_configureADC 000E        __size_of_configureLCD 000E                 __size_of_ISR 1EE4  
                    _readKey 17D8                   ??___xxtofl 0022             ___awmod@dividend 001E  
      __size_of_displayStuff 00FC                      main@key 009A               __pintcode_body 1E22  
       end_of_initialization 2288                __Lmediumconst 0000                      int_func 1E22  
             ?_DelayFor18TCY 0001                      postdec2 000FDD                 _configureADC 2442  
               _configureLCD 2434                      postinc2 000FDE                   ??_putsXLCD 0021  
                  _PORTDbits 000F83                 _displayStuff 1C38                  ___fladd@grs 002D  
              ___xxtofl@sign 0026                    _TRISAbits 000F92                    _TRISDbits 000F95  
                  _TRISEbits 000F96                  ___fldiv@grs 0067                  ___fldiv@rem 0060  
      __size_of_SetDDRamAddr 0040                  ___flmul@grs 007B                    _DelayXLCD 23F2  
                  i2_readKey 1902                ??_configureIO 001E                  ?_readAnalog 0086  
             __end_of___flge 1C38          displayStuff@decimal 0094                __pidataCOMRAM 245A  
             __end_of_keymap 0811                 _SetDDRamAddr 2322           SetDDRamAddr@DDaddr 001E  
        displayStuff@inteiro 0092          start_initialization 2240                  __end_of_ISR 1EEC  
           readAnalog@result 008A            __size_of_BusyXLCD 0046                   ?_DelayXLCD 0001  
                 ?i2_readKey 0001                   readKey@col 002C                   readKey@row 002E  
            ??_DelayFor18TCY 001E            __size_of_OpenXLCD 00EE                     ??___flge 0026  
              ?_WriteCmdXLCD 0001                  __pdataBANK0 00A0          __end_of_configureIO 2434  
                  ___fladd@a 0022                    ___fladd@b 001E                    ___fldiv@a 0030  
                  ___fldiv@b 002C                    ___flmul@a 0071                    ___flmul@b 006D  
                __pbssCOMRAM 003A                    ___flsub@a 0032                    ___flsub@b 002E  
              __pcstackBANK0 0060            __size_of___xxtofl 01B4          __size_of_readAnalog 0096  
                   ISR@tecla 001D               putsXLCD@buffer 001F             ___lwdiv@dividend 001E  
                  __pintcode 0008               ??_WriteCmdXLCD 001E                     ?___fladd 001E  
                   ?___fldiv 002C                     ?___awdiv 001E                     ?___awmod 001E  
                   ?___flmul 006D                     ?___flsub 002E                     ?___fltol 0086  
                   ?___lwdiv 001E                     ?___lwmod 001E            __size_of_putsXLCD 0072  
      __end_of_WriteDataXLCD 23A0                  __smallconst 0800                     ?_readKey 0001  
    __size_of_configureTimer 0010             ___lwdiv@quotient 0022                     _LATEbits 000F8D  
                ??_DelayXLCD 001E                  ??i2_readKey 0001                ?_DelayPORXLCD 0001  
                   i2u300_44 198E                     i2u300_45 198A                     i2u301_40 19A8  
                   i2u301_41 19A4                     i2u302_40 1A22                     i2u310_40 1E6C  
                   i2u302_41 1A1E                     i2u310_41 1E68                     i2u311_40 1E8E  
                   i2u311_41 1E8A                     i2u312_40 1EC0                     i2u312_41 1EBC  
                   i2u309_40 1E4A                     i2u309_41 1E46                     i2u341_47 1966  
            OpenXLCD@lcdtype 001F                     i2u297_40 1910                     i2u298_40 193E  
                   i2u298_41 193A                     i2u299_44 1954                     i2u299_45 1950  
              readKey@InvCol 0024                     _RCONbits 000FD0                  _configureIO 2424  
__size_of_configureInterrupt 0014                   _ADCON0bits 000FC2                  _INTCON2bits 000FF1  
                   _BusyXLCD 22DC               ??_DelayPORXLCD 001E                     _OpenXLCD 1D34  
                   __Hrparam 0000                     __Lrparam 0000                 ??_readAnalog 0038  
           __size_of___fladd 04C0             __size_of___fldiv 039C             __size_of___awdiv 00C4  
           __size_of___awmod 00B0             __size_of___flmul 042C             __size_of___flsub 0046  
           __size_of___fltol 0108             __size_of___lwdiv 0074             __size_of___lwmod 0064  
                   ___xxtofl 14C2             __size_of_readKey 012A              ___lwdiv@divisor 0020  
            ___lwdiv@counter 0024                     __ptext10 083A                     __ptext11 0CFA  
                   __ptext20 2414                     __ptext12 1FB0                     __ptext21 22DC  
                   __ptext13 1EEC                     __ptext30 1902                     __ptext22 2450  
                   __ptext14 2404                     __ptext23 23DE                     __ptext15 2434  
                   __ptext24 2424                     __ptext16 1D34                     __ptext25 2442  
                   __ptext17 23A0                     __ptext26 21DC                     __ptext18 2322  
                   __ptext27 20F6                     __ptext19 23F2                     __ptext28 1B34  
       __end_of_WriteCmdXLCD 23DE           __end_of_readAnalog 20F6                     _intTempo 003C  
              __size_of_main 0162                     isa$xinst 000000                     int$flags 0042  
                   _putsXLCD 216A                   _INTCONbits 000FF2               _configureTimer 2404  
            displayStuff@key 0001                     intlevel2 0000             ___lwmod@dividend 001E  
      __end_of_DelayFor18TCY 245A       __end_of_configureTimer 2414         __end_of_DelayPORXLCD 2424  
            ___lwmod@divisor 0020              ___lwmod@counter 0022                ___fladd@signs 002A  
               ___fladd@aexp 002B                 ___fladd@bexp 002C  
