

Microchip MPLAB XC8 Assembler V2.32 build 20210201212658 
                                                                                               Sun Feb 16 09:38:17 2025

Microchip MPLAB XC8 C Compiler v2.32 (Free license) build 20210201212658 Og1 
     1                           	processor	18F4550
     2                           	fnconf	rparam,??,?,0
     3                           	pagewidth 120
     4                           	opt	flic
     5                           	psect	idataBANK0,global,class=CODE,delta=1,noexec
     6                           	psect	mediumconst,global,reloc=2,class=MEDIUMCONST,delta=1,noexec
     7                           	psect	cinit,global,reloc=2,class=CODE,delta=1
     8                           	psect	bssCOMRAM,global,class=COMRAM,space=1,delta=1,lowdata,noexec
     9                           	psect	bssBANK0,global,class=BANK0,space=1,delta=1,lowdata,noexec
    10                           	psect	dataBANK0,global,class=BANK0,space=1,delta=1,lowdata,noexec
    11                           	psect	cstackBANK0,global,class=BANK0,space=1,delta=1,lowdata,noexec
    12                           	psect	cstackCOMRAM,global,class=COMRAM,space=1,delta=1,lowdata,noexec
    13                           	psect	text0,global,reloc=2,class=CODE,delta=1
    14                           	psect	text1,global,reloc=2,class=CODE,delta=1
    15                           	psect	text2,global,reloc=2,class=CODE,delta=1
    16                           	psect	text3,global,reloc=2,class=CODE,delta=1
    17                           	psect	text4,global,reloc=2,class=CODE,delta=1
    18                           	psect	text5,global,reloc=2,class=CODE,delta=1
    19                           	psect	text6,global,reloc=2,class=CODE,delta=1
    20                           	psect	text7,global,reloc=2,class=CODE,delta=1
    21                           	psect	text8,global,reloc=2,class=CODE,delta=1
    22                           	psect	text9,global,reloc=2,class=CODE,delta=1
    23                           	psect	text10,global,reloc=2,class=CODE,delta=1
    24                           	psect	text11,global,reloc=2,class=CODE,delta=1
    25                           	psect	text12,global,reloc=2,class=CODE,delta=1,group=1
    26                           	psect	text13,global,reloc=2,class=CODE,delta=1
    27                           	psect	text14,global,reloc=2,class=CODE,delta=1,group=1
    28                           	psect	text15,global,reloc=2,class=CODE,delta=1,group=1
    29                           	psect	text16,global,reloc=2,class=CODE,delta=1,group=1
    30                           	psect	text17,global,reloc=2,class=CODE,delta=1,group=1
    31                           	psect	text18,global,reloc=2,class=CODE,delta=1,group=1
    32                           	psect	text19,global,reloc=2,class=CODE,delta=1,group=1
    33                           	psect	text20,global,reloc=2,class=CODE,delta=1,group=1
    34                           	psect	text21,global,reloc=2,class=CODE,delta=1,group=1
    35                           	psect	text22,global,reloc=2,class=CODE,delta=1
    36                           	psect	text23,global,reloc=2,class=CODE,delta=1
    37                           	psect	text24,global,reloc=2,class=CODE,delta=1,group=1
    38                           	psect	text25,global,reloc=2,class=CODE,delta=1
    39                           	psect	text26,global,reloc=2,class=CODE,delta=1
    40                           	psect	text27,global,reloc=2,class=CODE,delta=1
    41                           	psect	text28,global,reloc=2,class=CODE,delta=1
    42                           	psect	text29,global,reloc=2,class=CODE,delta=1
    43                           	psect	text30,global,reloc=2,class=CODE,delta=1
    44                           	psect	text31,global,reloc=2,class=CODE,delta=1
    45                           	psect	text32,global,reloc=2,class=CODE,delta=1
    46                           	psect	text33,global,reloc=2,class=CODE,delta=1
    47                           	psect	text34,global,reloc=2,class=CODE,delta=1
    48                           	psect	text35,global,reloc=2,class=CODE,delta=1
    49                           	psect	text36,global,reloc=2,class=CODE,delta=1
    50                           	psect	text37,global,reloc=2,class=CODE,delta=1
    51                           	psect	intcode,global,reloc=2,class=CODE,delta=1
    52                           	psect	intcode_body,global,reloc=2,class=CODE,delta=1
    53                           	psect	text39,global,reloc=2,class=CODE,delta=1,group=1
    54                           	psect	intsave_regs,global,class=BIGRAM,space=1,delta=1,noexec
    55                           	psect	rparam,global,class=COMRAM,space=1,delta=1,noexec
    56                           	psect	temp,global,ovrld,common,class=COMRAM,space=1,delta=1
    57                           	psect	idloc,global,abs,ovrld,class=IDLOC,space=5,delta=1,noexec
    58                           	psect	config,global,abs,ovrld,class=CONFIG,space=4,delta=1,noexec
    59  0000                     
    60                           ; Version 2.32
    61                           ; Generated 02/02/2021 GMT
    62                           ; 
    63                           ; Copyright © 2021, Microchip Technology Inc. and its subsidiaries ("Microchip")
    64                           ; All rights reserved.
    65                           ; 
    66                           ; This software is developed by Microchip Technology Inc. and its subsidiaries ("Microch
      +                          ip").
    67                           ; 
    68                           ; Redistribution and use in source and binary forms, with or without modification, are
    69                           ; permitted provided that the following conditions are met:
    70                           ; 
    71                           ;     1. Redistributions of source code must retain the above copyright notice, this lis
      +                          t of
    72                           ;        conditions and the following disclaimer.
    73                           ; 
    74                           ;     2. Redistributions in binary form must reproduce the above copyright notice, this 
      +                          list
    75                           ;        of conditions and the following disclaimer in the documentation and/or other
    76                           ;        materials provided with the distribution. Publication is not required when
    77                           ;        this file is used in an embedded application.
    78                           ; 
    79                           ;     3. Microchip's name may not be used to endorse or promote products derived from th
      +                          is
    80                           ;        software without specific prior written permission.
    81                           ; 
    82                           ; THIS SOFTWARE IS PROVIDED BY MICROCHIP "AS IS" AND ANY EXPRESS OR IMPLIED WARRANTIES,
    83                           ; INCLUDING, BUT NOT LIMITED TO, THE IMPLIED WARRANTIES OF MERCHANTABILITY AND FITNESS F
      +                          OR
    84                           ; PURPOSE ARE DISCLAIMED.  IN NO EVENT SHALL MICROCHIP BE LIABLE FOR ANY DIRECT, INDIREC
      +                          T,
    85                           ; INCIDENTAL, SPECIAL, EXEMPLARY, OR CONSEQUENTIAL DAMAGES (INCLUDING BUT NOT LIMITED TO
    86                           ; PROCUREMENT OF SUBSTITUTE GOODS OR SERVICES; LOSS OF USE, DATA OR PROFITS; OR BUSINESS
    87                           ; INTERRUPTION) HOWSOEVER CAUSED AND ON ANY THEORY OF LIABILITY, WHETHER IN CONTRACT, ST
      +                          RICT
    88                           ; LIABILITY, OR TORT (INCLUDING NEGLIGENCE OR OTHERWISE) ARISING IN ANY WAY OUT OF THE U
      +                          SE OF
    89                           ; THIS SOFTWARE, EVEN IF ADVISED OF THE POSSIBILITY OF SUCH DAMAGE.
    90                           ; 
    91                           ; 
    92                           ; Code-generator required, PIC18F4550 Definitions
    93                           ; 
    94                           ; SFR Addresses
    95  0000                     
    96                           	psect	idataBANK0
    97  003064                     __pidataBANK0:
    98                           	callstack 0
    99                           
   100                           ;initializer for _Glim
   101  003064  0014               	dw	20
   102                           
   103                           ;initializer for _Hlim
   104  003066  0032               	dw	50
   105                           
   106                           ;initializer for _Tlim
   107  003068  001E               	dw	30
   108                           
   109                           	psect	mediumconst
   110  007EF6                     __pmediumconst:
   111                           	callstack 0
   112  007EF6  00                 	db	0
   113  007EF7                     _keymap:
   114                           	callstack 0
   115  007EF7  31                 	db	49
   116  007EF8  32                 	db	50
   117  007EF9  33                 	db	51
   118  007EFA  41                 	db	65
   119  007EFB  34                 	db	52
   120  007EFC  35                 	db	53
   121  007EFD  36                 	db	54
   122  007EFE  42                 	db	66
   123  007EFF  37                 	db	55
   124  007F00  38                 	db	56
   125  007F01  39                 	db	57
   126  007F02  43                 	db	67
   127  007F03  46                 	db	70
   128  007F04  30                 	db	48
   129  007F05  45                 	db	69
   130  007F06  44                 	db	68
   131  007F07                     __end_of_keymap:
   132                           	callstack 0
   133  007F07                     readKey@F3615:
   134                           	callstack 0
   135  007F07  0003               	dw	3
   136  007F09  0002               	dw	2
   137  007F0B  0001               	dw	1
   138  007F0D  0000               	dw	0
   139  007F0F                     __end_ofreadKey@F3615:
   140                           	callstack 0
   141  0000                     _LATEbits	set	3981
   142  0000                     _TRISEbits	set	3990
   143  0000                     _TRISD	set	3989
   144  0000                     _PORTD	set	3971
   145  0000                     _ADRESL	set	4035
   146  0000                     _ADRESH	set	4036
   147  0000                     _ADCON0bits	set	4034
   148  0000                     _ADCON2	set	4032
   149  0000                     _ADCON1	set	4033
   150  0000                     _PORTB	set	3969
   151  0000                     _LATB	set	3978
   152  0000                     _T0CON	set	4053
   153  0000                     _INTCON2bits	set	4081
   154  0000                     _RCONbits	set	4048
   155  0000                     _TRISCbits	set	3988
   156  0000                     _TRISAbits	set	3986
   157  0000                     _TRISB	set	3987
   158  0000                     _TMR0L	set	4054
   159  0000                     _INTCONbits	set	4082
   160  0000                     _PORTCbits	set	3970
   161  0000                     _PORTDbits	set	3971
   162  0000                     _TRISDbits	set	3989
   163  007F0F                     STR_25:
   164  007F0F  48                 	db	72	;'H'
   165  007F10  75                 	db	117	;'u'
   166  007F11  6D                 	db	109	;'m'
   167  007F12  69                 	db	105	;'i'
   168  007F13  64                 	db	100	;'d'
   169  007F14  69                 	db	105	;'i'
   170  007F15  66                 	db	102	;'f'
   171  007F16  69                 	db	105	;'i'
   172  007F17  63                 	db	99	;'c'
   173  007F18  61                 	db	97	;'a'
   174  007F19  64                 	db	100	;'d'
   175  007F1A  6F                 	db	111	;'o'
   176  007F1B  72                 	db	114	;'r'
   177  007F1C  20                 	db	32
   178  007F1D  4F                 	db	79	;'O'
   179  007F1E  4E                 	db	78	;'N'
   180  007F1F  00                 	db	0
   181  007F20                     STR_20:
   182  007F20  48                 	db	72	;'H'
   183  007F21  5F                 	db	95	;'_'
   184  007F22  6C                 	db	108	;'l'
   185  007F23  69                 	db	105	;'i'
   186  007F24  6D                 	db	109	;'m'
   187  007F25  20                 	db	32
   188  007F26  65                 	db	101	;'e'
   189  007F27  78                 	db	120	;'x'
   190  007F28  63                 	db	99	;'c'
   191  007F29  65                 	db	101	;'e'
   192  007F2A  64                 	db	100	;'d'
   193  007F2B  69                 	db	105	;'i'
   194  007F2C  64                 	db	100	;'d'
   195  007F2D  61                 	db	97	;'a'
   196  007F2E  21                 	db	33
   197  007F2F  00                 	db	0
   198  007F30                     STR_19:
   199  007F30  54                 	db	84	;'T'
   200  007F31  5F                 	db	95	;'_'
   201  007F32  6C                 	db	108	;'l'
   202  007F33  69                 	db	105	;'i'
   203  007F34  6D                 	db	109	;'m'
   204  007F35  20                 	db	32
   205  007F36  65                 	db	101	;'e'
   206  007F37  78                 	db	120	;'x'
   207  007F38  63                 	db	99	;'c'
   208  007F39  65                 	db	101	;'e'
   209  007F3A  64                 	db	100	;'d'
   210  007F3B  69                 	db	105	;'i'
   211  007F3C  64                 	db	100	;'d'
   212  007F3D  61                 	db	97	;'a'
   213  007F3E  21                 	db	33
   214  007F3F  00                 	db	0
   215  007F40                     STR_21:
   216  007F40  47                 	db	71	;'G'
   217  007F41  5F                 	db	95	;'_'
   218  007F42  6C                 	db	108	;'l'
   219  007F43  69                 	db	105	;'i'
   220  007F44  6D                 	db	109	;'m'
   221  007F45  20                 	db	32
   222  007F46  65                 	db	101	;'e'
   223  007F47  78                 	db	120	;'x'
   224  007F48  63                 	db	99	;'c'
   225  007F49  65                 	db	101	;'e'
   226  007F4A  64                 	db	100	;'d'
   227  007F4B  69                 	db	105	;'i'
   228  007F4C  64                 	db	100	;'d'
   229  007F4D  6F                 	db	111	;'o'
   230  007F4E  21                 	db	33
   231  007F4F  00                 	db	0
   232  007F50                     STR_7:
   233  007F50  4C                 	db	76	;'L'
   234  007F51  69                 	db	105	;'i'
   235  007F52  6D                 	db	109	;'m'
   236  007F53  20                 	db	32
   237  007F54  72                 	db	114	;'r'
   238  007F55  65                 	db	101	;'e'
   239  007F56  73                 	db	115	;'s'
   240  007F57  65                 	db	101	;'e'
   241  007F58  74                 	db	116	;'t'
   242  007F59  61                 	db	97	;'a'
   243  007F5A  64                 	db	100	;'d'
   244  007F5B  6F                 	db	111	;'o'
   245  007F5C  73                 	db	115	;'s'
   246  007F5D  21                 	db	33
   247  007F5E  00                 	db	0
   248  007F5F                     STR_27:
   249  007F5F  4D                 	db	77	;'M'
   250  007F60  65                 	db	101	;'e'
   251  007F61  6E                 	db	110	;'n'
   252  007F62  75                 	db	117	;'u'
   253  007F63  20                 	db	32
   254  007F64  49                 	db	73	;'I'
   255  007F65  6E                 	db	110	;'n'
   256  007F66  76                 	db	118	;'v'
   257  007F67  C3                 	db	-61
   258  007F68  A1                 	db	-95
   259  007F69  6C                 	db	108	;'l'
   260  007F6A  69                 	db	105	;'i'
   261  007F6B  64                 	db	100	;'d'
   262  007F6C  6F                 	db	111	;'o'
   263  007F6D  00                 	db	0
   264  007F6E                     STR_24:
   265  007F6E  52                 	db	82	;'R'
   266  007F6F  65                 	db	101	;'e'
   267  007F70  73                 	db	115	;'s'
   268  007F71  66                 	db	102	;'f'
   269  007F72  72                 	db	114	;'r'
   270  007F73  69                 	db	105	;'i'
   271  007F74  61                 	db	97	;'a'
   272  007F75  64                 	db	100	;'d'
   273  007F76  6F                 	db	111	;'o'
   274  007F77  72                 	db	114	;'r'
   275  007F78  20                 	db	32
   276  007F79  4F                 	db	79	;'O'
   277  007F7A  4E                 	db	78	;'N'
   278  007F7B  00                 	db	0
   279  007F7C                     STR_4:
   280  007F7C  48                 	db	72	;'H'
   281  007F7D  75                 	db	117	;'u'
   282  007F7E  6D                 	db	109	;'m'
   283  007F7F  69                 	db	105	;'i'
   284  007F80  64                 	db	100	;'d'
   285  007F81  20                 	db	32
   286  007F82  53                 	db	83	;'S'
   287  007F83  61                 	db	97	;'a'
   288  007F84  6C                 	db	108	;'l'
   289  007F85  76                 	db	118	;'v'
   290  007F86  6F                 	db	111	;'o'
   291  007F87  21                 	db	33
   292  007F88  00                 	db	0
   293  007F89                     STR_1:
   294  007F89  4C                 	db	76	;'L'
   295  007F8A  69                 	db	105	;'i'
   296  007F8B  6D                 	db	109	;'m'
   297  007F8C  69                 	db	105	;'i'
   298  007F8D  74                 	db	116	;'t'
   299  007F8E  65                 	db	101	;'e'
   300  007F8F  20                 	db	32
   301  007F90  54                 	db	84	;'T'
   302  007F91  65                 	db	101	;'e'
   303  007F92  6D                 	db	109	;'m'
   304  007F93  70                 	db	112	;'p'
   305  007F94  3A                 	db	58	;':'
   306  007F95  00                 	db	0
   307  007F96                     STR_2:
   308  007F96  54                 	db	84	;'T'
   309  007F97  65                 	db	101	;'e'
   310  007F98  6D                 	db	109	;'m'
   311  007F99  70                 	db	112	;'p'
   312  007F9A  20                 	db	32
   313  007F9B  53                 	db	83	;'S'
   314  007F9C  61                 	db	97	;'a'
   315  007F9D  6C                 	db	108	;'l'
   316  007F9E  76                 	db	118	;'v'
   317  007F9F  61                 	db	97	;'a'
   318  007FA0  21                 	db	33
   319  007FA1  00                 	db	0
   320  007FA2                     STR_3:
   321  007FA2  4C                 	db	76	;'L'
   322  007FA3  69                 	db	105	;'i'
   323  007FA4  6D                 	db	109	;'m'
   324  007FA5  69                 	db	105	;'i'
   325  007FA6  74                 	db	116	;'t'
   326  007FA7  65                 	db	101	;'e'
   327  007FA8  20                 	db	32
   328  007FA9  48                 	db	72	;'H'
   329  007FAA  75                 	db	117	;'u'
   330  007FAB  6D                 	db	109	;'m'
   331  007FAC  3A                 	db	58	;':'
   332  007FAD  00                 	db	0
   333  007FAE                     STR_26:
   334  007FAE  45                 	db	69	;'E'
   335  007FAF  78                 	db	120	;'x'
   336  007FB0  61                 	db	97	;'a'
   337  007FB1  75                 	db	117	;'u'
   338  007FB2  73                 	db	115	;'s'
   339  007FB3  74                 	db	116	;'t'
   340  007FB4  6F                 	db	111	;'o'
   341  007FB5  72                 	db	114	;'r'
   342  007FB6  20                 	db	32
   343  007FB7  4F                 	db	79	;'O'
   344  007FB8  4E                 	db	78	;'N'
   345  007FB9  00                 	db	0
   346  007FBA                     STR_6:
   347  007FBA  47                 	db	71	;'G'
   348  007FBB  61                 	db	97	;'a'
   349  007FBC  73                 	db	115	;'s'
   350  007FBD  20                 	db	32
   351  007FBE  53                 	db	83	;'S'
   352  007FBF  61                 	db	97	;'a'
   353  007FC0  6C                 	db	108	;'l'
   354  007FC1  76                 	db	118	;'v'
   355  007FC2  6F                 	db	111	;'o'
   356  007FC3  21                 	db	33
   357  007FC4  00                 	db	0
   358  007FC5                     STR_5:
   359  007FC5  4C                 	db	76	;'L'
   360  007FC6  69                 	db	105	;'i'
   361  007FC7  6D                 	db	109	;'m'
   362  007FC8  69                 	db	105	;'i'
   363  007FC9  74                 	db	116	;'t'
   364  007FCA  65                 	db	101	;'e'
   365  007FCB  20                 	db	32
   366  007FCC  47                 	db	71	;'G'
   367  007FCD  61                 	db	97	;'a'
   368  007FCE  73                 	db	115	;'s'
   369  007FCF  00                 	db	0
   370  007FD0                     STR_22:
   371  007FD0  53                 	db	83	;'S'
   372  007FD1  69                 	db	105	;'i'
   373  007FD2  73                 	db	115	;'s'
   374  007FD3  74                 	db	116	;'t'
   375  007FD4  65                 	db	101	;'e'
   376  007FD5  6D                 	db	109	;'m'
   377  007FD6  61                 	db	97	;'a'
   378  007FD7  73                 	db	115	;'s'
   379  007FD8  3A                 	db	58	;':'
   380  007FD9  00                 	db	0
   381  007FDA                     STR_17:
   382  007FDA  4C                 	db	76	;'L'
   383  007FDB  65                 	db	101	;'e'
   384  007FDC  69                 	db	105	;'i'
   385  007FDD  74                 	db	116	;'t'
   386  007FDE  75                 	db	117	;'u'
   387  007FDF  72                 	db	114	;'r'
   388  007FE0  61                 	db	97	;'a'
   389  007FE1  73                 	db	115	;'s'
   390  007FE2  00                 	db	0
   391  007FE3                     STR_11:
   392  007FE3  48                 	db	72	;'H'
   393  007FE4  75                 	db	117	;'u'
   394  007FE5  6D                 	db	109	;'m'
   395  007FE6  69                 	db	105	;'i'
   396  007FE7  64                 	db	100	;'d'
   397  007FE8  3A                 	db	58	;':'
   398  007FE9  00                 	db	0
   399  007FEA                     STR_10:
   400  007FEA  4C                 	db	76	;'L'
   401  007FEB  69                 	db	105	;'i'
   402  007FEC  6D                 	db	109	;'m'
   403  007FED  3A                 	db	58	;':'
   404  007FEE  00                 	db	0
   405  007FEF                     STR_14:
   406  007FEF  47                 	db	71	;'G'
   407  007FF0  61                 	db	97	;'a'
   408  007FF1  73                 	db	115	;'s'
   409  007FF2  3A                 	db	58	;':'
   410  007FF3  00                 	db	0
   411  007FF4                     STR_15:
   412  007FF4  70                 	db	112	;'p'
   413  007FF5  70                 	db	112	;'p'
   414  007FF6  6D                 	db	109	;'m'
   415  007FF7  00                 	db	0
   416  007FF8                     STR_18:
   417  007FF8  4F                 	db	79	;'O'
   418  007FF9  4B                 	db	75	;'K'
   419  007FFA  00                 	db	0
   420  007FFB                     STR_12:
   421  007FFB  25                 	db	37
   422  007FFC  00                 	db	0
   423  007FFD                     STR_9:
   424  007FFD  43                 	db	67	;'C'
   425  007FFE  00                 	db	0
   426  007FFF  00                 	db	0	; dummy byte at the end
   427  0000                     
   428                           ; #config settings
   429                           
   430                           	psect	cinit
   431  002DBC                     __pcinit:
   432                           	callstack 0
   433  002DBC                     start_initialization:
   434                           	callstack 0
   435  002DBC                     __initialization:
   436                           	callstack 0
   437                           
   438                           ; Initialize objects allocated to BANK0 (6 bytes)
   439                           ; load TBLPTR registers with __pidataBANK0
   440  002DBC  0E64               	movlw	low __pidataBANK0
   441  002DBE  6EF6               	movwf	tblptrl,c
   442  002DC0  0E30               	movlw	high __pidataBANK0
   443  002DC2  6EF7               	movwf	tblptrh,c
   444  002DC4  0E00               	movlw	low (__pidataBANK0 shr (0+16))
   445  002DC6  6EF8               	movwf	tblptru,c
   446  002DC8  EE00  F0D2         	lfsr	0,__pdataBANK0
   447  002DCC  EE10 F006          	lfsr	1,6
   448  002DD0                     copy_data0:
   449  002DD0  0009               	tblrd		*+
   450  002DD2  CFF5 FFEE          	movff	tablat,postinc0
   451  002DD6  50E5               	movf	postdec1,w,c
   452  002DD8  50E1               	movf	fsr1l,w,c
   453  002DDA  E1FA               	bnz	copy_data0
   454                           
   455                           ; Clear objects allocated to BANK0 (26 bytes)
   456  002DDC  EE00  F0B8         	lfsr	0,__pbssBANK0
   457  002DE0  0E1A               	movlw	26
   458  002DE2                     clear_0:
   459  002DE2  6AEE               	clrf	postinc0,c
   460  002DE4  06E8               	decf	wreg,f,c
   461  002DE6  E1FD               	bnz	clear_0
   462                           
   463                           ; Clear objects allocated to COMRAM (11 bytes)
   464  002DE8  EE00  F04A         	lfsr	0,__pbssCOMRAM
   465  002DEC  0E0B               	movlw	11
   466  002DEE                     clear_1:
   467  002DEE  6AEE               	clrf	postinc0,c
   468  002DF0  06E8               	decf	wreg,f,c
   469  002DF2  E1FD               	bnz	clear_1
   470  002DF4                     end_of_initialization:
   471                           	callstack 0
   472  002DF4                     __end_of__initialization:
   473                           	callstack 0
   474  002DF4  9055               	bcf	int$flags,0,c	;clear compiler interrupt flag (level 1)
   475  002DF6  9255               	bcf	int$flags,1,c	;clear compiler interrupt flag (level 2)
   476  002DF8  0E00               	movlw	low (__Lmediumconst shr (0+16))
   477  002DFA  6EF8               	movwf	tblptru,c
   478  002DFC  0100               	movlb	0
   479  002DFE  EF64  F004         	goto	_main	;jump to C main() function
   480                           
   481                           	psect	bssCOMRAM
   482  00004A                     __pbssCOMRAM:
   483                           	callstack 0
   484  00004A                     _milliseconds:
   485                           	callstack 0
   486  00004A                     	ds	4
   487  00004E                     displayMenu@systemCycle:
   488                           	callstack 0
   489  00004E                     	ds	2
   490  000050                     displayMenu@errorCycle:
   491                           	callstack 0
   492  000050                     	ds	2
   493  000052                     _tak:
   494                           	callstack 0
   495  000052                     	ds	2
   496  000054                     readKey@lastStableKey:
   497                           	callstack 0
   498  000054                     	ds	1
   499                           
   500                           	psect	bssBANK0
   501  0000B8                     __pbssBANK0:
   502                           	callstack 0
   503  0000B8                     _keyState:
   504                           	callstack 0
   505  0000B8                     	ds	11
   506  0000C3                     readKey@lastKeyPressTime:
   507                           	callstack 0
   508  0000C3                     	ds	4
   509  0000C7                     readKey@lastDebounceTime:
   510                           	callstack 0
   511  0000C7                     	ds	4
   512  0000CB                     displayMenu@lastUpdateTime:
   513                           	callstack 0
   514  0000CB                     	ds	4
   515  0000CF                     	ds	3
   516                           
   517                           	psect	dataBANK0
   518  0000D2                     __pdataBANK0:
   519                           	callstack 0
   520  0000D2                     _Glim:
   521                           	callstack 0
   522  0000D2                     	ds	2
   523  0000D4                     _Hlim:
   524                           	callstack 0
   525  0000D4                     	ds	2
   526  0000D6                     _Tlim:
   527                           	callstack 0
   528  0000D6                     	ds	2
   529                           
   530                           	psect	cstackBANK0
   531  000060                     __pcstackBANK0:
   532                           	callstack 0
   533  000060                     ?_tempRead:
   534                           	callstack 0
   535  000060                     ?_humidade:
   536                           	callstack 0
   537  000060                     ?_gasRead:
   538                           	callstack 0
   539  000060                     floatToString@intStr:
   540                           	callstack 0
   541                           
   542                           ; 12 bytes @ 0x0
   543  000060                     	ds	4
   544  000064                     tempRead@TempC:
   545                           	callstack 0
   546  000064                     humidade@Humid:
   547                           	callstack 0
   548  000064                     gasRead@gas:
   549                           	callstack 0
   550                           
   551                           ; 4 bytes @ 0x4
   552  000064                     	ds	4
   553  000068                     _tempRead$1532:
   554                           	callstack 0
   555  000068                     _humidade$1533:
   556                           	callstack 0
   557  000068                     _gasRead$1534:
   558                           	callstack 0
   559                           
   560                           ; 4 bytes @ 0x8
   561  000068                     	ds	4
   562  00006C                     tempRead@rawAnalog:
   563                           	callstack 0
   564  00006C                     humidade@rawAnalog:
   565                           	callstack 0
   566  00006C                     gasRead@rawAnalog:
   567                           	callstack 0
   568  00006C                     floatToString@digit:
   569                           	callstack 0
   570                           
   571                           ; 2 bytes @ 0xC
   572  00006C                     	ds	2
   573  00006E                     floatToString@intPart:
   574                           	callstack 0
   575                           
   576                           ; 2 bytes @ 0xE
   577  00006E                     	ds	2
   578  000070                     floatToString@temp:
   579                           	callstack 0
   580                           
   581                           ; 2 bytes @ 0x10
   582  000070                     	ds	2
   583  000072                     floatToString@i:
   584                           	callstack 0
   585                           
   586                           ; 2 bytes @ 0x12
   587  000072                     	ds	2
   588  000074                     floatToString@index:
   589                           	callstack 0
   590                           
   591                           ; 2 bytes @ 0x14
   592  000074                     	ds	2
   593  000076                     displayMenu@menuIndex:
   594                           	callstack 0
   595                           
   596                           ; 2 bytes @ 0x16
   597  000076                     	ds	2
   598  000078                     ??_displayMenu:
   599                           
   600                           ; 1 bytes @ 0x18
   601  000078                     	ds	4
   602  00007C                     displayMenu@valueStr:
   603                           	callstack 0
   604                           
   605                           ; 10 bytes @ 0x1C
   606  00007C                     	ds	10
   607  000086                     displayMenu@currentTime:
   608                           	callstack 0
   609                           
   610                           ; 4 bytes @ 0x26
   611  000086                     	ds	4
   612  00008A                     displayMenu@currentTemp:
   613                           	callstack 0
   614                           
   615                           ; 4 bytes @ 0x2A
   616  00008A                     	ds	4
   617  00008E                     displayMenu@currentHumid:
   618                           	callstack 0
   619                           
   620                           ; 4 bytes @ 0x2E
   621  00008E                     	ds	4
   622  000092                     displayMenu@currentGas:
   623                           	callstack 0
   624                           
   625                           ; 4 bytes @ 0x32
   626  000092                     	ds	4
   627  000096                     ??_main:
   628                           
   629                           ; 1 bytes @ 0x36
   630  000096                     	ds	4
   631  00009A                     main@lastDisplayUpdate:
   632                           	callstack 0
   633                           
   634                           ; 4 bytes @ 0x3A
   635  00009A                     	ds	4
   636  00009E                     main@currentTime:
   637                           	callstack 0
   638                           
   639                           ; 4 bytes @ 0x3E
   640  00009E                     	ds	4
   641  0000A2                     main@currentHumid:
   642                           	callstack 0
   643                           
   644                           ; 4 bytes @ 0x42
   645  0000A2                     	ds	4
   646  0000A6                     main@currentGas:
   647                           	callstack 0
   648                           
   649                           ; 4 bytes @ 0x46
   650  0000A6                     	ds	4
   651  0000AA                     main@currentTemp:
   652                           	callstack 0
   653                           
   654                           ; 4 bytes @ 0x4A
   655  0000AA                     	ds	4
   656  0000AE                     main@tempLimit:
   657                           	callstack 0
   658                           
   659                           ; 2 bytes @ 0x4E
   660  0000AE                     	ds	2
   661  0000B0                     main@humLimit:
   662                           	callstack 0
   663                           
   664                           ; 2 bytes @ 0x50
   665  0000B0                     	ds	2
   666  0000B2                     main@gasLimit:
   667                           	callstack 0
   668                           
   669                           ; 2 bytes @ 0x52
   670  0000B2                     	ds	2
   671  0000B4                     main@lastKey:
   672                           	callstack 0
   673                           
   674                           ; 1 bytes @ 0x54
   675  0000B4                     	ds	1
   676  0000B5                     main@pressed_key:
   677                           	callstack 0
   678                           
   679                           ; 1 bytes @ 0x55
   680  0000B5                     	ds	1
   681  0000B6                     main@menuIndex:
   682                           	callstack 0
   683                           
   684                           ; 2 bytes @ 0x56
   685  0000B6                     	ds	2
   686                           
   687                           	psect	cstackCOMRAM
   688  000001                     __pcstackCOMRAM:
   689                           	callstack 0
   690  000001                     ?___llmod:
   691                           	callstack 0
   692  000001                     ___llmod@dividend:
   693                           	callstack 0
   694                           
   695                           ; 4 bytes @ 0x0
   696  000001                     	ds	4
   697  000005                     ___llmod@divisor:
   698                           	callstack 0
   699                           
   700                           ; 4 bytes @ 0x4
   701  000005                     	ds	4
   702  000009                     ___llmod@counter:
   703                           	callstack 0
   704                           
   705                           ; 1 bytes @ 0x8
   706  000009                     	ds	1
   707  00000A                     ??_DelayPORXLCD:
   708  00000A                     ??_DelayXLCD:
   709  00000A                     ?_readAnalog:
   710                           	callstack 0
   711  00000A                     ?___awdiv:
   712                           	callstack 0
   713  00000A                     ?___awmod:
   714                           	callstack 0
   715  00000A                     ?_millis:
   716                           	callstack 0
   717  00000A                     ?___fladd:
   718                           	callstack 0
   719  00000A                     ?___flneg:
   720                           	callstack 0
   721  00000A                     ?___fltol:
   722                           	callstack 0
   723  00000A                     ?___xxtofl:
   724                           	callstack 0
   725  00000A                     SetDDRamAddr@DDaddr:
   726                           	callstack 0
   727  00000A                     WriteCmdXLCD@cmd:
   728                           	callstack 0
   729  00000A                     WriteDataXLCD@data:
   730                           	callstack 0
   731  00000A                     setCoolerSpeed@PWMset:
   732                           	callstack 0
   733  00000A                     setMoist@moistSet:
   734                           	callstack 0
   735  00000A                     buzzer@buzzerStatus:
   736                           	callstack 0
   737  00000A                     ___awdiv@dividend:
   738                           	callstack 0
   739  00000A                     ___awmod@dividend:
   740                           	callstack 0
   741  00000A                     ___flneg@f1:
   742                           	callstack 0
   743  00000A                     ___fltol@f1:
   744                           	callstack 0
   745  00000A                     ___fladd@b:
   746                           	callstack 0
   747  00000A                     ___xxtofl@val:
   748                           	callstack 0
   749                           
   750                           ; 4 bytes @ 0x9
   751  00000A                     	ds	1
   752  00000B                     OpenXLCD@lcdtype:
   753                           	callstack 0
   754  00000B                     displayStuff@row:
   755                           	callstack 0
   756                           
   757                           ; 2 bytes @ 0xA
   758  00000B                     	ds	1
   759  00000C                     ??_configureLCD:
   760  00000C                     ??_readAnalog:
   761  00000C                     ___awdiv@divisor:
   762                           	callstack 0
   763  00000C                     ___awmod@divisor:
   764                           	callstack 0
   765                           
   766                           ; 2 bytes @ 0xB
   767  00000C                     	ds	1
   768  00000D                     displayStuff@column:
   769                           	callstack 0
   770                           
   771                           ; 2 bytes @ 0xC
   772  00000D                     	ds	1
   773  00000E                     ??___fltol:
   774  00000E                     ??___xxtofl:
   775  00000E                     ___awdiv@counter:
   776                           	callstack 0
   777  00000E                     ___awmod@counter:
   778                           	callstack 0
   779  00000E                     readAnalog@result:
   780                           	callstack 0
   781  00000E                     millis@ms:
   782                           	callstack 0
   783  00000E                     ___fladd@a:
   784                           	callstack 0
   785                           
   786                           ; 4 bytes @ 0xD
   787  00000E                     	ds	1
   788  00000F                     ___awdiv@sign:
   789                           	callstack 0
   790  00000F                     ___awmod@sign:
   791                           	callstack 0
   792  00000F                     displayStuff@stuff:
   793                           	callstack 0
   794                           
   795                           ; 2 bytes @ 0xE
   796  00000F                     	ds	1
   797  000010                     readAnalog@pin:
   798                           	callstack 0
   799  000010                     ___awdiv@quotient:
   800                           	callstack 0
   801                           
   802                           ; 2 bytes @ 0xF
   803  000010                     	ds	1
   804  000011                     displayStuff@LCDWritePosition:
   805                           	callstack 0
   806                           
   807                           ; 2 bytes @ 0x10
   808  000011                     	ds	1
   809  000012                     ??_readKey:
   810  000012                     ??___fladd:
   811  000012                     ___fltol@sign1:
   812                           	callstack 0
   813  000012                     ___xxtofl@sign:
   814                           	callstack 0
   815  000012                     itoa@value:
   816                           	callstack 0
   817                           
   818                           ; 2 bytes @ 0x11
   819  000012                     	ds	1
   820  000013                     ___fltol@exp1:
   821                           	callstack 0
   822  000013                     ___xxtofl@exp:
   823                           	callstack 0
   824  000013                     _displayStuff$791:
   825                           	callstack 0
   826                           
   827                           ; 2 bytes @ 0x12
   828  000013                     	ds	1
   829  000014                     itoa@ptr:
   830                           	callstack 0
   831  000014                     ___xxtofl@arg:
   832                           	callstack 0
   833                           
   834                           ; 4 bytes @ 0x13
   835  000014                     	ds	2
   836  000016                     ___fladd@signs:
   837                           	callstack 0
   838  000016                     itoa@count:
   839                           	callstack 0
   840                           
   841                           ; 2 bytes @ 0x15
   842  000016                     	ds	1
   843  000017                     ___fladd@aexp:
   844                           	callstack 0
   845                           
   846                           ; 1 bytes @ 0x16
   847  000017                     	ds	1
   848  000018                     ?___flmul:
   849                           	callstack 0
   850  000018                     ___fladd@bexp:
   851                           	callstack 0
   852  000018                     itoa@temp:
   853                           	callstack 0
   854  000018                     ___flge@ff1:
   855                           	callstack 0
   856  000018                     ___flmul@b:
   857                           	callstack 0
   858  000018                     readKey@InvCol:
   859                           	callstack 0
   860                           
   861                           ; 8 bytes @ 0x17
   862  000018                     	ds	1
   863  000019                     ___fladd@grs:
   864                           	callstack 0
   865                           
   866                           ; 1 bytes @ 0x18
   867  000019                     	ds	1
   868  00001A                     ?___flsub:
   869                           	callstack 0
   870  00001A                     ___flsub@b:
   871                           	callstack 0
   872                           
   873                           ; 4 bytes @ 0x19
   874  00001A                     	ds	2
   875  00001C                     ___flge@ff2:
   876                           	callstack 0
   877  00001C                     ___flmul@a:
   878                           	callstack 0
   879                           
   880                           ; 4 bytes @ 0x1B
   881  00001C                     	ds	2
   882  00001E                     ___flsub@a:
   883                           	callstack 0
   884                           
   885                           ; 4 bytes @ 0x1D
   886  00001E                     	ds	2
   887  000020                     ??___flmul:
   888  000020                     ??___flge:
   889  000020                     readKey@currentTime:
   890                           	callstack 0
   891                           
   892                           ; 4 bytes @ 0x1F
   893  000020                     	ds	2
   894  000022                     
   895                           ; 1 bytes @ 0x21
   896  000022                     	ds	2
   897  000024                     ___flmul@sign:
   898                           	callstack 0
   899  000024                     readKey@col:
   900                           	callstack 0
   901                           
   902                           ; 2 bytes @ 0x23
   903  000024                     	ds	1
   904  000025                     ___flmul@aexp:
   905                           	callstack 0
   906                           
   907                           ; 1 bytes @ 0x24
   908  000025                     	ds	1
   909  000026                     readKey@row:
   910                           	callstack 0
   911  000026                     ___flmul@grs:
   912                           	callstack 0
   913                           
   914                           ; 4 bytes @ 0x25
   915  000026                     	ds	2
   916  000028                     readKey@pressedKey:
   917                           	callstack 0
   918                           
   919                           ; 1 bytes @ 0x27
   920  000028                     	ds	1
   921  000029                     ?_readTwoDigitValue:
   922                           	callstack 0
   923  000029                     readTwoDigitValue@prompt:
   924                           	callstack 0
   925                           
   926                           ; 2 bytes @ 0x28
   927  000029                     	ds	1
   928  00002A                     ___flmul@bexp:
   929                           	callstack 0
   930                           
   931                           ; 1 bytes @ 0x29
   932  00002A                     	ds	1
   933  00002B                     ??_readTwoDigitValue:
   934  00002B                     ___flmul@prod:
   935                           	callstack 0
   936                           
   937                           ; 4 bytes @ 0x2A
   938  00002B                     	ds	2
   939  00002D                     readTwoDigitValue@input:
   940                           	callstack 0
   941                           
   942                           ; 3 bytes @ 0x2C
   943  00002D                     	ds	2
   944  00002F                     ___flmul@temp:
   945                           	callstack 0
   946                           
   947                           ; 2 bytes @ 0x2E
   948  00002F                     	ds	1
   949  000030                     readTwoDigitValue@digitCount:
   950                           	callstack 0
   951                           
   952                           ; 2 bytes @ 0x2F
   953  000030                     	ds	1
   954  000031                     ?___fldiv:
   955                           	callstack 0
   956  000031                     floatToString@value:
   957                           	callstack 0
   958  000031                     ___fldiv@b:
   959                           	callstack 0
   960                           
   961                           ; 4 bytes @ 0x30
   962  000031                     	ds	1
   963  000032                     readTwoDigitValue@key:
   964                           	callstack 0
   965                           
   966                           ; 1 bytes @ 0x31
   967  000032                     	ds	3
   968  000035                     floatToString@buffer:
   969                           	callstack 0
   970  000035                     ___fldiv@a:
   971                           	callstack 0
   972                           
   973                           ; 4 bytes @ 0x34
   974  000035                     	ds	2
   975  000037                     floatToString@precision:
   976                           	callstack 0
   977                           
   978                           ; 2 bytes @ 0x36
   979  000037                     	ds	2
   980  000039                     ??_floatToString:
   981  000039                     ??___fldiv:
   982                           
   983                           ; 1 bytes @ 0x38
   984  000039                     	ds	4
   985  00003D                     ___fldiv@rem:
   986                           	callstack 0
   987                           
   988                           ; 4 bytes @ 0x3C
   989  00003D                     	ds	4
   990  000041                     ___fldiv@sign:
   991                           	callstack 0
   992                           
   993                           ; 1 bytes @ 0x40
   994  000041                     	ds	1
   995  000042                     ___fldiv@new_exp:
   996                           	callstack 0
   997                           
   998                           ; 2 bytes @ 0x41
   999  000042                     	ds	2
  1000  000044                     ___fldiv@grs:
  1001                           	callstack 0
  1002                           
  1003                           ; 4 bytes @ 0x43
  1004  000044                     	ds	4
  1005  000048                     ___fldiv@bexp:
  1006                           	callstack 0
  1007                           
  1008                           ; 1 bytes @ 0x47
  1009  000048                     	ds	1
  1010  000049                     ___fldiv@aexp:
  1011                           	callstack 0
  1012                           
  1013                           ; 1 bytes @ 0x48
  1014  000049                     	ds	1
  1015  00004A                     
  1016                           ; 1 bytes @ 0x49
  1017 ;;
  1018 ;;Main: autosize = 0, tempsize = 4, incstack = 0, save=0
  1019 ;;
  1020 ;; *************** function _main *****************
  1021 ;; Defined at:
  1022 ;;		line 131 in file "C:\Users\JeeJ\MPLABXProjects\ProjetoF_micro.X\main.c"
  1023 ;; Parameters:    Size  Location     Type
  1024 ;;		None
  1025 ;; Auto vars:     Size  Location     Type
  1026 ;;  gasLimit        2   82[BANK0 ] int 
  1027 ;;  humLimit        2   80[BANK0 ] int 
  1028 ;;  tempLimit       2   78[BANK0 ] int 
  1029 ;;  currentTemp     4   74[BANK0 ] float 
  1030 ;;  currentGas      4   70[BANK0 ] float 
  1031 ;;  currentHumid    4   66[BANK0 ] float 
  1032 ;;  currentTime     4   62[BANK0 ] unsigned long 
  1033 ;;  lastDisplayU    4   58[BANK0 ] unsigned long 
  1034 ;;  menuIndex       2   86[BANK0 ] int 
  1035 ;;  pressed_key     1   85[BANK0 ] unsigned char 
  1036 ;;  lastKey         1   84[BANK0 ] unsigned char 
  1037 ;; Return value:  Size  Location     Type
  1038 ;;                  1    wreg      void 
  1039 ;; Registers used:
  1040 ;;		wreg, fsr1l, fsr1h, fsr2l, fsr2h, status,2, status,0, tblptrl, tblptrh, tblptru, prodl, prodh, cstack
  1041 ;; Tracked objects:
  1042 ;;		On entry : 0/0
  1043 ;;		On exit  : 0/0
  1044 ;;		Unchanged: 0/0
  1045 ;; Data sizes:     COMRAM   BANK0   BANK1   BANK2   BANK3   BANK4   BANK5   BANK6   BANK7
  1046 ;;      Params:         0       0       0       0       0       0       0       0       0
  1047 ;;      Locals:         0      30       0       0       0       0       0       0       0
  1048 ;;      Temps:          0       4       0       0       0       0       0       0       0
  1049 ;;      Totals:         0      34       0       0       0       0       0       0       0
  1050 ;;Total ram usage:       34 bytes
  1051 ;; Hardware stack levels required when called: 6
  1052 ;; This function calls:
  1053 ;;		___flge
  1054 ;;		___xxtofl
  1055 ;;		_buzzer
  1056 ;;		_configureADC
  1057 ;;		_configureIO
  1058 ;;		_configureInterrupt
  1059 ;;		_configureLCD
  1060 ;;		_configureTimer
  1061 ;;		_displayMenu
  1062 ;;		_displayStuff
  1063 ;;		_gasRead
  1064 ;;		_humidade
  1065 ;;		_millis
  1066 ;;		_readKey
  1067 ;;		_readTwoDigitValue
  1068 ;;		_setCoolerSpeed
  1069 ;;		_setMoist
  1070 ;;		_tempRead
  1071 ;; This function is called by:
  1072 ;;		Startup code after reset
  1073 ;; This function uses a non-reentrant model
  1074 ;;
  1075                           
  1076                           	psect	text0
  1077  0008C8                     __ptext0:
  1078                           	callstack 0
  1079  0008C8                     _main:
  1080                           	callstack 25
  1081  0008C8                     
  1082                           ;C:\Users\JeeJ\MPLABXProjects\ProjetoF_micro.X\main.c: 132:     char lastKey = '\0';
  1083  0008C8  0E00               	movlw	0
  1084  0008CA  0100               	movlb	0	; () banked
  1085  0008CC  6FB4               	movwf	main@lastKey& (0+255),b
  1086                           
  1087                           ;C:\Users\JeeJ\MPLABXProjects\ProjetoF_micro.X\main.c: 133:     int menuIndex = 0;
  1088  0008CE  0E00               	movlw	0
  1089  0008D0  6FB7               	movwf	(main@menuIndex+1)& (0+255),b
  1090  0008D2  0E00               	movlw	0
  1091  0008D4  6FB6               	movwf	main@menuIndex& (0+255),b
  1092                           
  1093                           ;C:\Users\JeeJ\MPLABXProjects\ProjetoF_micro.X\main.c: 134:     unsigned long lastDispla
      +                          yUpdate = 0;
  1094  0008D6  0E00               	movlw	0
  1095  0008D8  6F9A               	movwf	main@lastDisplayUpdate& (0+255),b
  1096  0008DA  0E00               	movlw	0
  1097  0008DC  6F9B               	movwf	(main@lastDisplayUpdate+1)& (0+255),b
  1098  0008DE  0E00               	movlw	0
  1099  0008E0  6F9C               	movwf	(main@lastDisplayUpdate+2)& (0+255),b
  1100  0008E2  0E00               	movlw	0
  1101  0008E4  6F9D               	movwf	(main@lastDisplayUpdate+3)& (0+255),b
  1102  0008E6                     
  1103                           ; BSR set to: 0
  1104                           ;C:\Users\JeeJ\MPLABXProjects\ProjetoF_micro.X\main.c: 135:     char pressed_key;;C:\Use
      +                          rs\JeeJ\MPLABXProjects\ProjetoF_micro.X\main.c: 136:     unsigned long currentTime;;C:\U
      +                          sers\JeeJ\MPLABXProjects\ProjetoF_micro.X\main.c: 137:     float currentTemp;;C:\Users\J
      +                          eeJ\MPLABXProjects\ProjetoF_micro.X\main.c: 138:     float currentHumid;;C:\Users\JeeJ\M
      +                          PLABXProjects\ProjetoF_micro.X\main.c: 139:     float currentGas;;C:\Users\JeeJ\MPLABXPr
      +                          ojects\ProjetoF_micro.X\main.c: 142:     configureIO();
  1105  0008E6  ECF7  F017         	call	_configureIO	;wreg free
  1106  0008EA                     
  1107                           ;C:\Users\JeeJ\MPLABXProjects\ProjetoF_micro.X\main.c: 143:     configureADC();
  1108  0008EA  EC27  F018         	call	_configureADC	;wreg free
  1109  0008EE                     
  1110                           ;C:\Users\JeeJ\MPLABXProjects\ProjetoF_micro.X\main.c: 144:     configureLCD();
  1111  0008EE  EC24  F017         	call	_configureLCD	;wreg free
  1112  0008F2                     
  1113                           ;C:\Users\JeeJ\MPLABXProjects\ProjetoF_micro.X\main.c: 145:     configureTimer();
  1114  0008F2  EC21  F018         	call	_configureTimer	;wreg free
  1115  0008F6                     
  1116                           ;C:\Users\JeeJ\MPLABXProjects\ProjetoF_micro.X\main.c: 146:     configureInterrupt();
  1117  0008F6  EC06  F018         	call	_configureInterrupt	;wreg free
  1118  0008FA                     
  1119                           ;C:\Users\JeeJ\MPLABXProjects\ProjetoF_micro.X\main.c: 149:     TRISDbits.TRISD0 = 0;
  1120  0008FA  9095               	bcf	149,0,c	;volatile
  1121  0008FC                     
  1122                           ;C:\Users\JeeJ\MPLABXProjects\ProjetoF_micro.X\main.c: 150:     TRISDbits.TRISD1 = 0;
  1123  0008FC  9295               	bcf	149,1,c	;volatile
  1124  0008FE                     
  1125                           ;C:\Users\JeeJ\MPLABXProjects\ProjetoF_micro.X\main.c: 151:     TRISDbits.TRISD2 = 0;
  1126  0008FE  9495               	bcf	149,2,c	;volatile
  1127  000900                     l5215:
  1128                           
  1129                           ;C:\Users\JeeJ\MPLABXProjects\ProjetoF_micro.X\main.c: 155:         pressed_key = readKe
      +                          y();
  1130  000900  EC75  F00F         	call	_readKey	;wreg free
  1131  000904  0100               	movlb	0	; () banked
  1132  000906  6FB5               	movwf	main@pressed_key& (0+255),b
  1133  000908                     
  1134                           ; BSR set to: 0
  1135                           ;C:\Users\JeeJ\MPLABXProjects\ProjetoF_micro.X\main.c: 156:         currentTime = millis
      +                          ();
  1136  000908  ECE4  F017         	call	_millis	;wreg free
  1137  00090C  C00A  F09E         	movff	?_millis,main@currentTime
  1138  000910  C00B  F09F         	movff	?_millis+1,main@currentTime+1
  1139  000914  C00C  F0A0         	movff	?_millis+2,main@currentTime+2
  1140  000918  C00D  F0A1         	movff	?_millis+3,main@currentTime+3
  1141  00091C                     
  1142                           ;C:\Users\JeeJ\MPLABXProjects\ProjetoF_micro.X\main.c: 159:         if (currentTime - la
      +                          stDisplayUpdate >= 500) {
  1143  00091C  0100               	movlb	0	; () banked
  1144  00091E  519A               	movf	main@lastDisplayUpdate& (0+255),w,b
  1145  000920  5D9E               	subwf	main@currentTime& (0+255),w,b
  1146  000922  6F96               	movwf	??_main& (0+255),b
  1147  000924  519B               	movf	(main@lastDisplayUpdate+1)& (0+255),w,b
  1148  000926  599F               	subwfb	(main@currentTime+1)& (0+255),w,b
  1149  000928  6F97               	movwf	(??_main+1)& (0+255),b
  1150  00092A  519C               	movf	(main@lastDisplayUpdate+2)& (0+255),w,b
  1151  00092C  59A0               	subwfb	(main@currentTime+2)& (0+255),w,b
  1152  00092E  6F98               	movwf	(??_main+2)& (0+255),b
  1153  000930  519D               	movf	(main@lastDisplayUpdate+3)& (0+255),w,b
  1154  000932  59A1               	subwfb	(main@currentTime+3)& (0+255),w,b
  1155  000934  6F99               	movwf	(??_main+3)& (0+255),b
  1156  000936  5199               	movf	(??_main+3)& (0+255),w,b
  1157  000938  1198               	iorwf	(??_main+2)& (0+255),w,b
  1158  00093A  E10B               	bnz	u5260
  1159  00093C  0EF4               	movlw	244
  1160  00093E  5D96               	subwf	??_main& (0+255),w,b
  1161  000940  0E01               	movlw	1
  1162  000942  5997               	subwfb	(??_main+1)& (0+255),w,b
  1163  000944  A0D8               	btfss	status,0,c
  1164  000946  EFA7  F004         	goto	u5261
  1165  00094A  EFA9  F004         	goto	u5260
  1166  00094E                     u5261:
  1167  00094E  EFB7  F004         	goto	l5225
  1168  000952                     u5260:
  1169  000952                     
  1170                           ; BSR set to: 0
  1171                           ;C:\Users\JeeJ\MPLABXProjects\ProjetoF_micro.X\main.c: 160:             displayMenu(menu
      +                          Index);
  1172  000952  C0B6  F076         	movff	main@menuIndex,displayMenu@menuIndex
  1173  000956  C0B7  F077         	movff	main@menuIndex+1,displayMenu@menuIndex+1
  1174  00095A  EC09  F000         	call	_displayMenu	;wreg free
  1175  00095E                     
  1176                           ;C:\Users\JeeJ\MPLABXProjects\ProjetoF_micro.X\main.c: 161:             lastDisplayUpdat
      +                          e = currentTime;
  1177  00095E  C09E  F09A         	movff	main@currentTime,main@lastDisplayUpdate
  1178  000962  C09F  F09B         	movff	main@currentTime+1,main@lastDisplayUpdate+1
  1179  000966  C0A0  F09C         	movff	main@currentTime+2,main@lastDisplayUpdate+2
  1180  00096A  C0A1  F09D         	movff	main@currentTime+3,main@lastDisplayUpdate+3
  1181  00096E                     l5225:
  1182                           
  1183                           ;C:\Users\JeeJ\MPLABXProjects\ProjetoF_micro.X\main.c: 165:         if (pressed_key == '
      +                          E' && lastKey != 'E') {
  1184  00096E  0E45               	movlw	69
  1185  000970  0100               	movlb	0	; () banked
  1186  000972  19B5               	xorwf	main@pressed_key& (0+255),w,b
  1187  000974  A4D8               	btfss	status,2,c
  1188  000976  EFBF  F004         	goto	u5271
  1189  00097A  EFC1  F004         	goto	u5270
  1190  00097E                     u5271:
  1191  00097E  EFE4  F004         	goto	l5237
  1192  000982                     u5270:
  1193  000982                     
  1194                           ; BSR set to: 0
  1195  000982  0E45               	movlw	69
  1196  000984  19B4               	xorwf	main@lastKey& (0+255),w,b
  1197  000986  B4D8               	btfsc	status,2,c
  1198  000988  EFC8  F004         	goto	u5281
  1199  00098C  EFCA  F004         	goto	u5280
  1200  000990                     u5281:
  1201  000990  EFE4  F004         	goto	l5237
  1202  000994                     u5280:
  1203  000994                     
  1204                           ; BSR set to: 0
  1205                           ;C:\Users\JeeJ\MPLABXProjects\ProjetoF_micro.X\main.c: 166:             menuIndex++;
  1206  000994  4BB6               	infsnz	main@menuIndex& (0+255),f,b
  1207  000996  2BB7               	incf	(main@menuIndex+1)& (0+255),f,b
  1208  000998                     
  1209                           ; BSR set to: 0
  1210                           ;C:\Users\JeeJ\MPLABXProjects\ProjetoF_micro.X\main.c: 167:             if (menuIndex > 
      +                          4) {
  1211  000998  BFB7               	btfsc	(main@menuIndex+1)& (0+255),7,b
  1212  00099A  EFD8  F004         	goto	u5291
  1213  00099E  51B7               	movf	(main@menuIndex+1)& (0+255),w,b
  1214  0009A0  E109               	bnz	u5290
  1215  0009A2  0E05               	movlw	5
  1216  0009A4  5DB6               	subwf	main@menuIndex& (0+255),w,b
  1217  0009A6  A0D8               	btfss	status,0,c
  1218  0009A8  EFD8  F004         	goto	u5291
  1219  0009AC  EFDA  F004         	goto	u5290
  1220  0009B0                     u5291:
  1221  0009B0  EFDE  F004         	goto	l5235
  1222  0009B4                     u5290:
  1223  0009B4                     
  1224                           ; BSR set to: 0
  1225                           ;C:\Users\JeeJ\MPLABXProjects\ProjetoF_micro.X\main.c: 168:                 menuIndex = 
      +                          0;
  1226  0009B4  0E00               	movlw	0
  1227  0009B6  6FB7               	movwf	(main@menuIndex+1)& (0+255),b
  1228  0009B8  0E00               	movlw	0
  1229  0009BA  6FB6               	movwf	main@menuIndex& (0+255),b
  1230  0009BC                     l5235:
  1231                           
  1232                           ; BSR set to: 0
  1233                           ;C:\Users\JeeJ\MPLABXProjects\ProjetoF_micro.X\main.c: 170:             displayMenu(menu
      +                          Index);
  1234  0009BC  C0B6  F076         	movff	main@menuIndex,displayMenu@menuIndex
  1235  0009C0  C0B7  F077         	movff	main@menuIndex+1,displayMenu@menuIndex+1
  1236  0009C4  EC09  F000         	call	_displayMenu	;wreg free
  1237  0009C8                     l5237:
  1238                           
  1239                           ;C:\Users\JeeJ\MPLABXProjects\ProjetoF_micro.X\main.c: 172:         if (pressed_key == '
      +                          F' && lastKey != 'F'){
  1240  0009C8  0E46               	movlw	70
  1241  0009CA  0100               	movlb	0	; () banked
  1242  0009CC  19B5               	xorwf	main@pressed_key& (0+255),w,b
  1243  0009CE  A4D8               	btfss	status,2,c
  1244  0009D0  EFEC  F004         	goto	u5301
  1245  0009D4  EFEE  F004         	goto	u5300
  1246  0009D8                     u5301:
  1247  0009D8  EF0B  F005         	goto	l5249
  1248  0009DC                     u5300:
  1249  0009DC                     
  1250                           ; BSR set to: 0
  1251  0009DC  0E46               	movlw	70
  1252  0009DE  19B4               	xorwf	main@lastKey& (0+255),w,b
  1253  0009E0  B4D8               	btfsc	status,2,c
  1254  0009E2  EFF5  F004         	goto	u5311
  1255  0009E6  EFF7  F004         	goto	u5310
  1256  0009EA                     u5311:
  1257  0009EA  EF0B  F005         	goto	l5249
  1258  0009EE                     u5310:
  1259  0009EE                     
  1260                           ; BSR set to: 0
  1261                           ;C:\Users\JeeJ\MPLABXProjects\ProjetoF_micro.X\main.c: 173:             menuIndex--;
  1262  0009EE  07B6               	decf	main@menuIndex& (0+255),f,b
  1263  0009F0  A0D8               	btfss	status,0,c
  1264  0009F2  07B7               	decf	(main@menuIndex+1)& (0+255),f,b
  1265  0009F4                     
  1266                           ; BSR set to: 0
  1267                           ;C:\Users\JeeJ\MPLABXProjects\ProjetoF_micro.X\main.c: 174:             if (menuIndex < 
      +                          0) {
  1268  0009F4  BFB7               	btfsc	(main@menuIndex+1)& (0+255),7,b
  1269  0009F6  EF01  F005         	goto	u5320
  1270  0009FA  EFFF  F004         	goto	u5321
  1271  0009FE                     u5321:
  1272  0009FE  EF05  F005         	goto	l5247
  1273  000A02                     u5320:
  1274  000A02                     
  1275                           ; BSR set to: 0
  1276                           ;C:\Users\JeeJ\MPLABXProjects\ProjetoF_micro.X\main.c: 175:                 menuIndex = 
      +                          4;
  1277  000A02  0E00               	movlw	0
  1278  000A04  6FB7               	movwf	(main@menuIndex+1)& (0+255),b
  1279  000A06  0E04               	movlw	4
  1280  000A08  6FB6               	movwf	main@menuIndex& (0+255),b
  1281  000A0A                     l5247:
  1282                           
  1283                           ; BSR set to: 0
  1284                           ;C:\Users\JeeJ\MPLABXProjects\ProjetoF_micro.X\main.c: 177:             displayMenu(menu
      +                          Index);
  1285  000A0A  C0B6  F076         	movff	main@menuIndex,displayMenu@menuIndex
  1286  000A0E  C0B7  F077         	movff	main@menuIndex+1,displayMenu@menuIndex+1
  1287  000A12  EC09  F000         	call	_displayMenu	;wreg free
  1288  000A16                     l5249:
  1289                           
  1290                           ;C:\Users\JeeJ\MPLABXProjects\ProjetoF_micro.X\main.c: 181:         if (pressed_key == '
      +                          A' && lastKey != 'A') {
  1291  000A16  0E41               	movlw	65
  1292  000A18  0100               	movlb	0	; () banked
  1293  000A1A  19B5               	xorwf	main@pressed_key& (0+255),w,b
  1294  000A1C  A4D8               	btfss	status,2,c
  1295  000A1E  EF13  F005         	goto	u5331
  1296  000A22  EF15  F005         	goto	u5330
  1297  000A26                     u5331:
  1298  000A26  EF6B  F005         	goto	l5273
  1299  000A2A                     u5330:
  1300  000A2A                     
  1301                           ; BSR set to: 0
  1302  000A2A  0E41               	movlw	65
  1303  000A2C  19B4               	xorwf	main@lastKey& (0+255),w,b
  1304  000A2E  B4D8               	btfsc	status,2,c
  1305  000A30  EF1C  F005         	goto	u5341
  1306  000A34  EF1E  F005         	goto	u5340
  1307  000A38                     u5341:
  1308  000A38  EF6B  F005         	goto	l5273
  1309  000A3C                     u5340:
  1310  000A3C                     
  1311                           ; BSR set to: 0
  1312                           ;C:\Users\JeeJ\MPLABXProjects\ProjetoF_micro.X\main.c: 182:             int tempLimit = 
      +                          readTwoDigitValue("Limite Temp:");
  1313  000A3C  0E89               	movlw	low STR_1
  1314  000A3E  6E29               	movwf	readTwoDigitValue@prompt^0,c
  1315  000A40  0E7F               	movlw	high STR_1
  1316  000A42  6E2A               	movwf	(readTwoDigitValue@prompt+1)^0,c
  1317  000A44  ECEB  F011         	call	_readTwoDigitValue	;wreg free
  1318  000A48  C029  F0AE         	movff	?_readTwoDigitValue,main@tempLimit
  1319  000A4C  C02A  F0AF         	movff	?_readTwoDigitValue+1,main@tempLimit+1
  1320  000A50                     
  1321                           ;C:\Users\JeeJ\MPLABXProjects\ProjetoF_micro.X\main.c: 183:             if (tempLimit !=
      +                           -1) {
  1322  000A50  0100               	movlb	0	; () banked
  1323  000A52  29AE               	incf	main@tempLimit& (0+255),w,b
  1324  000A54  E108               	bnz	u5350
  1325  000A56  29AF               	incf	(main@tempLimit+1)& (0+255),w,b
  1326  000A58  B4D8               	btfsc	status,2,c
  1327  000A5A  EF31  F005         	goto	u5351
  1328  000A5E  EF33  F005         	goto	u5350
  1329  000A62                     u5351:
  1330  000A62  EF5F  F005         	goto	l5267
  1331  000A66                     u5350:
  1332  000A66                     
  1333                           ; BSR set to: 0
  1334                           ;C:\Users\JeeJ\MPLABXProjects\ProjetoF_micro.X\main.c: 184:                 Tlim = tempL
      +                          imit;
  1335  000A66  C0AE  F0D6         	movff	main@tempLimit,_Tlim
  1336  000A6A  C0AF  F0D7         	movff	main@tempLimit+1,_Tlim+1
  1337  000A6E                     
  1338                           ; BSR set to: 0
  1339                           ;C:\Users\JeeJ\MPLABXProjects\ProjetoF_micro.X\main.c: 185:                 displayStuff
      +                          (1, 0, "Temp Salva!");
  1340  000A6E  0E00               	movlw	0
  1341  000A70  6E0C               	movwf	(displayStuff@row+1)^0,c
  1342  000A72  0E01               	movlw	1
  1343  000A74  6E0B               	movwf	displayStuff@row^0,c
  1344  000A76  0E00               	movlw	0
  1345  000A78  6E0E               	movwf	(displayStuff@column+1)^0,c
  1346  000A7A  0E00               	movlw	0
  1347  000A7C  6E0D               	movwf	displayStuff@column^0,c
  1348  000A7E  0E96               	movlw	low STR_2
  1349  000A80  6E0F               	movwf	displayStuff@stuff^0,c
  1350  000A82  0E7F               	movlw	high STR_2
  1351  000A84  6E10               	movwf	(displayStuff@stuff+1)^0,c
  1352  000A86  ECD0  F015         	call	_displayStuff	;wreg free
  1353  000A8A                     
  1354                           ;C:\Users\JeeJ\MPLABXProjects\ProjetoF_micro.X\main.c: 186:                 _delay((unsi
      +                          gned long)((1000)*(20000000/4000.0)));
  1355  000A8A  0E1A               	movlw	26
  1356  000A8C  0100               	movlb	0	; () banked
  1357  000A8E  6F97               	movwf	(??_main+1)& (0+255),b
  1358  000A90  0E5E               	movlw	94
  1359  000A92  6F96               	movwf	??_main& (0+255),b
  1360  000A94  0E6E               	movlw	110
  1361  000A96                     u5547:
  1362  000A96  2EE8               	decfsz	wreg,f,c
  1363  000A98  D7FE               	bra	u5547
  1364  000A9A  2F96               	decfsz	??_main& (0+255),f,b
  1365  000A9C  D7FC               	bra	u5547
  1366  000A9E  2F97               	decfsz	(??_main+1)& (0+255),f,b
  1367  000AA0  D7FA               	bra	u5547
  1368  000AA2  F000               	nop	
  1369  000AA4                     l5263:
  1370                           
  1371                           ;C:\Users\JeeJ\MPLABXProjects\ProjetoF_micro.X\main.c: 187:                 menuIndex = 
      +                          0;
  1372  000AA4  0E00               	movlw	0
  1373  000AA6  0100               	movlb	0	; () banked
  1374  000AA8  6FB7               	movwf	(main@menuIndex+1)& (0+255),b
  1375  000AAA  0E00               	movlw	0
  1376  000AAC  6FB6               	movwf	main@menuIndex& (0+255),b
  1377  000AAE                     
  1378                           ; BSR set to: 0
  1379                           ;C:\Users\JeeJ\MPLABXProjects\ProjetoF_micro.X\main.c: 188:                 displayMenu(
      +                          menuIndex);
  1380  000AAE  0E00               	movlw	0
  1381  000AB0  6F77               	movwf	(displayMenu@menuIndex+1)& (0+255),b
  1382  000AB2  0E00               	movlw	0
  1383  000AB4  6F76               	movwf	displayMenu@menuIndex& (0+255),b
  1384  000AB6  EC09  F000         	call	_displayMenu	;wreg free
  1385                           
  1386                           ;C:\Users\JeeJ\MPLABXProjects\ProjetoF_micro.X\main.c: 189:             } else if (tempL
      +                          imit == -1) {
  1387  000ABA  EF6B  F005         	goto	l5273
  1388  000ABE                     l5267:
  1389                           
  1390                           ; BSR set to: 0
  1391  000ABE  29AE               	incf	main@tempLimit& (0+255),w,b
  1392  000AC0  E106               	bnz	u5361
  1393  000AC2  29AF               	incf	(main@tempLimit+1)& (0+255),w,b
  1394  000AC4  A4D8               	btfss	status,2,c
  1395  000AC6  EF67  F005         	goto	u5361
  1396  000ACA  EF69  F005         	goto	u5360
  1397  000ACE                     u5361:
  1398  000ACE  EF6B  F005         	goto	l5273
  1399  000AD2                     u5360:
  1400  000AD2  EF52  F005         	goto	l5263
  1401  000AD6                     l5273:
  1402                           
  1403                           ;C:\Users\JeeJ\MPLABXProjects\ProjetoF_micro.X\main.c: 195:         if (pressed_key == '
      +                          B' && lastKey != 'B') {
  1404  000AD6  0E42               	movlw	66
  1405  000AD8  0100               	movlb	0	; () banked
  1406  000ADA  19B5               	xorwf	main@pressed_key& (0+255),w,b
  1407  000ADC  A4D8               	btfss	status,2,c
  1408  000ADE  EF73  F005         	goto	u5371
  1409  000AE2  EF75  F005         	goto	u5370
  1410  000AE6                     u5371:
  1411  000AE6  EFCB  F005         	goto	l5297
  1412  000AEA                     u5370:
  1413  000AEA                     
  1414                           ; BSR set to: 0
  1415  000AEA  0E42               	movlw	66
  1416  000AEC  19B4               	xorwf	main@lastKey& (0+255),w,b
  1417  000AEE  B4D8               	btfsc	status,2,c
  1418  000AF0  EF7C  F005         	goto	u5381
  1419  000AF4  EF7E  F005         	goto	u5380
  1420  000AF8                     u5381:
  1421  000AF8  EFCB  F005         	goto	l5297
  1422  000AFC                     u5380:
  1423  000AFC                     
  1424                           ; BSR set to: 0
  1425                           ;C:\Users\JeeJ\MPLABXProjects\ProjetoF_micro.X\main.c: 196:             int humLimit = r
      +                          eadTwoDigitValue("Limite Hum:");
  1426  000AFC  0EA2               	movlw	low STR_3
  1427  000AFE  6E29               	movwf	readTwoDigitValue@prompt^0,c
  1428  000B00  0E7F               	movlw	high STR_3
  1429  000B02  6E2A               	movwf	(readTwoDigitValue@prompt+1)^0,c
  1430  000B04  ECEB  F011         	call	_readTwoDigitValue	;wreg free
  1431  000B08  C029  F0B0         	movff	?_readTwoDigitValue,main@humLimit
  1432  000B0C  C02A  F0B1         	movff	?_readTwoDigitValue+1,main@humLimit+1
  1433  000B10                     
  1434                           ;C:\Users\JeeJ\MPLABXProjects\ProjetoF_micro.X\main.c: 197:             if (humLimit != 
      +                          -1) {
  1435  000B10  0100               	movlb	0	; () banked
  1436  000B12  29B0               	incf	main@humLimit& (0+255),w,b
  1437  000B14  E108               	bnz	u5390
  1438  000B16  29B1               	incf	(main@humLimit+1)& (0+255),w,b
  1439  000B18  B4D8               	btfsc	status,2,c
  1440  000B1A  EF91  F005         	goto	u5391
  1441  000B1E  EF93  F005         	goto	u5390
  1442  000B22                     u5391:
  1443  000B22  EFBF  F005         	goto	l5291
  1444  000B26                     u5390:
  1445  000B26                     
  1446                           ; BSR set to: 0
  1447                           ;C:\Users\JeeJ\MPLABXProjects\ProjetoF_micro.X\main.c: 198:                 Hlim = humLi
      +                          mit;
  1448  000B26  C0B0  F0D4         	movff	main@humLimit,_Hlim
  1449  000B2A  C0B1  F0D5         	movff	main@humLimit+1,_Hlim+1
  1450  000B2E                     
  1451                           ; BSR set to: 0
  1452                           ;C:\Users\JeeJ\MPLABXProjects\ProjetoF_micro.X\main.c: 199:                 displayStuff
      +                          (1, 0, "Humid Salvo!");
  1453  000B2E  0E00               	movlw	0
  1454  000B30  6E0C               	movwf	(displayStuff@row+1)^0,c
  1455  000B32  0E01               	movlw	1
  1456  000B34  6E0B               	movwf	displayStuff@row^0,c
  1457  000B36  0E00               	movlw	0
  1458  000B38  6E0E               	movwf	(displayStuff@column+1)^0,c
  1459  000B3A  0E00               	movlw	0
  1460  000B3C  6E0D               	movwf	displayStuff@column^0,c
  1461  000B3E  0E7C               	movlw	low STR_4
  1462  000B40  6E0F               	movwf	displayStuff@stuff^0,c
  1463  000B42  0E7F               	movlw	high STR_4
  1464  000B44  6E10               	movwf	(displayStuff@stuff+1)^0,c
  1465  000B46  ECD0  F015         	call	_displayStuff	;wreg free
  1466  000B4A                     
  1467                           ;C:\Users\JeeJ\MPLABXProjects\ProjetoF_micro.X\main.c: 200:                 _delay((unsi
      +                          gned long)((1000)*(20000000/4000.0)));
  1468  000B4A  0E1A               	movlw	26
  1469  000B4C  0100               	movlb	0	; () banked
  1470  000B4E  6F97               	movwf	(??_main+1)& (0+255),b
  1471  000B50  0E5E               	movlw	94
  1472  000B52  6F96               	movwf	??_main& (0+255),b
  1473  000B54  0E6E               	movlw	110
  1474  000B56                     u5557:
  1475  000B56  2EE8               	decfsz	wreg,f,c
  1476  000B58  D7FE               	bra	u5557
  1477  000B5A  2F96               	decfsz	??_main& (0+255),f,b
  1478  000B5C  D7FC               	bra	u5557
  1479  000B5E  2F97               	decfsz	(??_main+1)& (0+255),f,b
  1480  000B60  D7FA               	bra	u5557
  1481  000B62  F000               	nop	
  1482  000B64                     l5287:
  1483                           
  1484                           ;C:\Users\JeeJ\MPLABXProjects\ProjetoF_micro.X\main.c: 201:                 menuIndex = 
      +                          0;
  1485  000B64  0E00               	movlw	0
  1486  000B66  0100               	movlb	0	; () banked
  1487  000B68  6FB7               	movwf	(main@menuIndex+1)& (0+255),b
  1488  000B6A  0E00               	movlw	0
  1489  000B6C  6FB6               	movwf	main@menuIndex& (0+255),b
  1490  000B6E                     
  1491                           ; BSR set to: 0
  1492                           ;C:\Users\JeeJ\MPLABXProjects\ProjetoF_micro.X\main.c: 202:                 displayMenu(
      +                          menuIndex);
  1493  000B6E  0E00               	movlw	0
  1494  000B70  6F77               	movwf	(displayMenu@menuIndex+1)& (0+255),b
  1495  000B72  0E00               	movlw	0
  1496  000B74  6F76               	movwf	displayMenu@menuIndex& (0+255),b
  1497  000B76  EC09  F000         	call	_displayMenu	;wreg free
  1498                           
  1499                           ;C:\Users\JeeJ\MPLABXProjects\ProjetoF_micro.X\main.c: 203:             } else if (humLi
      +                          mit == -1) {
  1500  000B7A  EFCB  F005         	goto	l5297
  1501  000B7E                     l5291:
  1502                           
  1503                           ; BSR set to: 0
  1504  000B7E  29B0               	incf	main@humLimit& (0+255),w,b
  1505  000B80  E106               	bnz	u5401
  1506  000B82  29B1               	incf	(main@humLimit+1)& (0+255),w,b
  1507  000B84  A4D8               	btfss	status,2,c
  1508  000B86  EFC7  F005         	goto	u5401
  1509  000B8A  EFC9  F005         	goto	u5400
  1510  000B8E                     u5401:
  1511  000B8E  EFCB  F005         	goto	l5297
  1512  000B92                     u5400:
  1513  000B92  EFB2  F005         	goto	l5287
  1514  000B96                     l5297:
  1515                           
  1516                           ;C:\Users\JeeJ\MPLABXProjects\ProjetoF_micro.X\main.c: 209:         if (pressed_key == '
      +                          C' && lastKey != 'C') {
  1517  000B96  0E43               	movlw	67
  1518  000B98  0100               	movlb	0	; () banked
  1519  000B9A  19B5               	xorwf	main@pressed_key& (0+255),w,b
  1520  000B9C  A4D8               	btfss	status,2,c
  1521  000B9E  EFD3  F005         	goto	u5411
  1522  000BA2  EFD5  F005         	goto	u5410
  1523  000BA6                     u5411:
  1524  000BA6  EF2B  F006         	goto	l5321
  1525  000BAA                     u5410:
  1526  000BAA                     
  1527                           ; BSR set to: 0
  1528  000BAA  0E43               	movlw	67
  1529  000BAC  19B4               	xorwf	main@lastKey& (0+255),w,b
  1530  000BAE  B4D8               	btfsc	status,2,c
  1531  000BB0  EFDC  F005         	goto	u5421
  1532  000BB4  EFDE  F005         	goto	u5420
  1533  000BB8                     u5421:
  1534  000BB8  EF2B  F006         	goto	l5321
  1535  000BBC                     u5420:
  1536  000BBC                     
  1537                           ; BSR set to: 0
  1538                           ;C:\Users\JeeJ\MPLABXProjects\ProjetoF_micro.X\main.c: 210:             int gasLimit = r
      +                          eadTwoDigitValue("Limite Gas");
  1539  000BBC  0EC5               	movlw	low STR_5
  1540  000BBE  6E29               	movwf	readTwoDigitValue@prompt^0,c
  1541  000BC0  0E7F               	movlw	high STR_5
  1542  000BC2  6E2A               	movwf	(readTwoDigitValue@prompt+1)^0,c
  1543  000BC4  ECEB  F011         	call	_readTwoDigitValue	;wreg free
  1544  000BC8  C029  F0B2         	movff	?_readTwoDigitValue,main@gasLimit
  1545  000BCC  C02A  F0B3         	movff	?_readTwoDigitValue+1,main@gasLimit+1
  1546  000BD0                     
  1547                           ;C:\Users\JeeJ\MPLABXProjects\ProjetoF_micro.X\main.c: 211:             if (gasLimit != 
      +                          -1) {
  1548  000BD0  0100               	movlb	0	; () banked
  1549  000BD2  29B2               	incf	main@gasLimit& (0+255),w,b
  1550  000BD4  E108               	bnz	u5430
  1551  000BD6  29B3               	incf	(main@gasLimit+1)& (0+255),w,b
  1552  000BD8  B4D8               	btfsc	status,2,c
  1553  000BDA  EFF1  F005         	goto	u5431
  1554  000BDE  EFF3  F005         	goto	u5430
  1555  000BE2                     u5431:
  1556  000BE2  EF1F  F006         	goto	l5315
  1557  000BE6                     u5430:
  1558  000BE6                     
  1559                           ; BSR set to: 0
  1560                           ;C:\Users\JeeJ\MPLABXProjects\ProjetoF_micro.X\main.c: 212:                 Glim = gasLi
      +                          mit;
  1561  000BE6  C0B2  F0D2         	movff	main@gasLimit,_Glim
  1562  000BEA  C0B3  F0D3         	movff	main@gasLimit+1,_Glim+1
  1563  000BEE                     
  1564                           ; BSR set to: 0
  1565                           ;C:\Users\JeeJ\MPLABXProjects\ProjetoF_micro.X\main.c: 213:                 displayStuff
      +                          (1, 0, "Gas Salvo!");
  1566  000BEE  0E00               	movlw	0
  1567  000BF0  6E0C               	movwf	(displayStuff@row+1)^0,c
  1568  000BF2  0E01               	movlw	1
  1569  000BF4  6E0B               	movwf	displayStuff@row^0,c
  1570  000BF6  0E00               	movlw	0
  1571  000BF8  6E0E               	movwf	(displayStuff@column+1)^0,c
  1572  000BFA  0E00               	movlw	0
  1573  000BFC  6E0D               	movwf	displayStuff@column^0,c
  1574  000BFE  0EBA               	movlw	low STR_6
  1575  000C00  6E0F               	movwf	displayStuff@stuff^0,c
  1576  000C02  0E7F               	movlw	high STR_6
  1577  000C04  6E10               	movwf	(displayStuff@stuff+1)^0,c
  1578  000C06  ECD0  F015         	call	_displayStuff	;wreg free
  1579  000C0A                     
  1580                           ;C:\Users\JeeJ\MPLABXProjects\ProjetoF_micro.X\main.c: 214:                 _delay((unsi
      +                          gned long)((1000)*(20000000/4000.0)));
  1581  000C0A  0E1A               	movlw	26
  1582  000C0C  0100               	movlb	0	; () banked
  1583  000C0E  6F97               	movwf	(??_main+1)& (0+255),b
  1584  000C10  0E5E               	movlw	94
  1585  000C12  6F96               	movwf	??_main& (0+255),b
  1586  000C14  0E6E               	movlw	110
  1587  000C16                     u5567:
  1588  000C16  2EE8               	decfsz	wreg,f,c
  1589  000C18  D7FE               	bra	u5567
  1590  000C1A  2F96               	decfsz	??_main& (0+255),f,b
  1591  000C1C  D7FC               	bra	u5567
  1592  000C1E  2F97               	decfsz	(??_main+1)& (0+255),f,b
  1593  000C20  D7FA               	bra	u5567
  1594  000C22  F000               	nop	
  1595  000C24                     l5311:
  1596                           
  1597                           ;C:\Users\JeeJ\MPLABXProjects\ProjetoF_micro.X\main.c: 215:                 menuIndex = 
      +                          0;
  1598  000C24  0E00               	movlw	0
  1599  000C26  0100               	movlb	0	; () banked
  1600  000C28  6FB7               	movwf	(main@menuIndex+1)& (0+255),b
  1601  000C2A  0E00               	movlw	0
  1602  000C2C  6FB6               	movwf	main@menuIndex& (0+255),b
  1603  000C2E                     
  1604                           ; BSR set to: 0
  1605                           ;C:\Users\JeeJ\MPLABXProjects\ProjetoF_micro.X\main.c: 216:                 displayMenu(
      +                          menuIndex);
  1606  000C2E  0E00               	movlw	0
  1607  000C30  6F77               	movwf	(displayMenu@menuIndex+1)& (0+255),b
  1608  000C32  0E00               	movlw	0
  1609  000C34  6F76               	movwf	displayMenu@menuIndex& (0+255),b
  1610  000C36  EC09  F000         	call	_displayMenu	;wreg free
  1611                           
  1612                           ;C:\Users\JeeJ\MPLABXProjects\ProjetoF_micro.X\main.c: 217:             } else if (gasLi
      +                          mit == -1) {
  1613  000C3A  EF2B  F006         	goto	l5321
  1614  000C3E                     l5315:
  1615                           
  1616                           ; BSR set to: 0
  1617  000C3E  29B2               	incf	main@gasLimit& (0+255),w,b
  1618  000C40  E106               	bnz	u5441
  1619  000C42  29B3               	incf	(main@gasLimit+1)& (0+255),w,b
  1620  000C44  A4D8               	btfss	status,2,c
  1621  000C46  EF27  F006         	goto	u5441
  1622  000C4A  EF29  F006         	goto	u5440
  1623  000C4E                     u5441:
  1624  000C4E  EF2B  F006         	goto	l5321
  1625  000C52                     u5440:
  1626  000C52  EF12  F006         	goto	l5311
  1627  000C56                     l5321:
  1628                           
  1629                           ;C:\Users\JeeJ\MPLABXProjects\ProjetoF_micro.X\main.c: 223:         if (pressed_key == '
      +                          D' && lastKey != 'D') {
  1630  000C56  0E44               	movlw	68
  1631  000C58  0100               	movlb	0	; () banked
  1632  000C5A  19B5               	xorwf	main@pressed_key& (0+255),w,b
  1633  000C5C  A4D8               	btfss	status,2,c
  1634  000C5E  EF33  F006         	goto	u5451
  1635  000C62  EF35  F006         	goto	u5450
  1636  000C66                     u5451:
  1637  000C66  EF70  F006         	goto	l5335
  1638  000C6A                     u5450:
  1639  000C6A                     
  1640                           ; BSR set to: 0
  1641  000C6A  0E44               	movlw	68
  1642  000C6C  19B4               	xorwf	main@lastKey& (0+255),w,b
  1643  000C6E  B4D8               	btfsc	status,2,c
  1644  000C70  EF3C  F006         	goto	u5461
  1645  000C74  EF3E  F006         	goto	u5460
  1646  000C78                     u5461:
  1647  000C78  EF70  F006         	goto	l5335
  1648  000C7C                     u5460:
  1649  000C7C                     
  1650                           ; BSR set to: 0
  1651                           ;C:\Users\JeeJ\MPLABXProjects\ProjetoF_micro.X\main.c: 224:             Tlim = 30;
  1652  000C7C  0E00               	movlw	0
  1653  000C7E  6FD7               	movwf	(_Tlim+1)& (0+255),b
  1654  000C80  0E1E               	movlw	30
  1655  000C82  6FD6               	movwf	_Tlim& (0+255),b
  1656                           
  1657                           ;C:\Users\JeeJ\MPLABXProjects\ProjetoF_micro.X\main.c: 225:             Hlim = 50;
  1658  000C84  0E00               	movlw	0
  1659  000C86  6FD5               	movwf	(_Hlim+1)& (0+255),b
  1660  000C88  0E32               	movlw	50
  1661  000C8A  6FD4               	movwf	_Hlim& (0+255),b
  1662                           
  1663                           ;C:\Users\JeeJ\MPLABXProjects\ProjetoF_micro.X\main.c: 226:             Glim = 20;
  1664  000C8C  0E00               	movlw	0
  1665  000C8E  6FD3               	movwf	(_Glim+1)& (0+255),b
  1666  000C90  0E14               	movlw	20
  1667  000C92  6FD2               	movwf	_Glim& (0+255),b
  1668  000C94                     
  1669                           ; BSR set to: 0
  1670                           ;C:\Users\JeeJ\MPLABXProjects\ProjetoF_micro.X\main.c: 227:             displayStuff(0, 
      +                          0, "Lim resetados!");
  1671  000C94  0E00               	movlw	0
  1672  000C96  6E0C               	movwf	(displayStuff@row+1)^0,c
  1673  000C98  0E00               	movlw	0
  1674  000C9A  6E0B               	movwf	displayStuff@row^0,c
  1675  000C9C  0E00               	movlw	0
  1676  000C9E  6E0E               	movwf	(displayStuff@column+1)^0,c
  1677  000CA0  0E00               	movlw	0
  1678  000CA2  6E0D               	movwf	displayStuff@column^0,c
  1679  000CA4  0E50               	movlw	low STR_7
  1680  000CA6  6E0F               	movwf	displayStuff@stuff^0,c
  1681  000CA8  0E7F               	movlw	high STR_7
  1682  000CAA  6E10               	movwf	(displayStuff@stuff+1)^0,c
  1683  000CAC  ECD0  F015         	call	_displayStuff	;wreg free
  1684  000CB0                     
  1685                           ;C:\Users\JeeJ\MPLABXProjects\ProjetoF_micro.X\main.c: 228:             _delay((unsigned
      +                           long)((1000)*(20000000/4000.0)));
  1686  000CB0  0E1A               	movlw	26
  1687  000CB2  0100               	movlb	0	; () banked
  1688  000CB4  6F97               	movwf	(??_main+1)& (0+255),b
  1689  000CB6  0E5E               	movlw	94
  1690  000CB8  6F96               	movwf	??_main& (0+255),b
  1691  000CBA  0E6E               	movlw	110
  1692  000CBC                     u5577:
  1693  000CBC  2EE8               	decfsz	wreg,f,c
  1694  000CBE  D7FE               	bra	u5577
  1695  000CC0  2F96               	decfsz	??_main& (0+255),f,b
  1696  000CC2  D7FC               	bra	u5577
  1697  000CC4  2F97               	decfsz	(??_main+1)& (0+255),f,b
  1698  000CC6  D7FA               	bra	u5577
  1699  000CC8  F000               	nop	
  1700  000CCA                     
  1701                           ;C:\Users\JeeJ\MPLABXProjects\ProjetoF_micro.X\main.c: 229:             menuIndex = 0;
  1702  000CCA  0E00               	movlw	0
  1703  000CCC  0100               	movlb	0	; () banked
  1704  000CCE  6FB7               	movwf	(main@menuIndex+1)& (0+255),b
  1705  000CD0  0E00               	movlw	0
  1706  000CD2  6FB6               	movwf	main@menuIndex& (0+255),b
  1707  000CD4                     
  1708                           ; BSR set to: 0
  1709                           ;C:\Users\JeeJ\MPLABXProjects\ProjetoF_micro.X\main.c: 230:             displayMenu(menu
      +                          Index);
  1710  000CD4  0E00               	movlw	0
  1711  000CD6  6F77               	movwf	(displayMenu@menuIndex+1)& (0+255),b
  1712  000CD8  0E00               	movlw	0
  1713  000CDA  6F76               	movwf	displayMenu@menuIndex& (0+255),b
  1714  000CDC  EC09  F000         	call	_displayMenu	;wreg free
  1715  000CE0                     l5335:
  1716                           
  1717                           ;C:\Users\JeeJ\MPLABXProjects\ProjetoF_micro.X\main.c: 234:         currentTemp = tempRe
      +                          ad();
  1718  000CE0  EC5B  F014         	call	_tempRead	;wreg free
  1719  000CE4  C060  F0AA         	movff	?_tempRead,main@currentTemp
  1720  000CE8  C061  F0AB         	movff	?_tempRead+1,main@currentTemp+1
  1721  000CEC  C062  F0AC         	movff	?_tempRead+2,main@currentTemp+2
  1722  000CF0  C063  F0AD         	movff	?_tempRead+3,main@currentTemp+3
  1723  000CF4                     
  1724                           ;C:\Users\JeeJ\MPLABXProjects\ProjetoF_micro.X\main.c: 235:         currentHumid = humid
      +                          ade();
  1725  000CF4  ECBA  F014         	call	_humidade	;wreg free
  1726  000CF8  C060  F0A2         	movff	?_humidade,main@currentHumid
  1727  000CFC  C061  F0A3         	movff	?_humidade+1,main@currentHumid+1
  1728  000D00  C062  F0A4         	movff	?_humidade+2,main@currentHumid+2
  1729  000D04  C063  F0A5         	movff	?_humidade+3,main@currentHumid+3
  1730  000D08                     
  1731                           ;C:\Users\JeeJ\MPLABXProjects\ProjetoF_micro.X\main.c: 236:         currentGas = gasRead
      +                          ();
  1732  000D08  EC19  F015         	call	_gasRead	;wreg free
  1733  000D0C  C060  F0A6         	movff	?_gasRead,main@currentGas
  1734  000D10  C061  F0A7         	movff	?_gasRead+1,main@currentGas+1
  1735  000D14  C062  F0A8         	movff	?_gasRead+2,main@currentGas+2
  1736  000D18  C063  F0A9         	movff	?_gasRead+3,main@currentGas+3
  1737  000D1C                     
  1738                           ;C:\Users\JeeJ\MPLABXProjects\ProjetoF_micro.X\main.c: 239:         if (currentTemp > Tl
      +                          im || currentHumid > Hlim || currentGas > Glim) {
  1739  000D1C  C0D6  F00A         	movff	_Tlim,___xxtofl@val
  1740  000D20  C0D7  F00B         	movff	_Tlim+1,___xxtofl@val+1
  1741  000D24  0E00               	movlw	0
  1742  000D26  BE0B               	btfsc	(___xxtofl@val+1)^0,7,c
  1743  000D28  0EFF               	movlw	-1
  1744  000D2A  6E0C               	movwf	(___xxtofl@val+2)^0,c
  1745  000D2C  6E0D               	movwf	(___xxtofl@val+3)^0,c
  1746  000D2E  0E01               	movlw	1
  1747  000D30  EC71  F010         	call	___xxtofl
  1748  000D34  C00A  F018         	movff	?___xxtofl,___flge@ff1
  1749  000D38  C00B  F019         	movff	?___xxtofl+1,___flge@ff1+1
  1750  000D3C  C00C  F01A         	movff	?___xxtofl+2,___flge@ff1+2
  1751  000D40  C00D  F01B         	movff	?___xxtofl+3,___flge@ff1+3
  1752  000D44  C0AA  F01C         	movff	main@currentTemp,___flge@ff2
  1753  000D48  C0AB  F01D         	movff	main@currentTemp+1,___flge@ff2+1
  1754  000D4C  C0AC  F01E         	movff	main@currentTemp+2,___flge@ff2+2
  1755  000D50  C0AD  F01F         	movff	main@currentTemp+3,___flge@ff2+3
  1756  000D54  EC00  F013         	call	___flge	;wreg free
  1757  000D58  A0D8               	btfss	status,0,c
  1758  000D5A  EFB1  F006         	goto	u5471
  1759  000D5E  EFB3  F006         	goto	u5470
  1760  000D62                     u5471:
  1761  000D62  EFFD  F006         	goto	l5347
  1762  000D66                     u5470:
  1763  000D66  C0D4  F00A         	movff	_Hlim,___xxtofl@val
  1764  000D6A  C0D5  F00B         	movff	_Hlim+1,___xxtofl@val+1
  1765  000D6E  0E00               	movlw	0
  1766  000D70  BE0B               	btfsc	(___xxtofl@val+1)^0,7,c
  1767  000D72  0EFF               	movlw	-1
  1768  000D74  6E0C               	movwf	(___xxtofl@val+2)^0,c
  1769  000D76  6E0D               	movwf	(___xxtofl@val+3)^0,c
  1770  000D78  0E01               	movlw	1
  1771  000D7A  EC71  F010         	call	___xxtofl
  1772  000D7E  C00A  F018         	movff	?___xxtofl,___flge@ff1
  1773  000D82  C00B  F019         	movff	?___xxtofl+1,___flge@ff1+1
  1774  000D86  C00C  F01A         	movff	?___xxtofl+2,___flge@ff1+2
  1775  000D8A  C00D  F01B         	movff	?___xxtofl+3,___flge@ff1+3
  1776  000D8E  C0A2  F01C         	movff	main@currentHumid,___flge@ff2
  1777  000D92  C0A3  F01D         	movff	main@currentHumid+1,___flge@ff2+1
  1778  000D96  C0A4  F01E         	movff	main@currentHumid+2,___flge@ff2+2
  1779  000D9A  C0A5  F01F         	movff	main@currentHumid+3,___flge@ff2+3
  1780  000D9E  EC00  F013         	call	___flge	;wreg free
  1781  000DA2  A0D8               	btfss	status,0,c
  1782  000DA4  EFD6  F006         	goto	u5481
  1783  000DA8  EFD8  F006         	goto	u5480
  1784  000DAC                     u5481:
  1785  000DAC  EFFD  F006         	goto	l5347
  1786  000DB0                     u5480:
  1787  000DB0  C0D2  F00A         	movff	_Glim,___xxtofl@val
  1788  000DB4  C0D3  F00B         	movff	_Glim+1,___xxtofl@val+1
  1789  000DB8  0E00               	movlw	0
  1790  000DBA  BE0B               	btfsc	(___xxtofl@val+1)^0,7,c
  1791  000DBC  0EFF               	movlw	-1
  1792  000DBE  6E0C               	movwf	(___xxtofl@val+2)^0,c
  1793  000DC0  6E0D               	movwf	(___xxtofl@val+3)^0,c
  1794  000DC2  0E01               	movlw	1
  1795  000DC4  EC71  F010         	call	___xxtofl
  1796  000DC8  C00A  F018         	movff	?___xxtofl,___flge@ff1
  1797  000DCC  C00B  F019         	movff	?___xxtofl+1,___flge@ff1+1
  1798  000DD0  C00C  F01A         	movff	?___xxtofl+2,___flge@ff1+2
  1799  000DD4  C00D  F01B         	movff	?___xxtofl+3,___flge@ff1+3
  1800  000DD8  C0A6  F01C         	movff	main@currentGas,___flge@ff2
  1801  000DDC  C0A7  F01D         	movff	main@currentGas+1,___flge@ff2+1
  1802  000DE0  C0A8  F01E         	movff	main@currentGas+2,___flge@ff2+2
  1803  000DE4  C0A9  F01F         	movff	main@currentGas+3,___flge@ff2+3
  1804  000DE8  EC00  F013         	call	___flge	;wreg free
  1805  000DEC  B0D8               	btfsc	status,0,c
  1806  000DEE  EFFB  F006         	goto	u5491
  1807  000DF2  EFFD  F006         	goto	u5490
  1808  000DF6                     u5491:
  1809  000DF6  EF05  F007         	goto	l5349
  1810  000DFA                     u5490:
  1811  000DFA                     l5347:
  1812                           
  1813                           ;C:\Users\JeeJ\MPLABXProjects\ProjetoF_micro.X\main.c: 240:             buzzer(1);
  1814  000DFA  0E00               	movlw	0
  1815  000DFC  6E0B               	movwf	(buzzer@buzzerStatus+1)^0,c
  1816  000DFE  0E01               	movlw	1
  1817  000E00  6E0A               	movwf	buzzer@buzzerStatus^0,c
  1818  000E02  EC37  F018         	call	_buzzer	;wreg free
  1819                           
  1820                           ;C:\Users\JeeJ\MPLABXProjects\ProjetoF_micro.X\main.c: 241:         } else {
  1821  000E06  EF0B  F007         	goto	l119
  1822  000E0A                     l5349:
  1823                           
  1824                           ;C:\Users\JeeJ\MPLABXProjects\ProjetoF_micro.X\main.c: 242:             buzzer(0);
  1825  000E0A  0E00               	movlw	0
  1826  000E0C  6E0B               	movwf	(buzzer@buzzerStatus+1)^0,c
  1827  000E0E  0E00               	movlw	0
  1828  000E10  6E0A               	movwf	buzzer@buzzerStatus^0,c
  1829  000E12  EC37  F018         	call	_buzzer	;wreg free
  1830  000E16                     l119:
  1831                           
  1832                           ;C:\Users\JeeJ\MPLABXProjects\ProjetoF_micro.X\main.c: 245:         if (currentTemp > Tl
      +                          im) {
  1833  000E16  C0D6  F00A         	movff	_Tlim,___xxtofl@val
  1834  000E1A  C0D7  F00B         	movff	_Tlim+1,___xxtofl@val+1
  1835  000E1E  0E00               	movlw	0
  1836  000E20  BE0B               	btfsc	(___xxtofl@val+1)^0,7,c
  1837  000E22  0EFF               	movlw	-1
  1838  000E24  6E0C               	movwf	(___xxtofl@val+2)^0,c
  1839  000E26  6E0D               	movwf	(___xxtofl@val+3)^0,c
  1840  000E28  0E01               	movlw	1
  1841  000E2A  EC71  F010         	call	___xxtofl
  1842  000E2E  C00A  F018         	movff	?___xxtofl,___flge@ff1
  1843  000E32  C00B  F019         	movff	?___xxtofl+1,___flge@ff1+1
  1844  000E36  C00C  F01A         	movff	?___xxtofl+2,___flge@ff1+2
  1845  000E3A  C00D  F01B         	movff	?___xxtofl+3,___flge@ff1+3
  1846  000E3E  C0AA  F01C         	movff	main@currentTemp,___flge@ff2
  1847  000E42  C0AB  F01D         	movff	main@currentTemp+1,___flge@ff2+1
  1848  000E46  C0AC  F01E         	movff	main@currentTemp+2,___flge@ff2+2
  1849  000E4A  C0AD  F01F         	movff	main@currentTemp+3,___flge@ff2+3
  1850  000E4E  EC00  F013         	call	___flge	;wreg free
  1851  000E52  B0D8               	btfsc	status,0,c
  1852  000E54  EF2E  F007         	goto	u5501
  1853  000E58  EF30  F007         	goto	u5500
  1854  000E5C                     u5501:
  1855  000E5C  EF34  F007         	goto	l5353
  1856  000E60                     u5500:
  1857  000E60                     
  1858                           ;C:\Users\JeeJ\MPLABXProjects\ProjetoF_micro.X\main.c: 246:             PORTDbits.RD0 = 
      +                          1;
  1859  000E60  8083               	bsf	131,0,c	;volatile
  1860                           
  1861                           ;C:\Users\JeeJ\MPLABXProjects\ProjetoF_micro.X\main.c: 247:             PORTCbits.RC2 = 
      +                          1;
  1862  000E62  8482               	bsf	130,2,c	;volatile
  1863                           
  1864                           ;C:\Users\JeeJ\MPLABXProjects\ProjetoF_micro.X\main.c: 248:         } else if (currentTe
      +                          mp < Tlim - 10) {
  1865  000E64  EF6C  F007         	goto	l5357
  1866  000E68                     l5353:
  1867  000E68  C0AA  F018         	movff	main@currentTemp,___flge@ff1
  1868  000E6C  C0AB  F019         	movff	main@currentTemp+1,___flge@ff1+1
  1869  000E70  C0AC  F01A         	movff	main@currentTemp+2,___flge@ff1+2
  1870  000E74  C0AD  F01B         	movff	main@currentTemp+3,___flge@ff1+3
  1871  000E78  0EF6               	movlw	246
  1872  000E7A  0100               	movlb	0	; () banked
  1873  000E7C  6F96               	movwf	??_main& (0+255),b
  1874  000E7E  0EFF               	movlw	255
  1875  000E80  6F97               	movwf	(??_main+1)& (0+255),b
  1876  000E82  C0D6  F098         	movff	_Tlim,??_main+2
  1877  000E86  C0D7  F099         	movff	_Tlim+1,??_main+3
  1878  000E8A  5196               	movf	??_main& (0+255),w,b
  1879  000E8C  2798               	addwf	(??_main+2)& (0+255),f,b
  1880  000E8E  5197               	movf	(??_main+1)& (0+255),w,b
  1881  000E90  2399               	addwfc	(??_main+3)& (0+255),f,b
  1882  000E92  C098  F00A         	movff	??_main+2,___xxtofl@val
  1883  000E96  C099  F00B         	movff	??_main+3,___xxtofl@val+1
  1884  000E9A  0E00               	movlw	0
  1885  000E9C  BE0B               	btfsc	(___xxtofl@val+1)^0,7,c
  1886  000E9E  0EFF               	movlw	-1
  1887  000EA0  6E0C               	movwf	(___xxtofl@val+2)^0,c
  1888  000EA2  6E0D               	movwf	(___xxtofl@val+3)^0,c
  1889  000EA4  0E01               	movlw	1
  1890  000EA6  EC71  F010         	call	___xxtofl
  1891  000EAA  C00A  F01C         	movff	?___xxtofl,___flge@ff2
  1892  000EAE  C00B  F01D         	movff	?___xxtofl+1,___flge@ff2+1
  1893  000EB2  C00C  F01E         	movff	?___xxtofl+2,___flge@ff2+2
  1894  000EB6  C00D  F01F         	movff	?___xxtofl+3,___flge@ff2+3
  1895  000EBA  EC00  F013         	call	___flge	;wreg free
  1896  000EBE  B0D8               	btfsc	status,0,c
  1897  000EC0  EF64  F007         	goto	u5511
  1898  000EC4  EF66  F007         	goto	u5510
  1899  000EC8                     u5511:
  1900  000EC8  EF6A  F007         	goto	l122
  1901  000ECC                     u5510:
  1902  000ECC                     
  1903                           ;C:\Users\JeeJ\MPLABXProjects\ProjetoF_micro.X\main.c: 249:             PORTDbits.RD0 = 
      +                          0;
  1904  000ECC  9083               	bcf	131,0,c	;volatile
  1905                           
  1906                           ;C:\Users\JeeJ\MPLABXProjects\ProjetoF_micro.X\main.c: 250:             PORTCbits.RC2 = 
      +                          0;
  1907  000ECE  9482               	bcf	130,2,c	;volatile
  1908                           
  1909                           ;C:\Users\JeeJ\MPLABXProjects\ProjetoF_micro.X\main.c: 253:         } else {
  1910  000ED0  EF6C  F007         	goto	l5357
  1911  000ED4                     l122:
  1912                           
  1913                           ;C:\Users\JeeJ\MPLABXProjects\ProjetoF_micro.X\main.c: 254:             PORTDbits.RD0 = 
      +                          0;
  1914  000ED4  9083               	bcf	131,0,c	;volatile
  1915                           
  1916                           ;C:\Users\JeeJ\MPLABXProjects\ProjetoF_micro.X\main.c: 255:             PORTCbits.RC2 = 
      +                          0;
  1917  000ED6  9482               	bcf	130,2,c	;volatile
  1918  000ED8                     l5357:
  1919                           
  1920                           ;C:\Users\JeeJ\MPLABXProjects\ProjetoF_micro.X\main.c: 259:         if (currentHumid > H
      +                          lim) {
  1921  000ED8  C0D4  F00A         	movff	_Hlim,___xxtofl@val
  1922  000EDC  C0D5  F00B         	movff	_Hlim+1,___xxtofl@val+1
  1923  000EE0  0E00               	movlw	0
  1924  000EE2  BE0B               	btfsc	(___xxtofl@val+1)^0,7,c
  1925  000EE4  0EFF               	movlw	-1
  1926  000EE6  6E0C               	movwf	(___xxtofl@val+2)^0,c
  1927  000EE8  6E0D               	movwf	(___xxtofl@val+3)^0,c
  1928  000EEA  0E01               	movlw	1
  1929  000EEC  EC71  F010         	call	___xxtofl
  1930  000EF0  C00A  F018         	movff	?___xxtofl,___flge@ff1
  1931  000EF4  C00B  F019         	movff	?___xxtofl+1,___flge@ff1+1
  1932  000EF8  C00C  F01A         	movff	?___xxtofl+2,___flge@ff1+2
  1933  000EFC  C00D  F01B         	movff	?___xxtofl+3,___flge@ff1+3
  1934  000F00  C0A2  F01C         	movff	main@currentHumid,___flge@ff2
  1935  000F04  C0A3  F01D         	movff	main@currentHumid+1,___flge@ff2+1
  1936  000F08  C0A4  F01E         	movff	main@currentHumid+2,___flge@ff2+2
  1937  000F0C  C0A5  F01F         	movff	main@currentHumid+3,___flge@ff2+3
  1938  000F10  EC00  F013         	call	___flge	;wreg free
  1939  000F14  B0D8               	btfsc	status,0,c
  1940  000F16  EF8F  F007         	goto	u5521
  1941  000F1A  EF91  F007         	goto	u5520
  1942  000F1E                     u5521:
  1943  000F1E  EF9A  F007         	goto	l124
  1944  000F22                     u5520:
  1945  000F22                     
  1946                           ;C:\Users\JeeJ\MPLABXProjects\ProjetoF_micro.X\main.c: 260:             PORTDbits.RD1 = 
      +                          1;
  1947  000F22  8283               	bsf	131,1,c	;volatile
  1948  000F24                     
  1949                           ;C:\Users\JeeJ\MPLABXProjects\ProjetoF_micro.X\main.c: 261:             setMoist(1);
  1950  000F24  0E00               	movlw	0
  1951  000F26  6E0B               	movwf	(setMoist@moistSet+1)^0,c
  1952  000F28  0E01               	movlw	1
  1953  000F2A  6E0A               	movwf	setMoist@moistSet^0,c
  1954  000F2C  EC35  F018         	call	_setMoist	;wreg free
  1955                           
  1956                           ;C:\Users\JeeJ\MPLABXProjects\ProjetoF_micro.X\main.c: 262:         } else {
  1957  000F30  EFA1  F007         	goto	l125
  1958  000F34                     l124:
  1959                           
  1960                           ;C:\Users\JeeJ\MPLABXProjects\ProjetoF_micro.X\main.c: 263:             PORTDbits.RD1 = 
      +                          0;
  1961  000F34  9283               	bcf	131,1,c	;volatile
  1962  000F36                     
  1963                           ;C:\Users\JeeJ\MPLABXProjects\ProjetoF_micro.X\main.c: 264:             setMoist(0);
  1964  000F36  0E00               	movlw	0
  1965  000F38  6E0B               	movwf	(setMoist@moistSet+1)^0,c
  1966  000F3A  0E00               	movlw	0
  1967  000F3C  6E0A               	movwf	setMoist@moistSet^0,c
  1968  000F3E  EC35  F018         	call	_setMoist	;wreg free
  1969  000F42                     l125:
  1970                           
  1971                           ;C:\Users\JeeJ\MPLABXProjects\ProjetoF_micro.X\main.c: 267:         if (currentGas > Gli
      +                          m) {
  1972  000F42  C0D2  F00A         	movff	_Glim,___xxtofl@val
  1973  000F46  C0D3  F00B         	movff	_Glim+1,___xxtofl@val+1
  1974  000F4A  0E00               	movlw	0
  1975  000F4C  BE0B               	btfsc	(___xxtofl@val+1)^0,7,c
  1976  000F4E  0EFF               	movlw	-1
  1977  000F50  6E0C               	movwf	(___xxtofl@val+2)^0,c
  1978  000F52  6E0D               	movwf	(___xxtofl@val+3)^0,c
  1979  000F54  0E01               	movlw	1
  1980  000F56  EC71  F010         	call	___xxtofl
  1981  000F5A  C00A  F018         	movff	?___xxtofl,___flge@ff1
  1982  000F5E  C00B  F019         	movff	?___xxtofl+1,___flge@ff1+1
  1983  000F62  C00C  F01A         	movff	?___xxtofl+2,___flge@ff1+2
  1984  000F66  C00D  F01B         	movff	?___xxtofl+3,___flge@ff1+3
  1985  000F6A  C0A6  F01C         	movff	main@currentGas,___flge@ff2
  1986  000F6E  C0A7  F01D         	movff	main@currentGas+1,___flge@ff2+1
  1987  000F72  C0A8  F01E         	movff	main@currentGas+2,___flge@ff2+2
  1988  000F76  C0A9  F01F         	movff	main@currentGas+3,___flge@ff2+3
  1989  000F7A  EC00  F013         	call	___flge	;wreg free
  1990  000F7E  B0D8               	btfsc	status,0,c
  1991  000F80  EFC4  F007         	goto	u5531
  1992  000F84  EFC6  F007         	goto	u5530
  1993  000F88                     u5531:
  1994  000F88  EFCE  F007         	goto	l126
  1995  000F8C                     u5530:
  1996  000F8C                     
  1997                           ;C:\Users\JeeJ\MPLABXProjects\ProjetoF_micro.X\main.c: 268:             PORTDbits.RD2 = 
      +                          1;
  1998  000F8C  8483               	bsf	131,2,c	;volatile
  1999  000F8E                     
  2000                           ;C:\Users\JeeJ\MPLABXProjects\ProjetoF_micro.X\main.c: 269:             setCoolerSpeed(2
      +                          55);
  2001  000F8E  0E00               	movlw	0
  2002  000F90  6E0B               	movwf	(setCoolerSpeed@PWMset+1)^0,c
  2003  000F92  680A               	setf	setCoolerSpeed@PWMset^0,c
  2004  000F94  EC36  F018         	call	_setCoolerSpeed	;wreg free
  2005                           
  2006                           ;C:\Users\JeeJ\MPLABXProjects\ProjetoF_micro.X\main.c: 270:         } else {
  2007  000F98  EFD5  F007         	goto	l5371
  2008  000F9C                     l126:
  2009                           
  2010                           ;C:\Users\JeeJ\MPLABXProjects\ProjetoF_micro.X\main.c: 271:             PORTDbits.RD2 = 
      +                          0;
  2011  000F9C  9483               	bcf	131,2,c	;volatile
  2012  000F9E                     
  2013                           ;C:\Users\JeeJ\MPLABXProjects\ProjetoF_micro.X\main.c: 272:             setCoolerSpeed(0
      +                          );
  2014  000F9E  0E00               	movlw	0
  2015  000FA0  6E0B               	movwf	(setCoolerSpeed@PWMset+1)^0,c
  2016  000FA2  0E00               	movlw	0
  2017  000FA4  6E0A               	movwf	setCoolerSpeed@PWMset^0,c
  2018  000FA6  EC36  F018         	call	_setCoolerSpeed	;wreg free
  2019  000FAA                     l5371:
  2020                           
  2021                           ;C:\Users\JeeJ\MPLABXProjects\ProjetoF_micro.X\main.c: 275:         lastKey = pressed_ke
      +                          y;
  2022  000FAA  C0B5  F0B4         	movff	main@pressed_key,main@lastKey
  2023  000FAE  EF80  F004         	goto	l5215
  2024  000FB2  EF07  F000         	goto	start
  2025  000FB6                     __end_of_main:
  2026                           	callstack 0
  2027                           
  2028 ;; *************** function _setMoist *****************
  2029 ;; Defined at:
  2030 ;;		line 641 in file "C:\Users\JeeJ\MPLABXProjects\ProjetoF_micro.X\main.c"
  2031 ;; Parameters:    Size  Location     Type
  2032 ;;  moistSet        2    9[COMRAM] int 
  2033 ;; Auto vars:     Size  Location     Type
  2034 ;;		None
  2035 ;; Return value:  Size  Location     Type
  2036 ;;                  1    wreg      void 
  2037 ;; Registers used:
  2038 ;;		wreg, status,2, status,0
  2039 ;; Tracked objects:
  2040 ;;		On entry : 0/0
  2041 ;;		On exit  : 0/0
  2042 ;;		Unchanged: 0/0
  2043 ;; Data sizes:     COMRAM   BANK0   BANK1   BANK2   BANK3   BANK4   BANK5   BANK6   BANK7
  2044 ;;      Params:         2       0       0       0       0       0       0       0       0
  2045 ;;      Locals:         0       0       0       0       0       0       0       0       0
  2046 ;;      Temps:          0       0       0       0       0       0       0       0       0
  2047 ;;      Totals:         2       0       0       0       0       0       0       0       0
  2048 ;;Total ram usage:        2 bytes
  2049 ;; Hardware stack levels used: 1
  2050 ;; Hardware stack levels required when called: 2
  2051 ;; This function calls:
  2052 ;;		Nothing
  2053 ;; This function is called by:
  2054 ;;		_main
  2055 ;; This function uses a non-reentrant model
  2056 ;;
  2057                           
  2058                           	psect	text1
  2059  00306A                     __ptext1:
  2060                           	callstack 0
  2061  00306A                     _setMoist:
  2062                           	callstack 28
  2063  00306A  0012               	return		;funcret
  2064  00306C                     __end_of_setMoist:
  2065                           	callstack 0
  2066                           
  2067 ;; *************** function _setCoolerSpeed *****************
  2068 ;; Defined at:
  2069 ;;		line 635 in file "C:\Users\JeeJ\MPLABXProjects\ProjetoF_micro.X\main.c"
  2070 ;; Parameters:    Size  Location     Type
  2071 ;;  PWMset          2    9[COMRAM] int 
  2072 ;; Auto vars:     Size  Location     Type
  2073 ;;		None
  2074 ;; Return value:  Size  Location     Type
  2075 ;;                  1    wreg      void 
  2076 ;; Registers used:
  2077 ;;		None
  2078 ;; Tracked objects:
  2079 ;;		On entry : 0/0
  2080 ;;		On exit  : 0/0
  2081 ;;		Unchanged: 0/0
  2082 ;; Data sizes:     COMRAM   BANK0   BANK1   BANK2   BANK3   BANK4   BANK5   BANK6   BANK7
  2083 ;;      Params:         2       0       0       0       0       0       0       0       0
  2084 ;;      Locals:         0       0       0       0       0       0       0       0       0
  2085 ;;      Temps:          0       0       0       0       0       0       0       0       0
  2086 ;;      Totals:         2       0       0       0       0       0       0       0       0
  2087 ;;Total ram usage:        2 bytes
  2088 ;; Hardware stack levels used: 1
  2089 ;; Hardware stack levels required when called: 2
  2090 ;; This function calls:
  2091 ;;		Nothing
  2092 ;; This function is called by:
  2093 ;;		_main
  2094 ;; This function uses a non-reentrant model
  2095 ;;
  2096                           
  2097                           	psect	text2
  2098  00306C                     __ptext2:
  2099                           	callstack 0
  2100  00306C                     _setCoolerSpeed:
  2101                           	callstack 28
  2102  00306C  0012               	return		;funcret
  2103  00306E                     __end_of_setCoolerSpeed:
  2104                           	callstack 0
  2105                           
  2106 ;; *************** function _readTwoDigitValue *****************
  2107 ;; Defined at:
  2108 ;;		line 401 in file "C:\Users\JeeJ\MPLABXProjects\ProjetoF_micro.X\main.c"
  2109 ;; Parameters:    Size  Location     Type
  2110 ;;  prompt          2   40[COMRAM] PTR unsigned char 
  2111 ;;		 -> STR_5(11), STR_3(12), STR_1(13), 
  2112 ;; Auto vars:     Size  Location     Type
  2113 ;;  input           3   44[COMRAM] unsigned char [3]
  2114 ;;  digitCount      2   47[COMRAM] int 
  2115 ;;  key             1   49[COMRAM] unsigned char 
  2116 ;; Return value:  Size  Location     Type
  2117 ;;                  2   40[COMRAM] int 
  2118 ;; Registers used:
  2119 ;;		wreg, fsr1l, fsr1h, fsr2l, fsr2h, status,2, status,0, tblptrl, tblptrh, tblptru, prodl, prodh, cstack
  2120 ;; Tracked objects:
  2121 ;;		On entry : 0/0
  2122 ;;		On exit  : 0/0
  2123 ;;		Unchanged: 0/0
  2124 ;; Data sizes:     COMRAM   BANK0   BANK1   BANK2   BANK3   BANK4   BANK5   BANK6   BANK7
  2125 ;;      Params:         2       0       0       0       0       0       0       0       0
  2126 ;;      Locals:         6       0       0       0       0       0       0       0       0
  2127 ;;      Temps:          2       0       0       0       0       0       0       0       0
  2128 ;;      Totals:        10       0       0       0       0       0       0       0       0
  2129 ;;Total ram usage:       10 bytes
  2130 ;; Hardware stack levels used: 1
  2131 ;; Hardware stack levels required when called: 5
  2132 ;; This function calls:
  2133 ;;		_WriteCmdXLCD
  2134 ;;		_displayStuff
  2135 ;;		_readKey
  2136 ;; This function is called by:
  2137 ;;		_main
  2138 ;; This function uses a non-reentrant model
  2139 ;;
  2140                           
  2141                           	psect	text3
  2142  0023D6                     __ptext3:
  2143                           	callstack 0
  2144  0023D6                     _readTwoDigitValue:
  2145                           	callstack 25
  2146  0023D6                     
  2147                           ;C:\Users\JeeJ\MPLABXProjects\ProjetoF_micro.X\main.c: 402:     char input[3] = {0};
  2148  0023D6  0E00               	movlw	0
  2149  0023D8  6E2D               	movwf	readTwoDigitValue@input^0,c
  2150  0023DA  0E00               	movlw	0
  2151  0023DC  6E2E               	movwf	(readTwoDigitValue@input+1)^0,c
  2152  0023DE  0E00               	movlw	0
  2153  0023E0  6E2F               	movwf	(readTwoDigitValue@input+2)^0,c
  2154                           
  2155                           ;C:\Users\JeeJ\MPLABXProjects\ProjetoF_micro.X\main.c: 403:     int digitCount = 0;
  2156  0023E2  0E00               	movlw	0
  2157  0023E4  6E31               	movwf	(readTwoDigitValue@digitCount+1)^0,c
  2158  0023E6  0E00               	movlw	0
  2159  0023E8  6E30               	movwf	readTwoDigitValue@digitCount^0,c
  2160  0023EA                     
  2161                           ;C:\Users\JeeJ\MPLABXProjects\ProjetoF_micro.X\main.c: 404:     char key;;C:\Users\JeeJ\
      +                          MPLABXProjects\ProjetoF_micro.X\main.c: 406:     WriteCmdXLCD(0x01);
  2162  0023EA  0E01               	movlw	1
  2163  0023EC  ECA9  F017         	call	_WriteCmdXLCD
  2164  0023F0                     
  2165                           ;C:\Users\JeeJ\MPLABXProjects\ProjetoF_micro.X\main.c: 407:     _delay((unsigned long)((
      +                          2)*(20000000/4000.0)));
  2166  0023F0  0E0D               	movlw	13
  2167  0023F2  6E2B               	movwf	??_readTwoDigitValue^0,c
  2168  0023F4  0EFC               	movlw	252
  2169  0023F6                     u5587:
  2170  0023F6  2EE8               	decfsz	wreg,f,c
  2171  0023F8  D7FE               	bra	u5587
  2172  0023FA  2E2B               	decfsz	??_readTwoDigitValue^0,f,c
  2173  0023FC  D7FC               	bra	u5587
  2174  0023FE                     
  2175                           ;C:\Users\JeeJ\MPLABXProjects\ProjetoF_micro.X\main.c: 408:     WriteCmdXLCD(0x02);
  2176  0023FE  0E02               	movlw	2
  2177  002400  ECA9  F017         	call	_WriteCmdXLCD
  2178  002404                     
  2179                           ;C:\Users\JeeJ\MPLABXProjects\ProjetoF_micro.X\main.c: 409:     _delay((unsigned long)((
      +                          2)*(20000000/4000.0)));
  2180  002404  0E0D               	movlw	13
  2181  002406  6E2B               	movwf	??_readTwoDigitValue^0,c
  2182  002408  0EFC               	movlw	252
  2183  00240A                     u5597:
  2184  00240A  2EE8               	decfsz	wreg,f,c
  2185  00240C  D7FE               	bra	u5597
  2186  00240E  2E2B               	decfsz	??_readTwoDigitValue^0,f,c
  2187  002410  D7FC               	bra	u5597
  2188  002412                     
  2189                           ;C:\Users\JeeJ\MPLABXProjects\ProjetoF_micro.X\main.c: 411:     displayStuff(0, 0, promp
      +                          t);
  2190  002412  0E00               	movlw	0
  2191  002414  6E0C               	movwf	(displayStuff@row+1)^0,c
  2192  002416  0E00               	movlw	0
  2193  002418  6E0B               	movwf	displayStuff@row^0,c
  2194  00241A  0E00               	movlw	0
  2195  00241C  6E0E               	movwf	(displayStuff@column+1)^0,c
  2196  00241E  0E00               	movlw	0
  2197  002420  6E0D               	movwf	displayStuff@column^0,c
  2198  002422  C029  F00F         	movff	readTwoDigitValue@prompt,displayStuff@stuff
  2199  002426  C02A  F010         	movff	readTwoDigitValue@prompt+1,displayStuff@stuff+1
  2200  00242A  ECD0  F015         	call	_displayStuff	;wreg free
  2201                           
  2202                           ;C:\Users\JeeJ\MPLABXProjects\ProjetoF_micro.X\main.c: 413:     while (digitCount < 2) {
  2203  00242E  EF5E  F012         	goto	l4027
  2204  002432                     l4009:
  2205                           
  2206                           ;C:\Users\JeeJ\MPLABXProjects\ProjetoF_micro.X\main.c: 414:         key = readKey();
  2207  002432  EC75  F00F         	call	_readKey	;wreg free
  2208  002436  6E32               	movwf	readTwoDigitValue@key^0,c
  2209  002438                     
  2210                           ;C:\Users\JeeJ\MPLABXProjects\ProjetoF_micro.X\main.c: 416:         if (key >= '0' && ke
      +                          y <= '9') {
  2211  002438  0E2F               	movlw	47
  2212  00243A  6432               	cpfsgt	readTwoDigitValue@key^0,c
  2213  00243C  EF22  F012         	goto	u3711
  2214  002440  EF24  F012         	goto	u3710
  2215  002444                     u3711:
  2216  002444  EF51  F012         	goto	l4023
  2217  002448                     u3710:
  2218  002448  0E3A               	movlw	58
  2219  00244A  6032               	cpfslt	readTwoDigitValue@key^0,c
  2220  00244C  EF2A  F012         	goto	u3721
  2221  002450  EF2C  F012         	goto	u3720
  2222  002454                     u3721:
  2223  002454  EF51  F012         	goto	l4023
  2224  002458                     u3720:
  2225  002458                     
  2226                           ;C:\Users\JeeJ\MPLABXProjects\ProjetoF_micro.X\main.c: 417:             input[digitCount
      +                          ] = key;
  2227  002458  0E2D               	movlw	low readTwoDigitValue@input
  2228  00245A  2430               	addwf	readTwoDigitValue@digitCount^0,w,c
  2229  00245C  6ED9               	movwf	fsr2l,c
  2230  00245E  0E00               	movlw	high readTwoDigitValue@input
  2231  002460  2031               	addwfc	(readTwoDigitValue@digitCount+1)^0,w,c
  2232  002462  6EDA               	movwf	fsr2h,c
  2233  002464  C032  FFDF         	movff	readTwoDigitValue@key,indf2
  2234  002468                     
  2235                           ;C:\Users\JeeJ\MPLABXProjects\ProjetoF_micro.X\main.c: 418:             displayStuff(1, 
      +                          digitCount, &input[digitCount]);
  2236  002468  0E00               	movlw	0
  2237  00246A  6E0C               	movwf	(displayStuff@row+1)^0,c
  2238  00246C  0E01               	movlw	1
  2239  00246E  6E0B               	movwf	displayStuff@row^0,c
  2240  002470  C030  F00D         	movff	readTwoDigitValue@digitCount,displayStuff@column
  2241  002474  C031  F00E         	movff	readTwoDigitValue@digitCount+1,displayStuff@column+1
  2242  002478  0E2D               	movlw	low readTwoDigitValue@input
  2243  00247A  2430               	addwf	readTwoDigitValue@digitCount^0,w,c
  2244  00247C  6E0F               	movwf	displayStuff@stuff^0,c
  2245  00247E  0E00               	movlw	high readTwoDigitValue@input
  2246  002480  2031               	addwfc	(readTwoDigitValue@digitCount+1)^0,w,c
  2247  002482  6E10               	movwf	(displayStuff@stuff+1)^0,c
  2248  002484  ECD0  F015         	call	_displayStuff	;wreg free
  2249  002488                     
  2250                           ;C:\Users\JeeJ\MPLABXProjects\ProjetoF_micro.X\main.c: 419:             digitCount++;
  2251  002488  4A30               	infsnz	readTwoDigitValue@digitCount^0,f,c
  2252  00248A  2A31               	incf	(readTwoDigitValue@digitCount+1)^0,f,c
  2253  00248C                     
  2254                           ;C:\Users\JeeJ\MPLABXProjects\ProjetoF_micro.X\main.c: 420:             _delay((unsigned
      +                           long)((200)*(20000000/4000.0)));
  2255  00248C  0E06               	movlw	6
  2256  00248E  6E2C               	movwf	(??_readTwoDigitValue+1)^0,c
  2257  002490  0E13               	movlw	19
  2258  002492  6E2B               	movwf	??_readTwoDigitValue^0,c
  2259  002494  0EAE               	movlw	174
  2260  002496                     u5607:
  2261  002496  2EE8               	decfsz	wreg,f,c
  2262  002498  D7FE               	bra	u5607
  2263  00249A  2E2B               	decfsz	??_readTwoDigitValue^0,f,c
  2264  00249C  D7FC               	bra	u5607
  2265  00249E  2E2C               	decfsz	(??_readTwoDigitValue+1)^0,f,c
  2266  0024A0  D7FA               	bra	u5607
  2267  0024A2                     l4023:
  2268                           
  2269                           ;C:\Users\JeeJ\MPLABXProjects\ProjetoF_micro.X\main.c: 423:         if (key == 'F') {
  2270  0024A2  0E46               	movlw	70
  2271  0024A4  1832               	xorwf	readTwoDigitValue@key^0,w,c
  2272  0024A6  A4D8               	btfss	status,2,c
  2273  0024A8  EF58  F012         	goto	u3731
  2274  0024AC  EF5A  F012         	goto	u3730
  2275  0024B0                     u3731:
  2276  0024B0  EF5E  F012         	goto	l4027
  2277  0024B4                     u3730:
  2278  0024B4                     
  2279                           ;C:\Users\JeeJ\MPLABXProjects\ProjetoF_micro.X\main.c: 424:             return -1;
  2280  0024B4  6829               	setf	?_readTwoDigitValue^0,c
  2281  0024B6  682A               	setf	(?_readTwoDigitValue+1)^0,c
  2282  0024B8  EF7C  F012         	goto	l179
  2283  0024BC                     l4027:
  2284                           
  2285                           ;C:\Users\JeeJ\MPLABXProjects\ProjetoF_micro.X\main.c: 413:     while (digitCount < 2) {
  2286  0024BC  BE31               	btfsc	(readTwoDigitValue@digitCount+1)^0,7,c
  2287  0024BE  EF6A  F012         	goto	u3741
  2288  0024C2  5031               	movf	(readTwoDigitValue@digitCount+1)^0,w,c
  2289  0024C4  E109               	bnz	u3740
  2290  0024C6  0E02               	movlw	2
  2291  0024C8  5C30               	subwf	readTwoDigitValue@digitCount^0,w,c
  2292  0024CA  A0D8               	btfss	status,0,c
  2293  0024CC  EF6A  F012         	goto	u3741
  2294  0024D0  EF6C  F012         	goto	u3740
  2295  0024D4                     u3741:
  2296  0024D4  EF19  F012         	goto	l4009
  2297  0024D8                     u3740:
  2298  0024D8                     
  2299                           ;C:\Users\JeeJ\MPLABXProjects\ProjetoF_micro.X\main.c: 429:     return (input[0] - '0') 
      +                          * 10 + (input[1] - '0');
  2300  0024D8  502D               	movf	readTwoDigitValue@input^0,w,c
  2301  0024DA  0D0A               	mullw	10
  2302  0024DC  CFF3 F02B          	movff	prodl,??_readTwoDigitValue
  2303  0024E0  CFF4 F02C          	movff	prodh,??_readTwoDigitValue+1
  2304  0024E4  502E               	movf	(readTwoDigitValue@input+1)^0,w,c
  2305  0024E6  262B               	addwf	??_readTwoDigitValue^0,f,c
  2306  0024E8  0E00               	movlw	0
  2307  0024EA  222C               	addwfc	(??_readTwoDigitValue+1)^0,f,c
  2308  0024EC  0EF0               	movlw	240
  2309  0024EE  242B               	addwf	??_readTwoDigitValue^0,w,c
  2310  0024F0  6E29               	movwf	?_readTwoDigitValue^0,c
  2311  0024F2  0EFD               	movlw	253
  2312  0024F4  202C               	addwfc	(??_readTwoDigitValue+1)^0,w,c
  2313  0024F6  6E2A               	movwf	(?_readTwoDigitValue+1)^0,c
  2314  0024F8                     l179:
  2315  0024F8  0012               	return		;funcret
  2316  0024FA                     __end_of_readTwoDigitValue:
  2317                           	callstack 0
  2318                           
  2319 ;; *************** function _readKey *****************
  2320 ;; Defined at:
  2321 ;;		line 527 in file "C:\Users\JeeJ\MPLABXProjects\ProjetoF_micro.X\main.c"
  2322 ;; Parameters:    Size  Location     Type
  2323 ;;		None
  2324 ;; Auto vars:     Size  Location     Type
  2325 ;;  pressedKey      1   39[COMRAM] unsigned char 
  2326 ;;  InvCol          8   23[COMRAM] const int [4]
  2327 ;;  currentTime     4   31[COMRAM] unsigned long 
  2328 ;;  row             2   37[COMRAM] int 
  2329 ;;  col             2   35[COMRAM] int 
  2330 ;; Return value:  Size  Location     Type
  2331 ;;                  1    wreg      unsigned char 
  2332 ;; Registers used:
  2333 ;;		wreg, fsr2l, fsr2h, status,2, status,0, tblptrl, tblptrh, tblptru, cstack
  2334 ;; Tracked objects:
  2335 ;;		On entry : 0/0
  2336 ;;		On exit  : 0/0
  2337 ;;		Unchanged: 0/0
  2338 ;; Data sizes:     COMRAM   BANK0   BANK1   BANK2   BANK3   BANK4   BANK5   BANK6   BANK7
  2339 ;;      Params:         0       0       0       0       0       0       0       0       0
  2340 ;;      Locals:        17       0       0       0       0       0       0       0       0
  2341 ;;      Temps:          6       0       0       0       0       0       0       0       0
  2342 ;;      Totals:        23       0       0       0       0       0       0       0       0
  2343 ;;Total ram usage:       23 bytes
  2344 ;; Hardware stack levels used: 1
  2345 ;; Hardware stack levels required when called: 3
  2346 ;; This function calls:
  2347 ;;		_millis
  2348 ;; This function is called by:
  2349 ;;		_main
  2350 ;;		_readTwoDigitValue
  2351 ;; This function uses a non-reentrant model
  2352 ;;
  2353                           
  2354                           	psect	text4
  2355  001EEA                     __ptext4:
  2356                           	callstack 0
  2357  001EEA                     _readKey:
  2358                           	callstack 26
  2359  001EEA                     
  2360                           ;C:\Users\JeeJ\MPLABXProjects\ProjetoF_micro.X\main.c: 528:     const int InvCol[4] = {3
      +                          , 2, 1, 0};
  2361  001EEA  0E07               	movlw	low readKey@F3615
  2362  001EEC  6EF6               	movwf	tblptrl,c
  2363  001EEE                     	if	1	;There is more than 1 active tblptr byte
  2364  001EEE  0E7F               	movlw	high readKey@F3615
  2365  001EF0  6EF7               	movwf	tblptrh,c
  2366  001EF2                     	endif
  2367  001EF2                     	if	0	;There are less than 3 active tblptr bytes
  2368  001EF2                     	endif
  2369  001EF2  EE20  F018         	lfsr	2,readKey@InvCol
  2370  001EF6  0E07               	movlw	7
  2371  001EF8                     u3210:
  2372  001EF8  0009               	tblrd		*+
  2373  001EFA  CFF5 FFDE          	movff	tablat,postinc2
  2374  001EFE  06E8               	decf	wreg,f,c
  2375  001F00  E2FB               	bc	u3210
  2376  001F02                     
  2377                           ;C:\Users\JeeJ\MPLABXProjects\ProjetoF_micro.X\main.c: 529:     static unsigned long las
      +                          tDebounceTime = 0;;C:\Users\JeeJ\MPLABXProjects\ProjetoF_micro.X\main.c: 530:     static
      +                           unsigned long lastKeyPressTime = 0;;C:\Users\JeeJ\MPLABXProjects\ProjetoF_micro.X\main.
      +                          c: 531:     static char lastStableKey = 0;;C:\Users\JeeJ\MPLABXProjects\ProjetoF_micro.X
      +                          \main.c: 532:     unsigned long currentTime = millis();
  2378  001F02  ECE4  F017         	call	_millis	;wreg free
  2379  001F06  C00A  F020         	movff	?_millis,readKey@currentTime
  2380  001F0A  C00B  F021         	movff	?_millis+1,readKey@currentTime+1
  2381  001F0E  C00C  F022         	movff	?_millis+2,readKey@currentTime+2
  2382  001F12  C00D  F023         	movff	?_millis+3,readKey@currentTime+3
  2383  001F16                     
  2384                           ;C:\Users\JeeJ\MPLABXProjects\ProjetoF_micro.X\main.c: 533:     int col, row;;C:\Users\J
      +                          eeJ\MPLABXProjects\ProjetoF_micro.X\main.c: 535:     for (col = 0; col < 4; col++) {
  2385  001F16  0E00               	movlw	0
  2386  001F18  6E25               	movwf	(readKey@col+1)^0,c
  2387  001F1A  0E00               	movlw	0
  2388  001F1C  6E24               	movwf	readKey@col^0,c
  2389  001F1E                     l3527:
  2390  001F1E  BE25               	btfsc	(readKey@col+1)^0,7,c
  2391  001F20  EF9B  F00F         	goto	u3221
  2392  001F24  5025               	movf	(readKey@col+1)^0,w,c
  2393  001F26  E109               	bnz	u3220
  2394  001F28  0E04               	movlw	4
  2395  001F2A  5C24               	subwf	readKey@col^0,w,c
  2396  001F2C  A0D8               	btfss	status,0,c
  2397  001F2E  EF9B  F00F         	goto	u3221
  2398  001F32  EF9D  F00F         	goto	u3220
  2399  001F36                     u3221:
  2400  001F36  EF9F  F00F         	goto	l3531
  2401  001F3A                     u3220:
  2402  001F3A  EF69  F010         	goto	l3571
  2403  001F3E                     l3531:
  2404                           
  2405                           ;C:\Users\JeeJ\MPLABXProjects\ProjetoF_micro.X\main.c: 536:         LATB = ~(1 << col);
  2406  001F3E  C024  F012         	movff	readKey@col,??_readKey
  2407  001F42  0E01               	movlw	1
  2408  001F44  6E13               	movwf	(??_readKey+1)^0,c
  2409  001F46  2A12               	incf	??_readKey^0,f,c
  2410  001F48  EFA8  F00F         	goto	u3234
  2411  001F4C                     u3235:
  2412  001F4C  90D8               	bcf	status,0,c
  2413  001F4E  3613               	rlcf	(??_readKey+1)^0,f,c
  2414  001F50                     u3234:
  2415  001F50  2E12               	decfsz	??_readKey^0,f,c
  2416  001F52  EFA6  F00F         	goto	u3235
  2417  001F56  5013               	movf	(??_readKey+1)^0,w,c
  2418  001F58  0AFF               	xorlw	255
  2419  001F5A  6E8A               	movwf	138,c	;volatile
  2420  001F5C                     
  2421                           ;C:\Users\JeeJ\MPLABXProjects\ProjetoF_micro.X\main.c: 537:         _delay((unsigned lon
      +                          g)((5)*(20000000/4000.0)));
  2422  001F5C  0E21               	movlw	33
  2423  001F5E  6E12               	movwf	??_readKey^0,c
  2424  001F60  0E76               	movlw	118
  2425  001F62                     u5617:
  2426  001F62  2EE8               	decfsz	wreg,f,c
  2427  001F64  D7FE               	bra	u5617
  2428  001F66  2E12               	decfsz	??_readKey^0,f,c
  2429  001F68  D7FC               	bra	u5617
  2430  001F6A  D000               	nop2	
  2431  001F6C                     
  2432                           ;C:\Users\JeeJ\MPLABXProjects\ProjetoF_micro.X\main.c: 539:         for (row = 0; row < 
      +                          4; row++) {
  2433  001F6C  0E00               	movlw	0
  2434  001F6E  6E27               	movwf	(readKey@row+1)^0,c
  2435  001F70  0E00               	movlw	0
  2436  001F72  6E26               	movwf	readKey@row^0,c
  2437  001F74                     l3541:
  2438                           
  2439                           ;C:\Users\JeeJ\MPLABXProjects\ProjetoF_micro.X\main.c: 540:             if (!(PORTB & (1
      +                           << (row + 4)))) {
  2440  001F74  C026  F012         	movff	readKey@row,??_readKey
  2441  001F78  0E04               	movlw	4
  2442  001F7A  2612               	addwf	??_readKey^0,f,c
  2443  001F7C  0E01               	movlw	1
  2444  001F7E  6E13               	movwf	(??_readKey+1)^0,c
  2445  001F80  2A12               	incf	??_readKey^0,f,c
  2446  001F82  EFC5  F00F         	goto	u3244
  2447  001F86                     u3245:
  2448  001F86  90D8               	bcf	status,0,c
  2449  001F88  3613               	rlcf	(??_readKey+1)^0,f,c
  2450  001F8A                     u3244:
  2451  001F8A  2E12               	decfsz	??_readKey^0,f,c
  2452  001F8C  EFC3  F00F         	goto	u3245
  2453  001F90  5013               	movf	(??_readKey+1)^0,w,c
  2454  001F92  1481               	andwf	129,w,c	;volatile
  2455  001F94  0900               	iorlw	0
  2456  001F96  A4D8               	btfss	status,2,c
  2457  001F98  EFD0  F00F         	goto	u3251
  2458  001F9C  EFD2  F00F         	goto	u3250
  2459  001FA0                     u3251:
  2460  001FA0  EF55  F010         	goto	l3563
  2461  001FA4                     u3250:
  2462  001FA4                     
  2463                           ;C:\Users\JeeJ\MPLABXProjects\ProjetoF_micro.X\main.c: 542:                 char pressed
      +                          Key = keymap[row][InvCol[col]];
  2464  001FA4  90D8               	bcf	status,0,c
  2465  001FA6  3424               	rlcf	readKey@col^0,w,c
  2466  001FA8  6ED9               	movwf	fsr2l,c
  2467  001FAA  3425               	rlcf	(readKey@col+1)^0,w,c
  2468  001FAC  6EDA               	movwf	fsr2h,c
  2469  001FAE  0E18               	movlw	low readKey@InvCol
  2470  001FB0  26D9               	addwf	fsr2l,f,c
  2471  001FB2  0E00               	movlw	high readKey@InvCol
  2472  001FB4  22DA               	addwfc	fsr2h,f,c
  2473  001FB6  CFDE F012          	movff	postinc2,??_readKey
  2474  001FBA  CFDD F013          	movff	postdec2,??_readKey+1
  2475  001FBE  C026  F014         	movff	readKey@row,??_readKey+2
  2476  001FC2  C027  F015         	movff	readKey@row+1,??_readKey+3
  2477  001FC6  90D8               	bcf	status,0,c
  2478  001FC8  3614               	rlcf	(??_readKey+2)^0,f,c
  2479  001FCA  3615               	rlcf	(??_readKey+3)^0,f,c
  2480  001FCC  90D8               	bcf	status,0,c
  2481  001FCE  3614               	rlcf	(??_readKey+2)^0,f,c
  2482  001FD0  3615               	rlcf	(??_readKey+3)^0,f,c
  2483  001FD2  0EF7               	movlw	low _keymap
  2484  001FD4  6E16               	movwf	(??_readKey+4)^0,c
  2485  001FD6  0E7E               	movlw	high _keymap
  2486  001FD8  6E17               	movwf	(??_readKey+5)^0,c
  2487  001FDA  5014               	movf	(??_readKey+2)^0,w,c
  2488  001FDC  2616               	addwf	(??_readKey+4)^0,f,c
  2489  001FDE  5015               	movf	(??_readKey+3)^0,w,c
  2490  001FE0  2217               	addwfc	(??_readKey+5)^0,f,c
  2491  001FE2  5012               	movf	??_readKey^0,w,c
  2492  001FE4  2616               	addwf	(??_readKey+4)^0,f,c
  2493  001FE6  5013               	movf	(??_readKey+1)^0,w,c
  2494  001FE8  2217               	addwfc	(??_readKey+5)^0,f,c
  2495  001FEA  C016  FFF6         	movff	??_readKey+4,tblptrl
  2496  001FEE  C017  FFF7         	movff	??_readKey+5,tblptrh
  2497  001FF2                     	if	0	;tblptru may be non-zero
  2498  001FF2                     	endif
  2499  001FF2                     	if	0	;tblptru may be non-zero
  2500  001FF2                     	endif
  2501  001FF2  0008               	tblrd		*
  2502  001FF4  CFF5 F028          	movff	tablat,readKey@pressedKey
  2503  001FF8                     
  2504                           ;C:\Users\JeeJ\MPLABXProjects\ProjetoF_micro.X\main.c: 544:                 if (pressedK
      +                          ey != lastStableKey) {
  2505  001FF8  5054               	movf	readKey@lastStableKey^0,w,c
  2506  001FFA  1828               	xorwf	readKey@pressedKey^0,w,c
  2507  001FFC  B4D8               	btfsc	status,2,c
  2508  001FFE  EF03  F010         	goto	u3261
  2509  002002  EF05  F010         	goto	u3260
  2510  002006                     u3261:
  2511  002006  EF0F  F010         	goto	l3549
  2512  00200A                     u3260:
  2513  00200A                     
  2514                           ;C:\Users\JeeJ\MPLABXProjects\ProjetoF_micro.X\main.c: 545:                     lastDebo
      +                          unceTime = currentTime;
  2515  00200A  C020  F0C7         	movff	readKey@currentTime,readKey@lastDebounceTime
  2516  00200E  C021  F0C8         	movff	readKey@currentTime+1,readKey@lastDebounceTime+1
  2517  002012  C022  F0C9         	movff	readKey@currentTime+2,readKey@lastDebounceTime+2
  2518  002016  C023  F0CA         	movff	readKey@currentTime+3,readKey@lastDebounceTime+3
  2519                           
  2520                           ;C:\Users\JeeJ\MPLABXProjects\ProjetoF_micro.X\main.c: 546:                     lastStab
      +                          leKey = pressedKey;
  2521  00201A  C028  F054         	movff	readKey@pressedKey,readKey@lastStableKey
  2522  00201E                     l3549:
  2523                           
  2524                           ;C:\Users\JeeJ\MPLABXProjects\ProjetoF_micro.X\main.c: 549:                 if ((current
      +                          Time - lastDebounceTime) > 50) {
  2525  00201E  0100               	movlb	0	; () banked
  2526  002020  51C7               	movf	readKey@lastDebounceTime& (0+255),w,b
  2527  002022  5C20               	subwf	readKey@currentTime^0,w,c
  2528  002024  6E12               	movwf	??_readKey^0,c
  2529  002026  51C8               	movf	(readKey@lastDebounceTime+1)& (0+255),w,b
  2530  002028  5821               	subwfb	(readKey@currentTime+1)^0,w,c
  2531  00202A  6E13               	movwf	(??_readKey+1)^0,c
  2532  00202C  51C9               	movf	(readKey@lastDebounceTime+2)& (0+255),w,b
  2533  00202E  5822               	subwfb	(readKey@currentTime+2)^0,w,c
  2534  002030  6E14               	movwf	(??_readKey+2)^0,c
  2535  002032  51CA               	movf	(readKey@lastDebounceTime+3)& (0+255),w,b
  2536  002034  5823               	subwfb	(readKey@currentTime+3)^0,w,c
  2537  002036  6E15               	movwf	(??_readKey+3)^0,c
  2538  002038  5015               	movf	(??_readKey+3)^0,w,c
  2539  00203A  1014               	iorwf	(??_readKey+2)^0,w,c
  2540  00203C  1013               	iorwf	(??_readKey+1)^0,w,c
  2541  00203E  E109               	bnz	u3270
  2542  002040  0E33               	movlw	51
  2543  002042  5C12               	subwf	??_readKey^0,w,c
  2544  002044  A0D8               	btfss	status,0,c
  2545  002046  EF27  F010         	goto	u3271
  2546  00204A  EF29  F010         	goto	u3270
  2547  00204E                     u3271:
  2548  00204E  EF52  F010         	goto	l3559
  2549  002052                     u3270:
  2550  002052                     
  2551                           ; BSR set to: 0
  2552                           ;C:\Users\JeeJ\MPLABXProjects\ProjetoF_micro.X\main.c: 550:                     if ((cur
      +                          rentTime - lastKeyPressTime) > 300) {
  2553  002052  51C3               	movf	readKey@lastKeyPressTime& (0+255),w,b
  2554  002054  5C20               	subwf	readKey@currentTime^0,w,c
  2555  002056  6E12               	movwf	??_readKey^0,c
  2556  002058  51C4               	movf	(readKey@lastKeyPressTime+1)& (0+255),w,b
  2557  00205A  5821               	subwfb	(readKey@currentTime+1)^0,w,c
  2558  00205C  6E13               	movwf	(??_readKey+1)^0,c
  2559  00205E  51C5               	movf	(readKey@lastKeyPressTime+2)& (0+255),w,b
  2560  002060  5822               	subwfb	(readKey@currentTime+2)^0,w,c
  2561  002062  6E14               	movwf	(??_readKey+2)^0,c
  2562  002064  51C6               	movf	(readKey@lastKeyPressTime+3)& (0+255),w,b
  2563  002066  5823               	subwfb	(readKey@currentTime+3)^0,w,c
  2564  002068  6E15               	movwf	(??_readKey+3)^0,c
  2565  00206A  5015               	movf	(??_readKey+3)^0,w,c
  2566  00206C  1014               	iorwf	(??_readKey+2)^0,w,c
  2567  00206E  E10B               	bnz	u3280
  2568  002070  0E2D               	movlw	45
  2569  002072  5C12               	subwf	??_readKey^0,w,c
  2570  002074  0E01               	movlw	1
  2571  002076  5813               	subwfb	(??_readKey+1)^0,w,c
  2572  002078  A0D8               	btfss	status,0,c
  2573  00207A  EF41  F010         	goto	u3281
  2574  00207E  EF43  F010         	goto	u3280
  2575  002082                     u3281:
  2576  002082  EF52  F010         	goto	l3559
  2577  002086                     u3280:
  2578  002086                     
  2579                           ; BSR set to: 0
  2580                           ;C:\Users\JeeJ\MPLABXProjects\ProjetoF_micro.X\main.c: 551:                         last
      +                          KeyPressTime = currentTime;
  2581  002086  C020  F0C3         	movff	readKey@currentTime,readKey@lastKeyPressTime
  2582  00208A  C021  F0C4         	movff	readKey@currentTime+1,readKey@lastKeyPressTime+1
  2583  00208E  C022  F0C5         	movff	readKey@currentTime+2,readKey@lastKeyPressTime+2
  2584  002092  C023  F0C6         	movff	readKey@currentTime+3,readKey@lastKeyPressTime+3
  2585                           
  2586                           ;C:\Users\JeeJ\MPLABXProjects\ProjetoF_micro.X\main.c: 552:                         keyS
      +                          tate.currentKey = pressedKey;
  2587  002096  C028  F0B9         	movff	readKey@pressedKey,_keyState+1
  2588                           
  2589                           ;C:\Users\JeeJ\MPLABXProjects\ProjetoF_micro.X\main.c: 553:                         keyS
      +                          tate.lastKey = pressedKey;
  2590  00209A  C028  F0B8         	movff	readKey@pressedKey,_keyState
  2591  00209E                     
  2592                           ; BSR set to: 0
  2593                           ;C:\Users\JeeJ\MPLABXProjects\ProjetoF_micro.X\main.c: 554:                         retu
      +                          rn pressedKey;
  2594  00209E  5028               	movf	readKey@pressedKey^0,w,c
  2595  0020A0  EF70  F010         	goto	l225
  2596  0020A4                     l3559:
  2597                           
  2598                           ; BSR set to: 0
  2599                           ;C:\Users\JeeJ\MPLABXProjects\ProjetoF_micro.X\main.c: 557:                 return 0;
  2600  0020A4  0E00               	movlw	0
  2601  0020A6  EF70  F010         	goto	l225
  2602  0020AA                     l3563:
  2603                           
  2604                           ;C:\Users\JeeJ\MPLABXProjects\ProjetoF_micro.X\main.c: 559:         }
  2605  0020AA  4A26               	infsnz	readKey@row^0,f,c
  2606  0020AC  2A27               	incf	(readKey@row+1)^0,f,c
  2607  0020AE  BE27               	btfsc	(readKey@row+1)^0,7,c
  2608  0020B0  EF63  F010         	goto	u3291
  2609  0020B4  5027               	movf	(readKey@row+1)^0,w,c
  2610  0020B6  E109               	bnz	u3290
  2611  0020B8  0E04               	movlw	4
  2612  0020BA  5C26               	subwf	readKey@row^0,w,c
  2613  0020BC  A0D8               	btfss	status,0,c
  2614  0020BE  EF63  F010         	goto	u3291
  2615  0020C2  EF65  F010         	goto	u3290
  2616  0020C6                     u3291:
  2617  0020C6  EFBA  F00F         	goto	l3541
  2618  0020CA                     u3290:
  2619  0020CA                     
  2620                           ;C:\Users\JeeJ\MPLABXProjects\ProjetoF_micro.X\main.c: 560:     }
  2621  0020CA  4A24               	infsnz	readKey@col^0,f,c
  2622  0020CC  2A25               	incf	(readKey@col+1)^0,f,c
  2623  0020CE  EF8F  F00F         	goto	l3527
  2624  0020D2                     l3571:
  2625                           
  2626                           ;C:\Users\JeeJ\MPLABXProjects\ProjetoF_micro.X\main.c: 562:     keyState.lastKey = 0;
  2627  0020D2  0E00               	movlw	0
  2628  0020D4  0100               	movlb	0	; () banked
  2629  0020D6  6FB8               	movwf	_keyState& (0+255),b
  2630                           
  2631                           ;C:\Users\JeeJ\MPLABXProjects\ProjetoF_micro.X\main.c: 563:     lastStableKey = 0;
  2632  0020D8  0E00               	movlw	0
  2633  0020DA  6E54               	movwf	readKey@lastStableKey^0,c
  2634  0020DC  EF52  F010         	goto	l3559
  2635  0020E0                     l225:
  2636                           
  2637                           ; BSR set to: 0
  2638  0020E0  0012               	return		;funcret
  2639  0020E2                     __end_of_readKey:
  2640                           	callstack 0
  2641                           
  2642 ;; *************** function _displayMenu *****************
  2643 ;; Defined at:
  2644 ;;		line 282 in file "C:\Users\JeeJ\MPLABXProjects\ProjetoF_micro.X\main.c"
  2645 ;; Parameters:    Size  Location     Type
  2646 ;;  menuIndex       2   22[BANK0 ] int 
  2647 ;; Auto vars:     Size  Location     Type
  2648 ;;  valueStr       10   28[BANK0 ] unsigned char [10]
  2649 ;;  currentGas      4   50[BANK0 ] float 
  2650 ;;  currentHumid    4   46[BANK0 ] float 
  2651 ;;  currentTemp     4   42[BANK0 ] float 
  2652 ;;  currentTime     4   38[BANK0 ] unsigned long 
  2653 ;; Return value:  Size  Location     Type
  2654 ;;                  1    wreg      void 
  2655 ;; Registers used:
  2656 ;;		wreg, fsr1l, fsr1h, fsr2l, fsr2h, status,2, status,0, tblptrl, tblptrh, tblptru, prodl, prodh, cstack
  2657 ;; Tracked objects:
  2658 ;;		On entry : 0/0
  2659 ;;		On exit  : 0/0
  2660 ;;		Unchanged: 0/0
  2661 ;; Data sizes:     COMRAM   BANK0   BANK1   BANK2   BANK3   BANK4   BANK5   BANK6   BANK7
  2662 ;;      Params:         0       2       0       0       0       0       0       0       0
  2663 ;;      Locals:         0      26       0       0       0       0       0       0       0
  2664 ;;      Temps:          0       4       0       0       0       0       0       0       0
  2665 ;;      Totals:         0      32       0       0       0       0       0       0       0
  2666 ;;Total ram usage:       32 bytes
  2667 ;; Hardware stack levels used: 1
  2668 ;; Hardware stack levels required when called: 5
  2669 ;; This function calls:
  2670 ;;		_WriteCmdXLCD
  2671 ;;		___flge
  2672 ;;		___xxtofl
  2673 ;;		_displayStuff
  2674 ;;		_floatToString
  2675 ;;		_gasRead
  2676 ;;		_humidade
  2677 ;;		_itoa
  2678 ;;		_millis
  2679 ;;		_tempRead
  2680 ;; This function is called by:
  2681 ;;		_main
  2682 ;; This function uses a non-reentrant model
  2683 ;;
  2684                           
  2685                           	psect	text5
  2686  000012                     __ptext5:
  2687                           	callstack 0
  2688  000012                     _displayMenu:
  2689                           	callstack 25
  2690  000012                     
  2691                           ;C:\Users\JeeJ\MPLABXProjects\ProjetoF_micro.X\main.c: 283:     char valueStr[10];;C:\Us
      +                          ers\JeeJ\MPLABXProjects\ProjetoF_micro.X\main.c: 284:     static unsigned long lastUpdat
      +                          eTime = 0;;C:\Users\JeeJ\MPLABXProjects\ProjetoF_micro.X\main.c: 285:     unsigned long 
      +                          currentTime = millis();
  2692  000012  ECE4  F017         	call	_millis	;wreg free
  2693  000016  C00A  F086         	movff	?_millis,displayMenu@currentTime
  2694  00001A  C00B  F087         	movff	?_millis+1,displayMenu@currentTime+1
  2695  00001E  C00C  F088         	movff	?_millis+2,displayMenu@currentTime+2
  2696  000022  C00D  F089         	movff	?_millis+3,displayMenu@currentTime+3
  2697  000026                     
  2698                           ;C:\Users\JeeJ\MPLABXProjects\ProjetoF_micro.X\main.c: 286:     float currentTemp, curre
      +                          ntHumid, currentGas;;C:\Users\JeeJ\MPLABXProjects\ProjetoF_micro.X\main.c: 289:     if (
      +                          currentTime - lastUpdateTime < 500) {
  2699  000026  0100               	movlb	0	; () banked
  2700  000028  51CB               	movf	displayMenu@lastUpdateTime& (0+255),w,b
  2701  00002A  5D86               	subwf	displayMenu@currentTime& (0+255),w,b
  2702  00002C  6F78               	movwf	??_displayMenu& (0+255),b
  2703  00002E  51CC               	movf	(displayMenu@lastUpdateTime+1)& (0+255),w,b
  2704  000030  5987               	subwfb	(displayMenu@currentTime+1)& (0+255),w,b
  2705  000032  6F79               	movwf	(??_displayMenu+1)& (0+255),b
  2706  000034  51CD               	movf	(displayMenu@lastUpdateTime+2)& (0+255),w,b
  2707  000036  5988               	subwfb	(displayMenu@currentTime+2)& (0+255),w,b
  2708  000038  6F7A               	movwf	(??_displayMenu+2)& (0+255),b
  2709  00003A  51CE               	movf	(displayMenu@lastUpdateTime+3)& (0+255),w,b
  2710  00003C  5989               	subwfb	(displayMenu@currentTime+3)& (0+255),w,b
  2711  00003E  6F7B               	movwf	(??_displayMenu+3)& (0+255),b
  2712  000040  517B               	movf	(??_displayMenu+3)& (0+255),w,b
  2713  000042  117A               	iorwf	(??_displayMenu+2)& (0+255),w,b
  2714  000044  E109               	bnz	u5111
  2715  000046  0EF4               	movlw	244
  2716  000048  5D78               	subwf	??_displayMenu& (0+255),w,b
  2717  00004A  0E01               	movlw	1
  2718  00004C  5979               	subwfb	(??_displayMenu+1)& (0+255),w,b
  2719  00004E  B0D8               	btfsc	status,0,c
  2720  000050  EF2C  F000         	goto	u5111
  2721  000054  EF2E  F000         	goto	u5110
  2722  000058                     u5111:
  2723  000058  EF32  F000         	goto	l135
  2724  00005C                     u5110:
  2725  00005C  EF63  F004         	goto	l136
  2726  000060                     l5061:
  2727                           
  2728                           ;C:\Users\JeeJ\MPLABXProjects\ProjetoF_micro.X\main.c: 290:         return;
  2729  000060  EF63  F004         	goto	l136
  2730  000064                     l135:
  2731                           
  2732                           ; BSR set to: 0
  2733                           ;C:\Users\JeeJ\MPLABXProjects\ProjetoF_micro.X\main.c: 292:     lastUpdateTime = current
      +                          Time;
  2734  000064  C086  F0CB         	movff	displayMenu@currentTime,displayMenu@lastUpdateTime
  2735  000068  C087  F0CC         	movff	displayMenu@currentTime+1,displayMenu@lastUpdateTime+1
  2736  00006C  C088  F0CD         	movff	displayMenu@currentTime+2,displayMenu@lastUpdateTime+2
  2737  000070  C089  F0CE         	movff	displayMenu@currentTime+3,displayMenu@lastUpdateTime+3
  2738  000074                     
  2739                           ; BSR set to: 0
  2740                           ;C:\Users\JeeJ\MPLABXProjects\ProjetoF_micro.X\main.c: 294:     WriteCmdXLCD(0x01);
  2741  000074  0E01               	movlw	1
  2742  000076  ECA9  F017         	call	_WriteCmdXLCD
  2743  00007A                     
  2744                           ;C:\Users\JeeJ\MPLABXProjects\ProjetoF_micro.X\main.c: 295:     _delay((unsigned long)((
      +                          2)*(20000000/4000.0)));
  2745  00007A  0E0D               	movlw	13
  2746  00007C  0100               	movlb	0	; () banked
  2747  00007E  6F78               	movwf	??_displayMenu& (0+255),b
  2748  000080  0EFB               	movlw	251
  2749  000082                     u5627:
  2750  000082  2EE8               	decfsz	wreg,f,c
  2751  000084  D7FE               	bra	u5627
  2752  000086  2F78               	decfsz	??_displayMenu& (0+255),f,b
  2753  000088  D7FC               	bra	u5627
  2754  00008A  D000               	nop2	
  2755  00008C                     
  2756                           ;C:\Users\JeeJ\MPLABXProjects\ProjetoF_micro.X\main.c: 298:     currentTemp = tempRead()
      +                          ;
  2757  00008C  EC5B  F014         	call	_tempRead	;wreg free
  2758  000090  C060  F08A         	movff	?_tempRead,displayMenu@currentTemp
  2759  000094  C061  F08B         	movff	?_tempRead+1,displayMenu@currentTemp+1
  2760  000098  C062  F08C         	movff	?_tempRead+2,displayMenu@currentTemp+2
  2761  00009C  C063  F08D         	movff	?_tempRead+3,displayMenu@currentTemp+3
  2762  0000A0                     
  2763                           ;C:\Users\JeeJ\MPLABXProjects\ProjetoF_micro.X\main.c: 299:     currentHumid = humidade(
      +                          );
  2764  0000A0  ECBA  F014         	call	_humidade	;wreg free
  2765  0000A4  C060  F08E         	movff	?_humidade,displayMenu@currentHumid
  2766  0000A8  C061  F08F         	movff	?_humidade+1,displayMenu@currentHumid+1
  2767  0000AC  C062  F090         	movff	?_humidade+2,displayMenu@currentHumid+2
  2768  0000B0  C063  F091         	movff	?_humidade+3,displayMenu@currentHumid+3
  2769  0000B4                     
  2770                           ;C:\Users\JeeJ\MPLABXProjects\ProjetoF_micro.X\main.c: 300:     currentGas = gasRead();
  2771  0000B4  EC19  F015         	call	_gasRead	;wreg free
  2772  0000B8  C060  F092         	movff	?_gasRead,displayMenu@currentGas
  2773  0000BC  C061  F093         	movff	?_gasRead+1,displayMenu@currentGas+1
  2774  0000C0  C062  F094         	movff	?_gasRead+2,displayMenu@currentGas+2
  2775  0000C4  C063  F095         	movff	?_gasRead+3,displayMenu@currentGas+3
  2776                           
  2777                           ;C:\Users\JeeJ\MPLABXProjects\ProjetoF_micro.X\main.c: 303:     switch (menuIndex) {
  2778  0000C8  EF40  F004         	goto	l5183
  2779  0000CC                     l5073:
  2780                           
  2781                           ; BSR set to: 0
  2782                           ;C:\Users\JeeJ\MPLABXProjects\ProjetoF_micro.X\main.c: 305:             displayStuff(0, 
      +                          0, "Temp:");
  2783  0000CC  0E00               	movlw	0
  2784  0000CE  6E0C               	movwf	(displayStuff@row+1)^0,c
  2785  0000D0  0E00               	movlw	0
  2786  0000D2  6E0B               	movwf	displayStuff@row^0,c
  2787  0000D4  0E00               	movlw	0
  2788  0000D6  6E0E               	movwf	(displayStuff@column+1)^0,c
  2789  0000D8  0E00               	movlw	0
  2790  0000DA  6E0D               	movwf	displayStuff@column^0,c
  2791  0000DC  0E90               	movlw	low (STR_1+7)
  2792  0000DE  6E0F               	movwf	displayStuff@stuff^0,c
  2793  0000E0  0E7F               	movlw	high (STR_1+7)
  2794  0000E2  6E10               	movwf	(displayStuff@stuff+1)^0,c
  2795  0000E4  ECD0  F015         	call	_displayStuff	;wreg free
  2796  0000E8                     
  2797                           ;C:\Users\JeeJ\MPLABXProjects\ProjetoF_micro.X\main.c: 306:             floatToString(cu
      +                          rrentTemp, valueStr, 1);
  2798  0000E8  C08A  F031         	movff	displayMenu@currentTemp,floatToString@value
  2799  0000EC  C08B  F032         	movff	displayMenu@currentTemp+1,floatToString@value+1
  2800  0000F0  C08C  F033         	movff	displayMenu@currentTemp+2,floatToString@value+2
  2801  0000F4  C08D  F034         	movff	displayMenu@currentTemp+3,floatToString@value+3
  2802  0000F8  0E7C               	movlw	low displayMenu@valueStr
  2803  0000FA  6E35               	movwf	floatToString@buffer^0,c
  2804  0000FC  0E00               	movlw	high displayMenu@valueStr
  2805  0000FE  6E36               	movwf	(floatToString@buffer+1)^0,c
  2806  000100  0E00               	movlw	0
  2807  000102  6E38               	movwf	(floatToString@precision+1)^0,c
  2808  000104  0E01               	movlw	1
  2809  000106  6E37               	movwf	floatToString@precision^0,c
  2810  000108  EC1D  F00E         	call	_floatToString	;wreg free
  2811  00010C                     
  2812                           ;C:\Users\JeeJ\MPLABXProjects\ProjetoF_micro.X\main.c: 307:             displayStuff(0, 
      +                          6, valueStr);
  2813  00010C  0E00               	movlw	0
  2814  00010E  6E0C               	movwf	(displayStuff@row+1)^0,c
  2815  000110  0E00               	movlw	0
  2816  000112  6E0B               	movwf	displayStuff@row^0,c
  2817  000114  0E00               	movlw	0
  2818  000116  6E0E               	movwf	(displayStuff@column+1)^0,c
  2819  000118  0E06               	movlw	6
  2820  00011A  6E0D               	movwf	displayStuff@column^0,c
  2821  00011C  0E7C               	movlw	low displayMenu@valueStr
  2822  00011E  6E0F               	movwf	displayStuff@stuff^0,c
  2823  000120  0E00               	movlw	high displayMenu@valueStr
  2824  000122  6E10               	movwf	(displayStuff@stuff+1)^0,c
  2825  000124  ECD0  F015         	call	_displayStuff	;wreg free
  2826  000128                     
  2827                           ;C:\Users\JeeJ\MPLABXProjects\ProjetoF_micro.X\main.c: 308:             displayStuff(0, 
      +                          11, "C");
  2828  000128  0E00               	movlw	0
  2829  00012A  6E0C               	movwf	(displayStuff@row+1)^0,c
  2830  00012C  0E00               	movlw	0
  2831  00012E  6E0B               	movwf	displayStuff@row^0,c
  2832  000130  0E00               	movlw	0
  2833  000132  6E0E               	movwf	(displayStuff@column+1)^0,c
  2834  000134  0E0B               	movlw	11
  2835  000136  6E0D               	movwf	displayStuff@column^0,c
  2836  000138  0EFD               	movlw	low STR_9
  2837  00013A  6E0F               	movwf	displayStuff@stuff^0,c
  2838  00013C  0E7F               	movlw	high STR_9
  2839  00013E  6E10               	movwf	(displayStuff@stuff+1)^0,c
  2840  000140  ECD0  F015         	call	_displayStuff	;wreg free
  2841  000144                     
  2842                           ;C:\Users\JeeJ\MPLABXProjects\ProjetoF_micro.X\main.c: 309:             displayStuff(1, 
      +                          0, "Lim:");
  2843  000144  0E00               	movlw	0
  2844  000146  6E0C               	movwf	(displayStuff@row+1)^0,c
  2845  000148  0E01               	movlw	1
  2846  00014A  6E0B               	movwf	displayStuff@row^0,c
  2847  00014C  0E00               	movlw	0
  2848  00014E  6E0E               	movwf	(displayStuff@column+1)^0,c
  2849  000150  0E00               	movlw	0
  2850  000152  6E0D               	movwf	displayStuff@column^0,c
  2851  000154  0EEA               	movlw	low STR_10
  2852  000156  6E0F               	movwf	displayStuff@stuff^0,c
  2853  000158  0E7F               	movlw	high STR_10
  2854  00015A  6E10               	movwf	(displayStuff@stuff+1)^0,c
  2855  00015C  ECD0  F015         	call	_displayStuff	;wreg free
  2856  000160                     
  2857                           ;C:\Users\JeeJ\MPLABXProjects\ProjetoF_micro.X\main.c: 310:             itoa(Tlim, value
      +                          Str);
  2858  000160  C0D6  F012         	movff	_Tlim,itoa@value
  2859  000164  C0D7  F013         	movff	_Tlim+1,itoa@value+1
  2860  000168  0E7C               	movlw	low displayMenu@valueStr
  2861  00016A  6E14               	movwf	itoa@ptr^0,c
  2862  00016C  0E00               	movlw	high displayMenu@valueStr
  2863  00016E  6E15               	movwf	(itoa@ptr+1)^0,c
  2864  000170  EC4B  F011         	call	_itoa	;wreg free
  2865  000174                     l5085:
  2866                           
  2867                           ;C:\Users\JeeJ\MPLABXProjects\ProjetoF_micro.X\main.c: 311:             displayStuff(1, 
      +                          4, valueStr);
  2868  000174  0E00               	movlw	0
  2869  000176  6E0C               	movwf	(displayStuff@row+1)^0,c
  2870  000178  0E01               	movlw	1
  2871  00017A  6E0B               	movwf	displayStuff@row^0,c
  2872  00017C  0E00               	movlw	0
  2873  00017E  6E0E               	movwf	(displayStuff@column+1)^0,c
  2874  000180  0E04               	movlw	4
  2875  000182  6E0D               	movwf	displayStuff@column^0,c
  2876  000184  0E7C               	movlw	low displayMenu@valueStr
  2877  000186  6E0F               	movwf	displayStuff@stuff^0,c
  2878  000188  0E00               	movlw	high displayMenu@valueStr
  2879  00018A  6E10               	movwf	(displayStuff@stuff+1)^0,c
  2880  00018C  ECD0  F015         	call	_displayStuff	;wreg free
  2881                           
  2882                           ;C:\Users\JeeJ\MPLABXProjects\ProjetoF_micro.X\main.c: 312:             break;
  2883  000190  EF63  F004         	goto	l136
  2884  000194                     l5087:
  2885                           
  2886                           ; BSR set to: 0
  2887                           ;C:\Users\JeeJ\MPLABXProjects\ProjetoF_micro.X\main.c: 315:             displayStuff(0, 
      +                          0, "Humid:");
  2888  000194  0E00               	movlw	0
  2889  000196  6E0C               	movwf	(displayStuff@row+1)^0,c
  2890  000198  0E00               	movlw	0
  2891  00019A  6E0B               	movwf	displayStuff@row^0,c
  2892  00019C  0E00               	movlw	0
  2893  00019E  6E0E               	movwf	(displayStuff@column+1)^0,c
  2894  0001A0  0E00               	movlw	0
  2895  0001A2  6E0D               	movwf	displayStuff@column^0,c
  2896  0001A4  0EE3               	movlw	low STR_11
  2897  0001A6  6E0F               	movwf	displayStuff@stuff^0,c
  2898  0001A8  0E7F               	movlw	high STR_11
  2899  0001AA  6E10               	movwf	(displayStuff@stuff+1)^0,c
  2900  0001AC  ECD0  F015         	call	_displayStuff	;wreg free
  2901  0001B0                     
  2902                           ;C:\Users\JeeJ\MPLABXProjects\ProjetoF_micro.X\main.c: 316:             floatToString(cu
      +                          rrentHumid, valueStr, 1);
  2903  0001B0  C08E  F031         	movff	displayMenu@currentHumid,floatToString@value
  2904  0001B4  C08F  F032         	movff	displayMenu@currentHumid+1,floatToString@value+1
  2905  0001B8  C090  F033         	movff	displayMenu@currentHumid+2,floatToString@value+2
  2906  0001BC  C091  F034         	movff	displayMenu@currentHumid+3,floatToString@value+3
  2907  0001C0  0E7C               	movlw	low displayMenu@valueStr
  2908  0001C2  6E35               	movwf	floatToString@buffer^0,c
  2909  0001C4  0E00               	movlw	high displayMenu@valueStr
  2910  0001C6  6E36               	movwf	(floatToString@buffer+1)^0,c
  2911  0001C8  0E00               	movlw	0
  2912  0001CA  6E38               	movwf	(floatToString@precision+1)^0,c
  2913  0001CC  0E01               	movlw	1
  2914  0001CE  6E37               	movwf	floatToString@precision^0,c
  2915  0001D0  EC1D  F00E         	call	_floatToString	;wreg free
  2916  0001D4                     
  2917                           ;C:\Users\JeeJ\MPLABXProjects\ProjetoF_micro.X\main.c: 317:             displayStuff(0, 
      +                          7, valueStr);
  2918  0001D4  0E00               	movlw	0
  2919  0001D6  6E0C               	movwf	(displayStuff@row+1)^0,c
  2920  0001D8  0E00               	movlw	0
  2921  0001DA  6E0B               	movwf	displayStuff@row^0,c
  2922  0001DC  0E00               	movlw	0
  2923  0001DE  6E0E               	movwf	(displayStuff@column+1)^0,c
  2924  0001E0  0E07               	movlw	7
  2925  0001E2  6E0D               	movwf	displayStuff@column^0,c
  2926  0001E4  0E7C               	movlw	low displayMenu@valueStr
  2927  0001E6  6E0F               	movwf	displayStuff@stuff^0,c
  2928  0001E8  0E00               	movlw	high displayMenu@valueStr
  2929  0001EA  6E10               	movwf	(displayStuff@stuff+1)^0,c
  2930  0001EC  ECD0  F015         	call	_displayStuff	;wreg free
  2931  0001F0                     
  2932                           ;C:\Users\JeeJ\MPLABXProjects\ProjetoF_micro.X\main.c: 318:             displayStuff(0, 
      +                          12, "%");
  2933  0001F0  0E00               	movlw	0
  2934  0001F2  6E0C               	movwf	(displayStuff@row+1)^0,c
  2935  0001F4  0E00               	movlw	0
  2936  0001F6  6E0B               	movwf	displayStuff@row^0,c
  2937  0001F8  0E00               	movlw	0
  2938  0001FA  6E0E               	movwf	(displayStuff@column+1)^0,c
  2939  0001FC  0E0C               	movlw	12
  2940  0001FE  6E0D               	movwf	displayStuff@column^0,c
  2941  000200  0EFB               	movlw	low STR_12
  2942  000202  6E0F               	movwf	displayStuff@stuff^0,c
  2943  000204  0E7F               	movlw	high STR_12
  2944  000206  6E10               	movwf	(displayStuff@stuff+1)^0,c
  2945  000208  ECD0  F015         	call	_displayStuff	;wreg free
  2946  00020C                     
  2947                           ;C:\Users\JeeJ\MPLABXProjects\ProjetoF_micro.X\main.c: 319:             displayStuff(1, 
      +                          0, "Lim:");
  2948  00020C  0E00               	movlw	0
  2949  00020E  6E0C               	movwf	(displayStuff@row+1)^0,c
  2950  000210  0E01               	movlw	1
  2951  000212  6E0B               	movwf	displayStuff@row^0,c
  2952  000214  0E00               	movlw	0
  2953  000216  6E0E               	movwf	(displayStuff@column+1)^0,c
  2954  000218  0E00               	movlw	0
  2955  00021A  6E0D               	movwf	displayStuff@column^0,c
  2956  00021C  0EEA               	movlw	low STR_10
  2957  00021E  6E0F               	movwf	displayStuff@stuff^0,c
  2958  000220  0E7F               	movlw	high STR_10
  2959  000222  6E10               	movwf	(displayStuff@stuff+1)^0,c
  2960  000224  ECD0  F015         	call	_displayStuff	;wreg free
  2961  000228                     
  2962                           ;C:\Users\JeeJ\MPLABXProjects\ProjetoF_micro.X\main.c: 320:             itoa(Hlim, value
      +                          Str);
  2963  000228  C0D4  F012         	movff	_Hlim,itoa@value
  2964  00022C  C0D5  F013         	movff	_Hlim+1,itoa@value+1
  2965  000230  0E7C               	movlw	low displayMenu@valueStr
  2966  000232  6E14               	movwf	itoa@ptr^0,c
  2967  000234  0E00               	movlw	high displayMenu@valueStr
  2968  000236  6E15               	movwf	(itoa@ptr+1)^0,c
  2969  000238  EC4B  F011         	call	_itoa	;wreg free
  2970  00023C  EFBA  F000         	goto	l5085
  2971  000240                     l5101:
  2972                           
  2973                           ; BSR set to: 0
  2974                           ;C:\Users\JeeJ\MPLABXProjects\ProjetoF_micro.X\main.c: 325:             displayStuff(0, 
      +                          0, "Gas:");
  2975  000240  0E00               	movlw	0
  2976  000242  6E0C               	movwf	(displayStuff@row+1)^0,c
  2977  000244  0E00               	movlw	0
  2978  000246  6E0B               	movwf	displayStuff@row^0,c
  2979  000248  0E00               	movlw	0
  2980  00024A  6E0E               	movwf	(displayStuff@column+1)^0,c
  2981  00024C  0E00               	movlw	0
  2982  00024E  6E0D               	movwf	displayStuff@column^0,c
  2983  000250  0EEF               	movlw	low STR_14
  2984  000252  6E0F               	movwf	displayStuff@stuff^0,c
  2985  000254  0E7F               	movlw	high STR_14
  2986  000256  6E10               	movwf	(displayStuff@stuff+1)^0,c
  2987  000258  ECD0  F015         	call	_displayStuff	;wreg free
  2988  00025C                     
  2989                           ;C:\Users\JeeJ\MPLABXProjects\ProjetoF_micro.X\main.c: 326:             floatToString(cu
      +                          rrentGas, valueStr, 1);
  2990  00025C  C092  F031         	movff	displayMenu@currentGas,floatToString@value
  2991  000260  C093  F032         	movff	displayMenu@currentGas+1,floatToString@value+1
  2992  000264  C094  F033         	movff	displayMenu@currentGas+2,floatToString@value+2
  2993  000268  C095  F034         	movff	displayMenu@currentGas+3,floatToString@value+3
  2994  00026C  0E7C               	movlw	low displayMenu@valueStr
  2995  00026E  6E35               	movwf	floatToString@buffer^0,c
  2996  000270  0E00               	movlw	high displayMenu@valueStr
  2997  000272  6E36               	movwf	(floatToString@buffer+1)^0,c
  2998  000274  0E00               	movlw	0
  2999  000276  6E38               	movwf	(floatToString@precision+1)^0,c
  3000  000278  0E01               	movlw	1
  3001  00027A  6E37               	movwf	floatToString@precision^0,c
  3002  00027C  EC1D  F00E         	call	_floatToString	;wreg free
  3003  000280                     
  3004                           ;C:\Users\JeeJ\MPLABXProjects\ProjetoF_micro.X\main.c: 327:             displayStuff(0, 
      +                          5, valueStr);
  3005  000280  0E00               	movlw	0
  3006  000282  6E0C               	movwf	(displayStuff@row+1)^0,c
  3007  000284  0E00               	movlw	0
  3008  000286  6E0B               	movwf	displayStuff@row^0,c
  3009  000288  0E00               	movlw	0
  3010  00028A  6E0E               	movwf	(displayStuff@column+1)^0,c
  3011  00028C  0E05               	movlw	5
  3012  00028E  6E0D               	movwf	displayStuff@column^0,c
  3013  000290  0E7C               	movlw	low displayMenu@valueStr
  3014  000292  6E0F               	movwf	displayStuff@stuff^0,c
  3015  000294  0E00               	movlw	high displayMenu@valueStr
  3016  000296  6E10               	movwf	(displayStuff@stuff+1)^0,c
  3017  000298  ECD0  F015         	call	_displayStuff	;wreg free
  3018  00029C                     
  3019                           ;C:\Users\JeeJ\MPLABXProjects\ProjetoF_micro.X\main.c: 328:             displayStuff(0, 
      +                          11, "ppm");
  3020  00029C  0E00               	movlw	0
  3021  00029E  6E0C               	movwf	(displayStuff@row+1)^0,c
  3022  0002A0  0E00               	movlw	0
  3023  0002A2  6E0B               	movwf	displayStuff@row^0,c
  3024  0002A4  0E00               	movlw	0
  3025  0002A6  6E0E               	movwf	(displayStuff@column+1)^0,c
  3026  0002A8  0E0B               	movlw	11
  3027  0002AA  6E0D               	movwf	displayStuff@column^0,c
  3028  0002AC  0EF4               	movlw	low STR_15
  3029  0002AE  6E0F               	movwf	displayStuff@stuff^0,c
  3030  0002B0  0E7F               	movlw	high STR_15
  3031  0002B2  6E10               	movwf	(displayStuff@stuff+1)^0,c
  3032  0002B4  ECD0  F015         	call	_displayStuff	;wreg free
  3033  0002B8                     
  3034                           ;C:\Users\JeeJ\MPLABXProjects\ProjetoF_micro.X\main.c: 329:             displayStuff(1, 
      +                          0, "Lim:");
  3035  0002B8  0E00               	movlw	0
  3036  0002BA  6E0C               	movwf	(displayStuff@row+1)^0,c
  3037  0002BC  0E01               	movlw	1
  3038  0002BE  6E0B               	movwf	displayStuff@row^0,c
  3039  0002C0  0E00               	movlw	0
  3040  0002C2  6E0E               	movwf	(displayStuff@column+1)^0,c
  3041  0002C4  0E00               	movlw	0
  3042  0002C6  6E0D               	movwf	displayStuff@column^0,c
  3043  0002C8  0EEA               	movlw	low STR_10
  3044  0002CA  6E0F               	movwf	displayStuff@stuff^0,c
  3045  0002CC  0E7F               	movlw	high STR_10
  3046  0002CE  6E10               	movwf	(displayStuff@stuff+1)^0,c
  3047  0002D0  ECD0  F015         	call	_displayStuff	;wreg free
  3048  0002D4                     
  3049                           ;C:\Users\JeeJ\MPLABXProjects\ProjetoF_micro.X\main.c: 330:             itoa(Glim, value
      +                          Str);
  3050  0002D4  C0D2  F012         	movff	_Glim,itoa@value
  3051  0002D8  C0D3  F013         	movff	_Glim+1,itoa@value+1
  3052  0002DC  0E7C               	movlw	low displayMenu@valueStr
  3053  0002DE  6E14               	movwf	itoa@ptr^0,c
  3054  0002E0  0E00               	movlw	high displayMenu@valueStr
  3055  0002E2  6E15               	movwf	(itoa@ptr+1)^0,c
  3056  0002E4  EC4B  F011         	call	_itoa	;wreg free
  3057  0002E8  EFBA  F000         	goto	l5085
  3058  0002EC                     l5115:
  3059                           
  3060                           ; BSR set to: 0
  3061                           ;C:\Users\JeeJ\MPLABXProjects\ProjetoF_micro.X\main.c: 335:             displayStuff(0, 
      +                          0, "Leituras");
  3062  0002EC  0E00               	movlw	0
  3063  0002EE  6E0C               	movwf	(displayStuff@row+1)^0,c
  3064  0002F0  0E00               	movlw	0
  3065  0002F2  6E0B               	movwf	displayStuff@row^0,c
  3066  0002F4  0E00               	movlw	0
  3067  0002F6  6E0E               	movwf	(displayStuff@column+1)^0,c
  3068  0002F8  0E00               	movlw	0
  3069  0002FA  6E0D               	movwf	displayStuff@column^0,c
  3070  0002FC  0EDA               	movlw	low STR_17
  3071  0002FE  6E0F               	movwf	displayStuff@stuff^0,c
  3072  000300  0E7F               	movlw	high STR_17
  3073  000302  6E10               	movwf	(displayStuff@stuff+1)^0,c
  3074  000304  ECD0  F015         	call	_displayStuff	;wreg free
  3075  000308                     
  3076                           ;C:\Users\JeeJ\MPLABXProjects\ProjetoF_micro.X\main.c: 336:             if (currentTemp 
      +                          <= Tlim && currentHumid <= Hlim && currentGas <= Glim) {
  3077  000308  C0D6  F00A         	movff	_Tlim,___xxtofl@val
  3078  00030C  C0D7  F00B         	movff	_Tlim+1,___xxtofl@val+1
  3079  000310  0E00               	movlw	0
  3080  000312  BE0B               	btfsc	(___xxtofl@val+1)^0,7,c
  3081  000314  0EFF               	movlw	-1
  3082  000316  6E0C               	movwf	(___xxtofl@val+2)^0,c
  3083  000318  6E0D               	movwf	(___xxtofl@val+3)^0,c
  3084  00031A  0E01               	movlw	1
  3085  00031C  EC71  F010         	call	___xxtofl
  3086  000320  C00A  F018         	movff	?___xxtofl,___flge@ff1
  3087  000324  C00B  F019         	movff	?___xxtofl+1,___flge@ff1+1
  3088  000328  C00C  F01A         	movff	?___xxtofl+2,___flge@ff1+2
  3089  00032C  C00D  F01B         	movff	?___xxtofl+3,___flge@ff1+3
  3090  000330  C08A  F01C         	movff	displayMenu@currentTemp,___flge@ff2
  3091  000334  C08B  F01D         	movff	displayMenu@currentTemp+1,___flge@ff2+1
  3092  000338  C08C  F01E         	movff	displayMenu@currentTemp+2,___flge@ff2+2
  3093  00033C  C08D  F01F         	movff	displayMenu@currentTemp+3,___flge@ff2+3
  3094  000340  EC00  F013         	call	___flge	;wreg free
  3095  000344  A0D8               	btfss	status,0,c
  3096  000346  EFA7  F001         	goto	u5121
  3097  00034A  EFA9  F001         	goto	u5120
  3098  00034E                     u5121:
  3099  00034E  EF03  F002         	goto	l5125
  3100  000352                     u5120:
  3101  000352  C0D4  F00A         	movff	_Hlim,___xxtofl@val
  3102  000356  C0D5  F00B         	movff	_Hlim+1,___xxtofl@val+1
  3103  00035A  0E00               	movlw	0
  3104  00035C  BE0B               	btfsc	(___xxtofl@val+1)^0,7,c
  3105  00035E  0EFF               	movlw	-1
  3106  000360  6E0C               	movwf	(___xxtofl@val+2)^0,c
  3107  000362  6E0D               	movwf	(___xxtofl@val+3)^0,c
  3108  000364  0E01               	movlw	1
  3109  000366  EC71  F010         	call	___xxtofl
  3110  00036A  C00A  F018         	movff	?___xxtofl,___flge@ff1
  3111  00036E  C00B  F019         	movff	?___xxtofl+1,___flge@ff1+1
  3112  000372  C00C  F01A         	movff	?___xxtofl+2,___flge@ff1+2
  3113  000376  C00D  F01B         	movff	?___xxtofl+3,___flge@ff1+3
  3114  00037A  C08E  F01C         	movff	displayMenu@currentHumid,___flge@ff2
  3115  00037E  C08F  F01D         	movff	displayMenu@currentHumid+1,___flge@ff2+1
  3116  000382  C090  F01E         	movff	displayMenu@currentHumid+2,___flge@ff2+2
  3117  000386  C091  F01F         	movff	displayMenu@currentHumid+3,___flge@ff2+3
  3118  00038A  EC00  F013         	call	___flge	;wreg free
  3119  00038E  A0D8               	btfss	status,0,c
  3120  000390  EFCC  F001         	goto	u5131
  3121  000394  EFCE  F001         	goto	u5130
  3122  000398                     u5131:
  3123  000398  EF03  F002         	goto	l5125
  3124  00039C                     u5130:
  3125  00039C  C0D2  F00A         	movff	_Glim,___xxtofl@val
  3126  0003A0  C0D3  F00B         	movff	_Glim+1,___xxtofl@val+1
  3127  0003A4  0E00               	movlw	0
  3128  0003A6  BE0B               	btfsc	(___xxtofl@val+1)^0,7,c
  3129  0003A8  0EFF               	movlw	-1
  3130  0003AA  6E0C               	movwf	(___xxtofl@val+2)^0,c
  3131  0003AC  6E0D               	movwf	(___xxtofl@val+3)^0,c
  3132  0003AE  0E01               	movlw	1
  3133  0003B0  EC71  F010         	call	___xxtofl
  3134  0003B4  C00A  F018         	movff	?___xxtofl,___flge@ff1
  3135  0003B8  C00B  F019         	movff	?___xxtofl+1,___flge@ff1+1
  3136  0003BC  C00C  F01A         	movff	?___xxtofl+2,___flge@ff1+2
  3137  0003C0  C00D  F01B         	movff	?___xxtofl+3,___flge@ff1+3
  3138  0003C4  C092  F01C         	movff	displayMenu@currentGas,___flge@ff2
  3139  0003C8  C093  F01D         	movff	displayMenu@currentGas+1,___flge@ff2+1
  3140  0003CC  C094  F01E         	movff	displayMenu@currentGas+2,___flge@ff2+2
  3141  0003D0  C095  F01F         	movff	displayMenu@currentGas+3,___flge@ff2+3
  3142  0003D4  EC00  F013         	call	___flge	;wreg free
  3143  0003D8  A0D8               	btfss	status,0,c
  3144  0003DA  EFF1  F001         	goto	u5141
  3145  0003DE  EFF3  F001         	goto	u5140
  3146  0003E2                     u5141:
  3147  0003E2  EF03  F002         	goto	l5125
  3148  0003E6                     u5140:
  3149  0003E6                     
  3150                           ;C:\Users\JeeJ\MPLABXProjects\ProjetoF_micro.X\main.c: 337:                 displayStuff
      +                          (1, 0, "OK");
  3151  0003E6  0E00               	movlw	0
  3152  0003E8  6E0C               	movwf	(displayStuff@row+1)^0,c
  3153  0003EA  0E01               	movlw	1
  3154  0003EC  6E0B               	movwf	displayStuff@row^0,c
  3155  0003EE  0E00               	movlw	0
  3156  0003F0  6E0E               	movwf	(displayStuff@column+1)^0,c
  3157  0003F2  0E00               	movlw	0
  3158  0003F4  6E0D               	movwf	displayStuff@column^0,c
  3159  0003F6  0EF8               	movlw	low STR_18
  3160  0003F8  6E0F               	movwf	displayStuff@stuff^0,c
  3161  0003FA  0E7F               	movlw	high STR_18
  3162  0003FC  6E10               	movwf	(displayStuff@stuff+1)^0,c
  3163  0003FE  ECD0  F015         	call	_displayStuff	;wreg free
  3164                           
  3165                           ;C:\Users\JeeJ\MPLABXProjects\ProjetoF_micro.X\main.c: 338:             } else {
  3166  000402  EF63  F004         	goto	l136
  3167  000406                     l5125:
  3168                           
  3169                           ;C:\Users\JeeJ\MPLABXProjects\ProjetoF_micro.X\main.c: 339:                 static int e
      +                          rrorCycle = 0;;C:\Users\JeeJ\MPLABXProjects\ProjetoF_micro.X\main.c: 340:               
      +                            errorCycle++;
  3170  000406  4A50               	infsnz	displayMenu@errorCycle^0,f,c
  3171  000408  2A51               	incf	(displayMenu@errorCycle+1)^0,f,c
  3172  00040A                     
  3173                           ;C:\Users\JeeJ\MPLABXProjects\ProjetoF_micro.X\main.c: 342:                 if (errorCyc
      +                          le > 3) errorCycle = 0;
  3174  00040A  BE51               	btfsc	(displayMenu@errorCycle+1)^0,7,c
  3175  00040C  EF11  F002         	goto	u5151
  3176  000410  5051               	movf	(displayMenu@errorCycle+1)^0,w,c
  3177  000412  E109               	bnz	u5150
  3178  000414  0E04               	movlw	4
  3179  000416  5C50               	subwf	displayMenu@errorCycle^0,w,c
  3180  000418  A0D8               	btfss	status,0,c
  3181  00041A  EF11  F002         	goto	u5151
  3182  00041E  EF13  F002         	goto	u5150
  3183  000422                     u5151:
  3184  000422  EFB8  F002         	goto	l5145
  3185  000426                     u5150:
  3186  000426  0E00               	movlw	0
  3187  000428  6E51               	movwf	(displayMenu@errorCycle+1)^0,c
  3188  00042A  0E00               	movlw	0
  3189  00042C  6E50               	movwf	displayMenu@errorCycle^0,c
  3190  00042E  EFB8  F002         	goto	l5145
  3191  000432                     l5131:
  3192                           
  3193                           ; BSR set to: 0
  3194                           ;C:\Users\JeeJ\MPLABXProjects\ProjetoF_micro.X\main.c: 346:                         if (
      +                          currentTemp > Tlim) {
  3195  000432  C0D6  F00A         	movff	_Tlim,___xxtofl@val
  3196  000436  C0D7  F00B         	movff	_Tlim+1,___xxtofl@val+1
  3197  00043A  0E00               	movlw	0
  3198  00043C  BE0B               	btfsc	(___xxtofl@val+1)^0,7,c
  3199  00043E  0EFF               	movlw	-1
  3200  000440  6E0C               	movwf	(___xxtofl@val+2)^0,c
  3201  000442  6E0D               	movwf	(___xxtofl@val+3)^0,c
  3202  000444  0E01               	movlw	1
  3203  000446  EC71  F010         	call	___xxtofl
  3204  00044A  C00A  F018         	movff	?___xxtofl,___flge@ff1
  3205  00044E  C00B  F019         	movff	?___xxtofl+1,___flge@ff1+1
  3206  000452  C00C  F01A         	movff	?___xxtofl+2,___flge@ff1+2
  3207  000456  C00D  F01B         	movff	?___xxtofl+3,___flge@ff1+3
  3208  00045A  C08A  F01C         	movff	displayMenu@currentTemp,___flge@ff2
  3209  00045E  C08B  F01D         	movff	displayMenu@currentTemp+1,___flge@ff2+1
  3210  000462  C08C  F01E         	movff	displayMenu@currentTemp+2,___flge@ff2+2
  3211  000466  C08D  F01F         	movff	displayMenu@currentTemp+3,___flge@ff2+3
  3212  00046A  EC00  F013         	call	___flge	;wreg free
  3213  00046E  B0D8               	btfsc	status,0,c
  3214  000470  EF3C  F002         	goto	u5161
  3215  000474  EF3E  F002         	goto	u5160
  3216  000478                     u5161:
  3217  000478  EF30  F000         	goto	l5061
  3218  00047C                     u5160:
  3219  00047C                     
  3220                           ;C:\Users\JeeJ\MPLABXProjects\ProjetoF_micro.X\main.c: 347:                             
      +                          displayStuff(1, 0, "T_lim excedida!");
  3221  00047C  0E00               	movlw	0
  3222  00047E  6E0C               	movwf	(displayStuff@row+1)^0,c
  3223  000480  0E01               	movlw	1
  3224  000482  6E0B               	movwf	displayStuff@row^0,c
  3225  000484  0E00               	movlw	0
  3226  000486  6E0E               	movwf	(displayStuff@column+1)^0,c
  3227  000488  0E00               	movlw	0
  3228  00048A  6E0D               	movwf	displayStuff@column^0,c
  3229  00048C  0E30               	movlw	low STR_19
  3230  00048E  6E0F               	movwf	displayStuff@stuff^0,c
  3231  000490  0E7F               	movlw	high STR_19
  3232  000492  6E10               	movwf	(displayStuff@stuff+1)^0,c
  3233  000494  ECD0  F015         	call	_displayStuff	;wreg free
  3234  000498  EF63  F004         	goto	l136
  3235  00049C                     l5135:
  3236                           
  3237                           ; BSR set to: 0
  3238                           ;C:\Users\JeeJ\MPLABXProjects\ProjetoF_micro.X\main.c: 351:                         if (
      +                          currentHumid > Hlim) {
  3239  00049C  C0D4  F00A         	movff	_Hlim,___xxtofl@val
  3240  0004A0  C0D5  F00B         	movff	_Hlim+1,___xxtofl@val+1
  3241  0004A4  0E00               	movlw	0
  3242  0004A6  BE0B               	btfsc	(___xxtofl@val+1)^0,7,c
  3243  0004A8  0EFF               	movlw	-1
  3244  0004AA  6E0C               	movwf	(___xxtofl@val+2)^0,c
  3245  0004AC  6E0D               	movwf	(___xxtofl@val+3)^0,c
  3246  0004AE  0E01               	movlw	1
  3247  0004B0  EC71  F010         	call	___xxtofl
  3248  0004B4  C00A  F018         	movff	?___xxtofl,___flge@ff1
  3249  0004B8  C00B  F019         	movff	?___xxtofl+1,___flge@ff1+1
  3250  0004BC  C00C  F01A         	movff	?___xxtofl+2,___flge@ff1+2
  3251  0004C0  C00D  F01B         	movff	?___xxtofl+3,___flge@ff1+3
  3252  0004C4  C08E  F01C         	movff	displayMenu@currentHumid,___flge@ff2
  3253  0004C8  C08F  F01D         	movff	displayMenu@currentHumid+1,___flge@ff2+1
  3254  0004CC  C090  F01E         	movff	displayMenu@currentHumid+2,___flge@ff2+2
  3255  0004D0  C091  F01F         	movff	displayMenu@currentHumid+3,___flge@ff2+3
  3256  0004D4  EC00  F013         	call	___flge	;wreg free
  3257  0004D8  B0D8               	btfsc	status,0,c
  3258  0004DA  EF71  F002         	goto	u5171
  3259  0004DE  EF73  F002         	goto	u5170
  3260  0004E2                     u5171:
  3261  0004E2  EF30  F000         	goto	l5061
  3262  0004E6                     u5170:
  3263  0004E6                     
  3264                           ;C:\Users\JeeJ\MPLABXProjects\ProjetoF_micro.X\main.c: 352:                             
      +                          displayStuff(1, 0, "H_lim excedida!");
  3265  0004E6  0E00               	movlw	0
  3266  0004E8  6E0C               	movwf	(displayStuff@row+1)^0,c
  3267  0004EA  0E01               	movlw	1
  3268  0004EC  6E0B               	movwf	displayStuff@row^0,c
  3269  0004EE  0E00               	movlw	0
  3270  0004F0  6E0E               	movwf	(displayStuff@column+1)^0,c
  3271  0004F2  0E00               	movlw	0
  3272  0004F4  6E0D               	movwf	displayStuff@column^0,c
  3273  0004F6  0E20               	movlw	low STR_20
  3274  0004F8  6E0F               	movwf	displayStuff@stuff^0,c
  3275  0004FA  0E7F               	movlw	high STR_20
  3276  0004FC  6E10               	movwf	(displayStuff@stuff+1)^0,c
  3277  0004FE  ECD0  F015         	call	_displayStuff	;wreg free
  3278  000502  EF63  F004         	goto	l136
  3279  000506                     l5139:
  3280                           
  3281                           ; BSR set to: 0
  3282                           ;C:\Users\JeeJ\MPLABXProjects\ProjetoF_micro.X\main.c: 356:                         if (
      +                          currentGas > Glim) {
  3283  000506  C0D2  F00A         	movff	_Glim,___xxtofl@val
  3284  00050A  C0D3  F00B         	movff	_Glim+1,___xxtofl@val+1
  3285  00050E  0E00               	movlw	0
  3286  000510  BE0B               	btfsc	(___xxtofl@val+1)^0,7,c
  3287  000512  0EFF               	movlw	-1
  3288  000514  6E0C               	movwf	(___xxtofl@val+2)^0,c
  3289  000516  6E0D               	movwf	(___xxtofl@val+3)^0,c
  3290  000518  0E01               	movlw	1
  3291  00051A  EC71  F010         	call	___xxtofl
  3292  00051E  C00A  F018         	movff	?___xxtofl,___flge@ff1
  3293  000522  C00B  F019         	movff	?___xxtofl+1,___flge@ff1+1
  3294  000526  C00C  F01A         	movff	?___xxtofl+2,___flge@ff1+2
  3295  00052A  C00D  F01B         	movff	?___xxtofl+3,___flge@ff1+3
  3296  00052E  C092  F01C         	movff	displayMenu@currentGas,___flge@ff2
  3297  000532  C093  F01D         	movff	displayMenu@currentGas+1,___flge@ff2+1
  3298  000536  C094  F01E         	movff	displayMenu@currentGas+2,___flge@ff2+2
  3299  00053A  C095  F01F         	movff	displayMenu@currentGas+3,___flge@ff2+3
  3300  00053E  EC00  F013         	call	___flge	;wreg free
  3301  000542  B0D8               	btfsc	status,0,c
  3302  000544  EFA6  F002         	goto	u5181
  3303  000548  EFA8  F002         	goto	u5180
  3304  00054C                     u5181:
  3305  00054C  EF30  F000         	goto	l5061
  3306  000550                     u5180:
  3307  000550                     
  3308                           ;C:\Users\JeeJ\MPLABXProjects\ProjetoF_micro.X\main.c: 357:                             
      +                          displayStuff(1, 0, "G_lim excedido!");
  3309  000550  0E00               	movlw	0
  3310  000552  6E0C               	movwf	(displayStuff@row+1)^0,c
  3311  000554  0E01               	movlw	1
  3312  000556  6E0B               	movwf	displayStuff@row^0,c
  3313  000558  0E00               	movlw	0
  3314  00055A  6E0E               	movwf	(displayStuff@column+1)^0,c
  3315  00055C  0E00               	movlw	0
  3316  00055E  6E0D               	movwf	displayStuff@column^0,c
  3317  000560  0E40               	movlw	low STR_21
  3318  000562  6E0F               	movwf	displayStuff@stuff^0,c
  3319  000564  0E7F               	movlw	high STR_21
  3320  000566  6E10               	movwf	(displayStuff@stuff+1)^0,c
  3321  000568  ECD0  F015         	call	_displayStuff	;wreg free
  3322  00056C  EF63  F004         	goto	l136
  3323  000570                     l5145:
  3324  000570  C050  F078         	movff	displayMenu@errorCycle,??_displayMenu
  3325  000574  C051  F079         	movff	displayMenu@errorCycle+1,??_displayMenu+1
  3326                           
  3327                           ; Switch on 2 bytes has been partitioned into a top level switch of size 1, and 1 sub-sw
      +                          itches
  3328                           ; Switch size 1, requested type "simple"
  3329                           ; Number of cases is 1, Range of values is 0 to 0
  3330                           ; switch strategies available:
  3331                           ; Name         Instructions Cycles
  3332                           ; simple_byte            4     3 (average)
  3333                           ;	Chosen strategy is simple_byte
  3334  000578  0100               	movlb	0	; () banked
  3335  00057A  5179               	movf	(??_displayMenu+1)& (0+255),w,b
  3336  00057C  0A00               	xorlw	0	; case 0
  3337  00057E  B4D8               	btfsc	status,2,c
  3338  000580  EFC4  F002         	goto	l5433
  3339  000584  EF63  F004         	goto	l136
  3340  000588                     l5433:
  3341                           
  3342                           ; BSR set to: 0
  3343                           ; Switch size 1, requested type "simple"
  3344                           ; Number of cases is 3, Range of values is 0 to 2
  3345                           ; switch strategies available:
  3346                           ; Name         Instructions Cycles
  3347                           ; simple_byte           10     6 (average)
  3348                           ;	Chosen strategy is simple_byte
  3349  000588  5178               	movf	??_displayMenu& (0+255),w,b
  3350  00058A  0A00               	xorlw	0	; case 0
  3351  00058C  B4D8               	btfsc	status,2,c
  3352  00058E  EF19  F002         	goto	l5131
  3353  000592  0A01               	xorlw	1	; case 1
  3354  000594  B4D8               	btfsc	status,2,c
  3355  000596  EF4E  F002         	goto	l5135
  3356  00059A  0A03               	xorlw	3	; case 2
  3357  00059C  B4D8               	btfsc	status,2,c
  3358  00059E  EF83  F002         	goto	l5139
  3359  0005A2  EF63  F004         	goto	l136
  3360  0005A6                     l5147:
  3361                           
  3362                           ; BSR set to: 0
  3363                           ;C:\Users\JeeJ\MPLABXProjects\ProjetoF_micro.X\main.c: 365:             displayStuff(0, 
      +                          0, "Sistemas:");
  3364  0005A6  0E00               	movlw	0
  3365  0005A8  6E0C               	movwf	(displayStuff@row+1)^0,c
  3366  0005AA  0E00               	movlw	0
  3367  0005AC  6E0B               	movwf	displayStuff@row^0,c
  3368  0005AE  0E00               	movlw	0
  3369  0005B0  6E0E               	movwf	(displayStuff@column+1)^0,c
  3370  0005B2  0E00               	movlw	0
  3371  0005B4  6E0D               	movwf	displayStuff@column^0,c
  3372  0005B6  0ED0               	movlw	low STR_22
  3373  0005B8  6E0F               	movwf	displayStuff@stuff^0,c
  3374  0005BA  0E7F               	movlw	high STR_22
  3375  0005BC  6E10               	movwf	(displayStuff@stuff+1)^0,c
  3376  0005BE  ECD0  F015         	call	_displayStuff	;wreg free
  3377  0005C2                     
  3378                           ;C:\Users\JeeJ\MPLABXProjects\ProjetoF_micro.X\main.c: 366:             if (currentTemp 
      +                          <= Tlim && currentHumid <= Hlim && currentGas <= Glim) {
  3379  0005C2  C0D6  F00A         	movff	_Tlim,___xxtofl@val
  3380  0005C6  C0D7  F00B         	movff	_Tlim+1,___xxtofl@val+1
  3381  0005CA  0E00               	movlw	0
  3382  0005CC  BE0B               	btfsc	(___xxtofl@val+1)^0,7,c
  3383  0005CE  0EFF               	movlw	-1
  3384  0005D0  6E0C               	movwf	(___xxtofl@val+2)^0,c
  3385  0005D2  6E0D               	movwf	(___xxtofl@val+3)^0,c
  3386  0005D4  0E01               	movlw	1
  3387  0005D6  EC71  F010         	call	___xxtofl
  3388  0005DA  C00A  F018         	movff	?___xxtofl,___flge@ff1
  3389  0005DE  C00B  F019         	movff	?___xxtofl+1,___flge@ff1+1
  3390  0005E2  C00C  F01A         	movff	?___xxtofl+2,___flge@ff1+2
  3391  0005E6  C00D  F01B         	movff	?___xxtofl+3,___flge@ff1+3
  3392  0005EA  C08A  F01C         	movff	displayMenu@currentTemp,___flge@ff2
  3393  0005EE  C08B  F01D         	movff	displayMenu@currentTemp+1,___flge@ff2+1
  3394  0005F2  C08C  F01E         	movff	displayMenu@currentTemp+2,___flge@ff2+2
  3395  0005F6  C08D  F01F         	movff	displayMenu@currentTemp+3,___flge@ff2+3
  3396  0005FA  EC00  F013         	call	___flge	;wreg free
  3397  0005FE  A0D8               	btfss	status,0,c
  3398  000600  EF04  F003         	goto	u5191
  3399  000604  EF06  F003         	goto	u5190
  3400  000608                     u5191:
  3401  000608  EF60  F003         	goto	l5157
  3402  00060C                     u5190:
  3403  00060C  C0D4  F00A         	movff	_Hlim,___xxtofl@val
  3404  000610  C0D5  F00B         	movff	_Hlim+1,___xxtofl@val+1
  3405  000614  0E00               	movlw	0
  3406  000616  BE0B               	btfsc	(___xxtofl@val+1)^0,7,c
  3407  000618  0EFF               	movlw	-1
  3408  00061A  6E0C               	movwf	(___xxtofl@val+2)^0,c
  3409  00061C  6E0D               	movwf	(___xxtofl@val+3)^0,c
  3410  00061E  0E01               	movlw	1
  3411  000620  EC71  F010         	call	___xxtofl
  3412  000624  C00A  F018         	movff	?___xxtofl,___flge@ff1
  3413  000628  C00B  F019         	movff	?___xxtofl+1,___flge@ff1+1
  3414  00062C  C00C  F01A         	movff	?___xxtofl+2,___flge@ff1+2
  3415  000630  C00D  F01B         	movff	?___xxtofl+3,___flge@ff1+3
  3416  000634  C08E  F01C         	movff	displayMenu@currentHumid,___flge@ff2
  3417  000638  C08F  F01D         	movff	displayMenu@currentHumid+1,___flge@ff2+1
  3418  00063C  C090  F01E         	movff	displayMenu@currentHumid+2,___flge@ff2+2
  3419  000640  C091  F01F         	movff	displayMenu@currentHumid+3,___flge@ff2+3
  3420  000644  EC00  F013         	call	___flge	;wreg free
  3421  000648  A0D8               	btfss	status,0,c
  3422  00064A  EF29  F003         	goto	u5201
  3423  00064E  EF2B  F003         	goto	u5200
  3424  000652                     u5201:
  3425  000652  EF60  F003         	goto	l5157
  3426  000656                     u5200:
  3427  000656  C0D2  F00A         	movff	_Glim,___xxtofl@val
  3428  00065A  C0D3  F00B         	movff	_Glim+1,___xxtofl@val+1
  3429  00065E  0E00               	movlw	0
  3430  000660  BE0B               	btfsc	(___xxtofl@val+1)^0,7,c
  3431  000662  0EFF               	movlw	-1
  3432  000664  6E0C               	movwf	(___xxtofl@val+2)^0,c
  3433  000666  6E0D               	movwf	(___xxtofl@val+3)^0,c
  3434  000668  0E01               	movlw	1
  3435  00066A  EC71  F010         	call	___xxtofl
  3436  00066E  C00A  F018         	movff	?___xxtofl,___flge@ff1
  3437  000672  C00B  F019         	movff	?___xxtofl+1,___flge@ff1+1
  3438  000676  C00C  F01A         	movff	?___xxtofl+2,___flge@ff1+2
  3439  00067A  C00D  F01B         	movff	?___xxtofl+3,___flge@ff1+3
  3440  00067E  C092  F01C         	movff	displayMenu@currentGas,___flge@ff2
  3441  000682  C093  F01D         	movff	displayMenu@currentGas+1,___flge@ff2+1
  3442  000686  C094  F01E         	movff	displayMenu@currentGas+2,___flge@ff2+2
  3443  00068A  C095  F01F         	movff	displayMenu@currentGas+3,___flge@ff2+3
  3444  00068E  EC00  F013         	call	___flge	;wreg free
  3445  000692  A0D8               	btfss	status,0,c
  3446  000694  EF4E  F003         	goto	u5211
  3447  000698  EF50  F003         	goto	u5210
  3448  00069C                     u5211:
  3449  00069C  EF60  F003         	goto	l5157
  3450  0006A0                     u5210:
  3451  0006A0                     
  3452                           ;C:\Users\JeeJ\MPLABXProjects\ProjetoF_micro.X\main.c: 367:                 displayStuff
      +                          (1, 0, "OK");
  3453  0006A0  0E00               	movlw	0
  3454  0006A2  6E0C               	movwf	(displayStuff@row+1)^0,c
  3455  0006A4  0E01               	movlw	1
  3456  0006A6  6E0B               	movwf	displayStuff@row^0,c
  3457  0006A8  0E00               	movlw	0
  3458  0006AA  6E0E               	movwf	(displayStuff@column+1)^0,c
  3459  0006AC  0E00               	movlw	0
  3460  0006AE  6E0D               	movwf	displayStuff@column^0,c
  3461  0006B0  0EF8               	movlw	low STR_18
  3462  0006B2  6E0F               	movwf	displayStuff@stuff^0,c
  3463  0006B4  0E7F               	movlw	high STR_18
  3464  0006B6  6E10               	movwf	(displayStuff@stuff+1)^0,c
  3465  0006B8  ECD0  F015         	call	_displayStuff	;wreg free
  3466                           
  3467                           ;C:\Users\JeeJ\MPLABXProjects\ProjetoF_micro.X\main.c: 368:             } else {
  3468  0006BC  EF63  F004         	goto	l136
  3469  0006C0                     l5157:
  3470                           
  3471                           ;C:\Users\JeeJ\MPLABXProjects\ProjetoF_micro.X\main.c: 369:                 static int s
      +                          ystemCycle = 0;;C:\Users\JeeJ\MPLABXProjects\ProjetoF_micro.X\main.c: 370:              
      +                             systemCycle++;
  3472  0006C0  4A4E               	infsnz	displayMenu@systemCycle^0,f,c
  3473  0006C2  2A4F               	incf	(displayMenu@systemCycle+1)^0,f,c
  3474  0006C4                     
  3475                           ;C:\Users\JeeJ\MPLABXProjects\ProjetoF_micro.X\main.c: 372:                 if (systemCy
      +                          cle > 3) systemCycle = 0;
  3476  0006C4  BE4F               	btfsc	(displayMenu@systemCycle+1)^0,7,c
  3477  0006C6  EF6E  F003         	goto	u5221
  3478  0006CA  504F               	movf	(displayMenu@systemCycle+1)^0,w,c
  3479  0006CC  E109               	bnz	u5220
  3480  0006CE  0E04               	movlw	4
  3481  0006D0  5C4E               	subwf	displayMenu@systemCycle^0,w,c
  3482  0006D2  A0D8               	btfss	status,0,c
  3483  0006D4  EF6E  F003         	goto	u5221
  3484  0006D8  EF70  F003         	goto	u5220
  3485  0006DC                     u5221:
  3486  0006DC  EF15  F004         	goto	l5177
  3487  0006E0                     u5220:
  3488  0006E0  0E00               	movlw	0
  3489  0006E2  6E4F               	movwf	(displayMenu@systemCycle+1)^0,c
  3490  0006E4  0E00               	movlw	0
  3491  0006E6  6E4E               	movwf	displayMenu@systemCycle^0,c
  3492  0006E8  EF15  F004         	goto	l5177
  3493  0006EC                     l5163:
  3494                           
  3495                           ; BSR set to: 0
  3496                           ;C:\Users\JeeJ\MPLABXProjects\ProjetoF_micro.X\main.c: 376:                         if (
      +                          currentTemp > Tlim) {
  3497  0006EC  C0D6  F00A         	movff	_Tlim,___xxtofl@val
  3498  0006F0  C0D7  F00B         	movff	_Tlim+1,___xxtofl@val+1
  3499  0006F4  0E00               	movlw	0
  3500  0006F6  BE0B               	btfsc	(___xxtofl@val+1)^0,7,c
  3501  0006F8  0EFF               	movlw	-1
  3502  0006FA  6E0C               	movwf	(___xxtofl@val+2)^0,c
  3503  0006FC  6E0D               	movwf	(___xxtofl@val+3)^0,c
  3504  0006FE  0E01               	movlw	1
  3505  000700  EC71  F010         	call	___xxtofl
  3506  000704  C00A  F018         	movff	?___xxtofl,___flge@ff1
  3507  000708  C00B  F019         	movff	?___xxtofl+1,___flge@ff1+1
  3508  00070C  C00C  F01A         	movff	?___xxtofl+2,___flge@ff1+2
  3509  000710  C00D  F01B         	movff	?___xxtofl+3,___flge@ff1+3
  3510  000714  C08A  F01C         	movff	displayMenu@currentTemp,___flge@ff2
  3511  000718  C08B  F01D         	movff	displayMenu@currentTemp+1,___flge@ff2+1
  3512  00071C  C08C  F01E         	movff	displayMenu@currentTemp+2,___flge@ff2+2
  3513  000720  C08D  F01F         	movff	displayMenu@currentTemp+3,___flge@ff2+3
  3514  000724  EC00  F013         	call	___flge	;wreg free
  3515  000728  B0D8               	btfsc	status,0,c
  3516  00072A  EF99  F003         	goto	u5231
  3517  00072E  EF9B  F003         	goto	u5230
  3518  000732                     u5231:
  3519  000732  EF63  F004         	goto	l136
  3520  000736                     u5230:
  3521  000736                     
  3522                           ;C:\Users\JeeJ\MPLABXProjects\ProjetoF_micro.X\main.c: 377:                             
      +                          displayStuff(1, 0, "Resfriador ON");
  3523  000736  0E00               	movlw	0
  3524  000738  6E0C               	movwf	(displayStuff@row+1)^0,c
  3525  00073A  0E01               	movlw	1
  3526  00073C  6E0B               	movwf	displayStuff@row^0,c
  3527  00073E  0E00               	movlw	0
  3528  000740  6E0E               	movwf	(displayStuff@column+1)^0,c
  3529  000742  0E00               	movlw	0
  3530  000744  6E0D               	movwf	displayStuff@column^0,c
  3531  000746  0E6E               	movlw	low STR_24
  3532  000748  6E0F               	movwf	displayStuff@stuff^0,c
  3533  00074A  0E7F               	movlw	high STR_24
  3534  00074C  6E10               	movwf	(displayStuff@stuff+1)^0,c
  3535  00074E  ECD0  F015         	call	_displayStuff	;wreg free
  3536  000752  EF63  F004         	goto	l136
  3537  000756                     l5167:
  3538                           
  3539                           ; BSR set to: 0
  3540                           ;C:\Users\JeeJ\MPLABXProjects\ProjetoF_micro.X\main.c: 381:                         if (
      +                          currentHumid > Hlim) {
  3541  000756  C0D4  F00A         	movff	_Hlim,___xxtofl@val
  3542  00075A  C0D5  F00B         	movff	_Hlim+1,___xxtofl@val+1
  3543  00075E  0E00               	movlw	0
  3544  000760  BE0B               	btfsc	(___xxtofl@val+1)^0,7,c
  3545  000762  0EFF               	movlw	-1
  3546  000764  6E0C               	movwf	(___xxtofl@val+2)^0,c
  3547  000766  6E0D               	movwf	(___xxtofl@val+3)^0,c
  3548  000768  0E01               	movlw	1
  3549  00076A  EC71  F010         	call	___xxtofl
  3550  00076E  C00A  F018         	movff	?___xxtofl,___flge@ff1
  3551  000772  C00B  F019         	movff	?___xxtofl+1,___flge@ff1+1
  3552  000776  C00C  F01A         	movff	?___xxtofl+2,___flge@ff1+2
  3553  00077A  C00D  F01B         	movff	?___xxtofl+3,___flge@ff1+3
  3554  00077E  C08E  F01C         	movff	displayMenu@currentHumid,___flge@ff2
  3555  000782  C08F  F01D         	movff	displayMenu@currentHumid+1,___flge@ff2+1
  3556  000786  C090  F01E         	movff	displayMenu@currentHumid+2,___flge@ff2+2
  3557  00078A  C091  F01F         	movff	displayMenu@currentHumid+3,___flge@ff2+3
  3558  00078E  EC00  F013         	call	___flge	;wreg free
  3559  000792  B0D8               	btfsc	status,0,c
  3560  000794  EFCE  F003         	goto	u5241
  3561  000798  EFD0  F003         	goto	u5240
  3562  00079C                     u5241:
  3563  00079C  EF63  F004         	goto	l136
  3564  0007A0                     u5240:
  3565  0007A0                     
  3566                           ;C:\Users\JeeJ\MPLABXProjects\ProjetoF_micro.X\main.c: 382:                             
      +                          displayStuff(1, 0, "Humidificador ON");
  3567  0007A0  0E00               	movlw	0
  3568  0007A2  6E0C               	movwf	(displayStuff@row+1)^0,c
  3569  0007A4  0E01               	movlw	1
  3570  0007A6  6E0B               	movwf	displayStuff@row^0,c
  3571  0007A8  0E00               	movlw	0
  3572  0007AA  6E0E               	movwf	(displayStuff@column+1)^0,c
  3573  0007AC  0E00               	movlw	0
  3574  0007AE  6E0D               	movwf	displayStuff@column^0,c
  3575  0007B0  0E0F               	movlw	low STR_25
  3576  0007B2  6E0F               	movwf	displayStuff@stuff^0,c
  3577  0007B4  0E7F               	movlw	high STR_25
  3578  0007B6  6E10               	movwf	(displayStuff@stuff+1)^0,c
  3579  0007B8  ECD0  F015         	call	_displayStuff	;wreg free
  3580  0007BC  EF63  F004         	goto	l136
  3581  0007C0                     l5171:
  3582                           
  3583                           ; BSR set to: 0
  3584                           ;C:\Users\JeeJ\MPLABXProjects\ProjetoF_micro.X\main.c: 386:                         if (
      +                          currentGas > Glim) {
  3585  0007C0  C0D2  F00A         	movff	_Glim,___xxtofl@val
  3586  0007C4  C0D3  F00B         	movff	_Glim+1,___xxtofl@val+1
  3587  0007C8  0E00               	movlw	0
  3588  0007CA  BE0B               	btfsc	(___xxtofl@val+1)^0,7,c
  3589  0007CC  0EFF               	movlw	-1
  3590  0007CE  6E0C               	movwf	(___xxtofl@val+2)^0,c
  3591  0007D0  6E0D               	movwf	(___xxtofl@val+3)^0,c
  3592  0007D2  0E01               	movlw	1
  3593  0007D4  EC71  F010         	call	___xxtofl
  3594  0007D8  C00A  F018         	movff	?___xxtofl,___flge@ff1
  3595  0007DC  C00B  F019         	movff	?___xxtofl+1,___flge@ff1+1
  3596  0007E0  C00C  F01A         	movff	?___xxtofl+2,___flge@ff1+2
  3597  0007E4  C00D  F01B         	movff	?___xxtofl+3,___flge@ff1+3
  3598  0007E8  C092  F01C         	movff	displayMenu@currentGas,___flge@ff2
  3599  0007EC  C093  F01D         	movff	displayMenu@currentGas+1,___flge@ff2+1
  3600  0007F0  C094  F01E         	movff	displayMenu@currentGas+2,___flge@ff2+2
  3601  0007F4  C095  F01F         	movff	displayMenu@currentGas+3,___flge@ff2+3
  3602  0007F8  EC00  F013         	call	___flge	;wreg free
  3603  0007FC  B0D8               	btfsc	status,0,c
  3604  0007FE  EF03  F004         	goto	u5251
  3605  000802  EF05  F004         	goto	u5250
  3606  000806                     u5251:
  3607  000806  EF63  F004         	goto	l136
  3608  00080A                     u5250:
  3609  00080A                     
  3610                           ;C:\Users\JeeJ\MPLABXProjects\ProjetoF_micro.X\main.c: 387:                             
      +                          displayStuff(1, 0, "Exaustor ON");
  3611  00080A  0E00               	movlw	0
  3612  00080C  6E0C               	movwf	(displayStuff@row+1)^0,c
  3613  00080E  0E01               	movlw	1
  3614  000810  6E0B               	movwf	displayStuff@row^0,c
  3615  000812  0E00               	movlw	0
  3616  000814  6E0E               	movwf	(displayStuff@column+1)^0,c
  3617  000816  0E00               	movlw	0
  3618  000818  6E0D               	movwf	displayStuff@column^0,c
  3619  00081A  0EAE               	movlw	low STR_26
  3620  00081C  6E0F               	movwf	displayStuff@stuff^0,c
  3621  00081E  0E7F               	movlw	high STR_26
  3622  000820  6E10               	movwf	(displayStuff@stuff+1)^0,c
  3623  000822  ECD0  F015         	call	_displayStuff	;wreg free
  3624  000826  EF63  F004         	goto	l136
  3625  00082A                     l5177:
  3626  00082A  C04E  F078         	movff	displayMenu@systemCycle,??_displayMenu
  3627  00082E  C04F  F079         	movff	displayMenu@systemCycle+1,??_displayMenu+1
  3628                           
  3629                           ; Switch on 2 bytes has been partitioned into a top level switch of size 1, and 1 sub-sw
      +                          itches
  3630                           ; Switch size 1, requested type "simple"
  3631                           ; Number of cases is 1, Range of values is 0 to 0
  3632                           ; switch strategies available:
  3633                           ; Name         Instructions Cycles
  3634                           ; simple_byte            4     3 (average)
  3635                           ;	Chosen strategy is simple_byte
  3636  000832  0100               	movlb	0	; () banked
  3637  000834  5179               	movf	(??_displayMenu+1)& (0+255),w,b
  3638  000836  0A00               	xorlw	0	; case 0
  3639  000838  B4D8               	btfsc	status,2,c
  3640  00083A  EF21  F004         	goto	l5435
  3641  00083E  EF63  F004         	goto	l136
  3642  000842                     l5435:
  3643                           
  3644                           ; BSR set to: 0
  3645                           ; Switch size 1, requested type "simple"
  3646                           ; Number of cases is 3, Range of values is 0 to 2
  3647                           ; switch strategies available:
  3648                           ; Name         Instructions Cycles
  3649                           ; simple_byte           10     6 (average)
  3650                           ;	Chosen strategy is simple_byte
  3651  000842  5178               	movf	??_displayMenu& (0+255),w,b
  3652  000844  0A00               	xorlw	0	; case 0
  3653  000846  B4D8               	btfsc	status,2,c
  3654  000848  EF76  F003         	goto	l5163
  3655  00084C  0A01               	xorlw	1	; case 1
  3656  00084E  B4D8               	btfsc	status,2,c
  3657  000850  EFAB  F003         	goto	l5167
  3658  000854  0A03               	xorlw	3	; case 2
  3659  000856  B4D8               	btfsc	status,2,c
  3660  000858  EFE0  F003         	goto	l5171
  3661  00085C  EF63  F004         	goto	l136
  3662  000860                     l5179:
  3663                           
  3664                           ; BSR set to: 0
  3665                           ;C:\Users\JeeJ\MPLABXProjects\ProjetoF_micro.X\main.c: 395:             displayStuff(0, 
      +                          0, "Menu Inválido");
  3666  000860  0E00               	movlw	0
  3667  000862  6E0C               	movwf	(displayStuff@row+1)^0,c
  3668  000864  0E00               	movlw	0
  3669  000866  6E0B               	movwf	displayStuff@row^0,c
  3670  000868  0E00               	movlw	0
  3671  00086A  6E0E               	movwf	(displayStuff@column+1)^0,c
  3672  00086C  0E00               	movlw	0
  3673  00086E  6E0D               	movwf	displayStuff@column^0,c
  3674  000870  0E5F               	movlw	low STR_27
  3675  000872  6E0F               	movwf	displayStuff@stuff^0,c
  3676  000874  0E7F               	movlw	high STR_27
  3677  000876  6E10               	movwf	(displayStuff@stuff+1)^0,c
  3678  000878  ECD0  F015         	call	_displayStuff	;wreg free
  3679                           
  3680                           ;C:\Users\JeeJ\MPLABXProjects\ProjetoF_micro.X\main.c: 396:             break;
  3681  00087C  EF63  F004         	goto	l136
  3682  000880                     l5183:
  3683  000880  C076  F078         	movff	displayMenu@menuIndex,??_displayMenu
  3684  000884  C077  F079         	movff	displayMenu@menuIndex+1,??_displayMenu+1
  3685                           
  3686                           ; Switch on 2 bytes has been partitioned into a top level switch of size 1, and 1 sub-sw
      +                          itches
  3687                           ; Switch size 1, requested type "simple"
  3688                           ; Number of cases is 1, Range of values is 0 to 0
  3689                           ; switch strategies available:
  3690                           ; Name         Instructions Cycles
  3691                           ; simple_byte            4     3 (average)
  3692                           ;	Chosen strategy is simple_byte
  3693  000888  0100               	movlb	0	; () banked
  3694  00088A  5179               	movf	(??_displayMenu+1)& (0+255),w,b
  3695  00088C  0A00               	xorlw	0	; case 0
  3696  00088E  B4D8               	btfsc	status,2,c
  3697  000890  EF4C  F004         	goto	l5437
  3698  000894  EF30  F004         	goto	l5179
  3699  000898                     l5437:
  3700                           
  3701                           ; BSR set to: 0
  3702                           ; Switch size 1, requested type "simple"
  3703                           ; Number of cases is 5, Range of values is 0 to 4
  3704                           ; switch strategies available:
  3705                           ; Name         Instructions Cycles
  3706                           ; simple_byte           16     9 (average)
  3707                           ;	Chosen strategy is simple_byte
  3708  000898  5178               	movf	??_displayMenu& (0+255),w,b
  3709  00089A  0A00               	xorlw	0	; case 0
  3710  00089C  B4D8               	btfsc	status,2,c
  3711  00089E  EF66  F000         	goto	l5073
  3712  0008A2  0A01               	xorlw	1	; case 1
  3713  0008A4  B4D8               	btfsc	status,2,c
  3714  0008A6  EFCA  F000         	goto	l5087
  3715  0008AA  0A03               	xorlw	3	; case 2
  3716  0008AC  B4D8               	btfsc	status,2,c
  3717  0008AE  EF20  F001         	goto	l5101
  3718  0008B2  0A01               	xorlw	1	; case 3
  3719  0008B4  B4D8               	btfsc	status,2,c
  3720  0008B6  EF76  F001         	goto	l5115
  3721  0008BA  0A07               	xorlw	7	; case 4
  3722  0008BC  B4D8               	btfsc	status,2,c
  3723  0008BE  EFD3  F002         	goto	l5147
  3724  0008C2  EF30  F004         	goto	l5179
  3725  0008C6                     l136:
  3726  0008C6  0012               	return		;funcret
  3727  0008C8                     __end_of_displayMenu:
  3728                           	callstack 0
  3729                           
  3730 ;; *************** function _tempRead *****************
  3731 ;; Defined at:
  3732 ;;		line 598 in file "C:\Users\JeeJ\MPLABXProjects\ProjetoF_micro.X\main.c"
  3733 ;; Parameters:    Size  Location     Type
  3734 ;;		None
  3735 ;; Auto vars:     Size  Location     Type
  3736 ;;  TempC           4    4[BANK0 ] float 
  3737 ;;  rawAnalog       2   12[BANK0 ] unsigned int 
  3738 ;; Return value:  Size  Location     Type
  3739 ;;                  4    0[BANK0 ] float 
  3740 ;; Registers used:
  3741 ;;		wreg, status,2, status,0, prodl, prodh, cstack
  3742 ;; Tracked objects:
  3743 ;;		On entry : 0/0
  3744 ;;		On exit  : 0/0
  3745 ;;		Unchanged: 0/0
  3746 ;; Data sizes:     COMRAM   BANK0   BANK1   BANK2   BANK3   BANK4   BANK5   BANK6   BANK7
  3747 ;;      Params:         0       4       0       0       0       0       0       0       0
  3748 ;;      Locals:         0      10       0       0       0       0       0       0       0
  3749 ;;      Temps:          0       0       0       0       0       0       0       0       0
  3750 ;;      Totals:         0      14       0       0       0       0       0       0       0
  3751 ;;Total ram usage:       14 bytes
  3752 ;; Hardware stack levels used: 1
  3753 ;; Hardware stack levels required when called: 3
  3754 ;; This function calls:
  3755 ;;		___fldiv
  3756 ;;		___flmul
  3757 ;;		___xxtofl
  3758 ;;		_readAnalog
  3759 ;; This function is called by:
  3760 ;;		_main
  3761 ;;		_displayMenu
  3762 ;; This function uses a non-reentrant model
  3763 ;;
  3764                           
  3765                           	psect	text6
  3766  0028B6                     __ptext6:
  3767                           	callstack 0
  3768  0028B6                     _tempRead:
  3769                           	callstack 27
  3770  0028B6                     
  3771                           ;C:\Users\JeeJ\MPLABXProjects\ProjetoF_micro.X\main.c: 599:     unsigned int rawAnalog =
      +                           readAnalog(0);
  3772  0028B6  0E00               	movlw	0
  3773  0028B8  ECA7  F016         	call	_readAnalog
  3774  0028BC  C00A  F06C         	movff	?_readAnalog,tempRead@rawAnalog
  3775  0028C0  C00B  F06D         	movff	?_readAnalog+1,tempRead@rawAnalog+1
  3776  0028C4                     
  3777                           ;C:\Users\JeeJ\MPLABXProjects\ProjetoF_micro.X\main.c: 600:     float TempC = ((rawAnalo
      +                          g * 5.0) / 1023.0) / 0.01;
  3778  0028C4  0E00               	movlw	0
  3779  0028C6  6E35               	movwf	___fldiv@a^0,c
  3780  0028C8  0EC0               	movlw	192
  3781  0028CA  6E36               	movwf	(___fldiv@a+1)^0,c
  3782  0028CC  0E7F               	movlw	127
  3783  0028CE  6E37               	movwf	(___fldiv@a+2)^0,c
  3784  0028D0  0E44               	movlw	68
  3785  0028D2  6E38               	movwf	(___fldiv@a+3)^0,c
  3786  0028D4  0E00               	movlw	0
  3787  0028D6  6E1C               	movwf	___flmul@a^0,c
  3788  0028D8  0E00               	movlw	0
  3789  0028DA  6E1D               	movwf	(___flmul@a+1)^0,c
  3790  0028DC  0EA0               	movlw	160
  3791  0028DE  6E1E               	movwf	(___flmul@a+2)^0,c
  3792  0028E0  0E40               	movlw	64
  3793  0028E2  6E1F               	movwf	(___flmul@a+3)^0,c
  3794  0028E4  C06C  F00A         	movff	tempRead@rawAnalog,___xxtofl@val
  3795  0028E8  C06D  F00B         	movff	tempRead@rawAnalog+1,___xxtofl@val+1
  3796  0028EC  6A0C               	clrf	(___xxtofl@val+2)^0,c
  3797  0028EE  6A0D               	clrf	(___xxtofl@val+3)^0,c
  3798  0028F0  0E00               	movlw	0
  3799  0028F2  EC71  F010         	call	___xxtofl
  3800  0028F6  C00A  F018         	movff	?___xxtofl,___flmul@b
  3801  0028FA  C00B  F019         	movff	?___xxtofl+1,___flmul@b+1
  3802  0028FE  C00C  F01A         	movff	?___xxtofl+2,___flmul@b+2
  3803  002902  C00D  F01B         	movff	?___xxtofl+3,___flmul@b+3
  3804  002906  EC3B  F00A         	call	___flmul	;wreg free
  3805  00290A  C018  F031         	movff	?___flmul,___fldiv@b
  3806  00290E  C019  F032         	movff	?___flmul+1,___fldiv@b+1
  3807  002912  C01A  F033         	movff	?___flmul+2,___fldiv@b+2
  3808  002916  C01B  F034         	movff	?___flmul+3,___fldiv@b+3
  3809  00291A  EC50  F00C         	call	___fldiv	;wreg free
  3810  00291E  C031  F068         	movff	?___fldiv,_tempRead$1532
  3811  002922  C032  F069         	movff	?___fldiv+1,_tempRead$1532+1
  3812  002926  C033  F06A         	movff	?___fldiv+2,_tempRead$1532+2
  3813  00292A  C034  F06B         	movff	?___fldiv+3,_tempRead$1532+3
  3814  00292E                     
  3815                           ;C:\Users\JeeJ\MPLABXProjects\ProjetoF_micro.X\main.c: 600:     float TempC = ((rawAnalo
      +                          g * 5.0) / 1023.0) / 0.01;
  3816  00292E  C068  F031         	movff	_tempRead$1532,___fldiv@b
  3817  002932  C069  F032         	movff	_tempRead$1532+1,___fldiv@b+1
  3818  002936  C06A  F033         	movff	_tempRead$1532+2,___fldiv@b+2
  3819  00293A  C06B  F034         	movff	_tempRead$1532+3,___fldiv@b+3
  3820  00293E  0E0A               	movlw	10
  3821  002940  6E35               	movwf	___fldiv@a^0,c
  3822  002942  0ED7               	movlw	215
  3823  002944  6E36               	movwf	(___fldiv@a+1)^0,c
  3824  002946  0E23               	movlw	35
  3825  002948  6E37               	movwf	(___fldiv@a+2)^0,c
  3826  00294A  0E3C               	movlw	60
  3827  00294C  6E38               	movwf	(___fldiv@a+3)^0,c
  3828  00294E  EC50  F00C         	call	___fldiv	;wreg free
  3829  002952  C031  F064         	movff	?___fldiv,tempRead@TempC
  3830  002956  C032  F065         	movff	?___fldiv+1,tempRead@TempC+1
  3831  00295A  C033  F066         	movff	?___fldiv+2,tempRead@TempC+2
  3832  00295E  C034  F067         	movff	?___fldiv+3,tempRead@TempC+3
  3833  002962                     
  3834                           ;C:\Users\JeeJ\MPLABXProjects\ProjetoF_micro.X\main.c: 602:     return TempC;
  3835  002962  C064  F060         	movff	tempRead@TempC,?_tempRead
  3836  002966  C065  F061         	movff	tempRead@TempC+1,?_tempRead+1
  3837  00296A  C066  F062         	movff	tempRead@TempC+2,?_tempRead+2
  3838  00296E  C067  F063         	movff	tempRead@TempC+3,?_tempRead+3
  3839  002972  0012               	return		;funcret
  3840  002974                     __end_of_tempRead:
  3841                           	callstack 0
  3842                           
  3843 ;; *************** function _millis *****************
  3844 ;; Defined at:
  3845 ;;		line 449 in file "C:\Users\JeeJ\MPLABXProjects\ProjetoF_micro.X\main.c"
  3846 ;; Parameters:    Size  Location     Type
  3847 ;;		None
  3848 ;; Auto vars:     Size  Location     Type
  3849 ;;  ms              4   13[COMRAM] unsigned long 
  3850 ;; Return value:  Size  Location     Type
  3851 ;;                  4    9[COMRAM] unsigned long 
  3852 ;; Registers used:
  3853 ;;		None
  3854 ;; Tracked objects:
  3855 ;;		On entry : 0/0
  3856 ;;		On exit  : 0/0
  3857 ;;		Unchanged: 0/0
  3858 ;; Data sizes:     COMRAM   BANK0   BANK1   BANK2   BANK3   BANK4   BANK5   BANK6   BANK7
  3859 ;;      Params:         4       0       0       0       0       0       0       0       0
  3860 ;;      Locals:         4       0       0       0       0       0       0       0       0
  3861 ;;      Temps:          0       0       0       0       0       0       0       0       0
  3862 ;;      Totals:         8       0       0       0       0       0       0       0       0
  3863 ;;Total ram usage:        8 bytes
  3864 ;; Hardware stack levels used: 1
  3865 ;; Hardware stack levels required when called: 2
  3866 ;; This function calls:
  3867 ;;		Nothing
  3868 ;; This function is called by:
  3869 ;;		_main
  3870 ;;		_displayMenu
  3871 ;;		_readKey
  3872 ;; This function uses a non-reentrant model
  3873 ;;
  3874                           
  3875                           	psect	text7
  3876  002FC8                     __ptext7:
  3877                           	callstack 0
  3878  002FC8                     _millis:
  3879                           	callstack 26
  3880  002FC8                     
  3881                           ;C:\Users\JeeJ\MPLABXProjects\ProjetoF_micro.X\main.c: 450:     unsigned long ms;;C:\Use
      +                          rs\JeeJ\MPLABXProjects\ProjetoF_micro.X\main.c: 452:     INTCONbits.GIE = 0;
  3882  002FC8  9EF2               	bcf	242,7,c	;volatile
  3883                           
  3884                           ;C:\Users\JeeJ\MPLABXProjects\ProjetoF_micro.X\main.c: 453:     ms = milliseconds;
  3885  002FCA  C04A  F00E         	movff	_milliseconds,millis@ms	;volatile
  3886  002FCE  C04B  F00F         	movff	_milliseconds+1,millis@ms+1	;volatile
  3887  002FD2  C04C  F010         	movff	_milliseconds+2,millis@ms+2	;volatile
  3888  002FD6  C04D  F011         	movff	_milliseconds+3,millis@ms+3	;volatile
  3889                           
  3890                           ;C:\Users\JeeJ\MPLABXProjects\ProjetoF_micro.X\main.c: 454:     INTCONbits.GIE = 1;
  3891  002FDA  8EF2               	bsf	242,7,c	;volatile
  3892                           
  3893                           ;C:\Users\JeeJ\MPLABXProjects\ProjetoF_micro.X\main.c: 456:     return ms;
  3894  002FDC  C00E  F00A         	movff	millis@ms,?_millis
  3895  002FE0  C00F  F00B         	movff	millis@ms+1,?_millis+1
  3896  002FE4  C010  F00C         	movff	millis@ms+2,?_millis+2
  3897  002FE8  C011  F00D         	movff	millis@ms+3,?_millis+3
  3898  002FEC  0012               	return		;funcret
  3899  002FEE                     __end_of_millis:
  3900                           	callstack 0
  3901                           
  3902 ;; *************** function _itoa *****************
  3903 ;; Defined at:
  3904 ;;		line 659 in file "C:\Users\JeeJ\MPLABXProjects\ProjetoF_micro.X\main.c"
  3905 ;; Parameters:    Size  Location     Type
  3906 ;;  value           2   17[COMRAM] int 
  3907 ;;  ptr             2   19[COMRAM] PTR unsigned char 
  3908 ;;		 -> displayMenu@valueStr(10), 
  3909 ;; Auto vars:     Size  Location     Type
  3910 ;;  temp            2   23[COMRAM] int 
  3911 ;;  count           2   21[COMRAM] int 
  3912 ;;  start           2    0        PTR unsigned char 
  3913 ;;		 -> displayMenu@valueStr(10), 
  3914 ;; Return value:  Size  Location     Type
  3915 ;;                  2   17[COMRAM] int 
  3916 ;; Registers used:
  3917 ;;		wreg, fsr2l, fsr2h, status,2, status,0, cstack
  3918 ;; Tracked objects:
  3919 ;;		On entry : 0/0
  3920 ;;		On exit  : 0/0
  3921 ;;		Unchanged: 0/0
  3922 ;; Data sizes:     COMRAM   BANK0   BANK1   BANK2   BANK3   BANK4   BANK5   BANK6   BANK7
  3923 ;;      Params:         4       0       0       0       0       0       0       0       0
  3924 ;;      Locals:         4       0       0       0       0       0       0       0       0
  3925 ;;      Temps:          0       0       0       0       0       0       0       0       0
  3926 ;;      Totals:         8       0       0       0       0       0       0       0       0
  3927 ;;Total ram usage:        8 bytes
  3928 ;; Hardware stack levels used: 1
  3929 ;; Hardware stack levels required when called: 3
  3930 ;; This function calls:
  3931 ;;		___awdiv
  3932 ;;		___awmod
  3933 ;; This function is called by:
  3934 ;;		_displayMenu
  3935 ;; This function uses a non-reentrant model
  3936 ;;
  3937                           
  3938                           	psect	text8
  3939  002296                     __ptext8:
  3940                           	callstack 0
  3941  002296                     _itoa:
  3942                           	callstack 26
  3943  002296                     
  3944                           ;C:\Users\JeeJ\MPLABXProjects\ProjetoF_micro.X\main.c: 660:     int count = 0, temp;
  3945  002296  0E00               	movlw	0
  3946  002298  6E17               	movwf	(itoa@count+1)^0,c
  3947  00229A  0E00               	movlw	0
  3948  00229C  6E16               	movwf	itoa@count^0,c
  3949  00229E                     
  3950                           ;C:\Users\JeeJ\MPLABXProjects\ProjetoF_micro.X\main.c: 663:     if (ptr == ((void*)0))
  3951  00229E  5014               	movf	itoa@ptr^0,w,c
  3952  0022A0  1015               	iorwf	(itoa@ptr+1)^0,w,c
  3953  0022A2  A4D8               	btfss	status,2,c
  3954  0022A4  EF56  F011         	goto	u5061
  3955  0022A8  EF58  F011         	goto	u5060
  3956  0022AC                     u5061:
  3957  0022AC  EF5A  F011         	goto	l5019
  3958  0022B0                     u5060:
  3959  0022B0  EFEA  F011         	goto	l271
  3960  0022B4                     l5019:
  3961                           
  3962                           ;C:\Users\JeeJ\MPLABXProjects\ProjetoF_micro.X\main.c: 666:     if (value == 0) {
  3963  0022B4  5012               	movf	itoa@value^0,w,c
  3964  0022B6  1013               	iorwf	(itoa@value+1)^0,w,c
  3965  0022B8  A4D8               	btfss	status,2,c
  3966  0022BA  EF61  F011         	goto	u5071
  3967  0022BE  EF63  F011         	goto	u5070
  3968  0022C2                     u5071:
  3969  0022C2  EF73  F011         	goto	l5027
  3970  0022C6                     u5070:
  3971  0022C6                     
  3972                           ;C:\Users\JeeJ\MPLABXProjects\ProjetoF_micro.X\main.c: 667:         *ptr = '0';
  3973  0022C6  C014  FFD9         	movff	itoa@ptr,fsr2l
  3974  0022CA  C015  FFDA         	movff	itoa@ptr+1,fsr2h
  3975  0022CE  0E30               	movlw	48
  3976  0022D0  6EDF               	movwf	indf2,c
  3977  0022D2                     
  3978                           ;C:\Users\JeeJ\MPLABXProjects\ProjetoF_micro.X\main.c: 668:         ptr[1] = '\0';
  3979  0022D2  EE20 F001          	lfsr	2,1
  3980  0022D6  5014               	movf	itoa@ptr^0,w,c
  3981  0022D8  26D9               	addwf	fsr2l,f,c
  3982  0022DA  5015               	movf	(itoa@ptr+1)^0,w,c
  3983  0022DC  22DA               	addwfc	fsr2h,f,c
  3984  0022DE  0E00               	movlw	0
  3985  0022E0  6EDF               	movwf	indf2,c
  3986  0022E2  EFEA  F011         	goto	l271
  3987  0022E6                     l5027:
  3988                           
  3989                           ;C:\Users\JeeJ\MPLABXProjects\ProjetoF_micro.X\main.c: 672:     if (value < 0) {
  3990  0022E6  BE13               	btfsc	(itoa@value+1)^0,7,c
  3991  0022E8  EF7A  F011         	goto	u5080
  3992  0022EC  EF78  F011         	goto	u5081
  3993  0022F0                     u5081:
  3994  0022F0  EF88  F011         	goto	l5039
  3995  0022F4                     u5080:
  3996  0022F4                     
  3997                           ;C:\Users\JeeJ\MPLABXProjects\ProjetoF_micro.X\main.c: 673:         value = -value;
  3998  0022F4  6C12               	negf	itoa@value^0,c
  3999  0022F6  1E13               	comf	(itoa@value+1)^0,f,c
  4000  0022F8  B0D8               	btfsc	status,0,c
  4001  0022FA  2A13               	incf	(itoa@value+1)^0,f,c
  4002  0022FC                     
  4003                           ;C:\Users\JeeJ\MPLABXProjects\ProjetoF_micro.X\main.c: 674:         *ptr++ = '-';
  4004  0022FC  C014  FFD9         	movff	itoa@ptr,fsr2l
  4005  002300  C015  FFDA         	movff	itoa@ptr+1,fsr2h
  4006  002304  0E2D               	movlw	45
  4007  002306  6EDF               	movwf	indf2,c
  4008  002308  4A14               	infsnz	itoa@ptr^0,f,c
  4009  00230A  2A15               	incf	(itoa@ptr+1)^0,f,c
  4010  00230C                     
  4011                           ;C:\Users\JeeJ\MPLABXProjects\ProjetoF_micro.X\main.c: 675:         count++;
  4012  00230C  4A16               	infsnz	itoa@count^0,f,c
  4013  00230E  2A17               	incf	(itoa@count+1)^0,f,c
  4014  002310                     l5039:
  4015                           
  4016                           ;C:\Users\JeeJ\MPLABXProjects\ProjetoF_micro.X\main.c: 679:     temp = value;
  4017  002310  C012  F018         	movff	itoa@value,itoa@temp
  4018  002314  C013  F019         	movff	itoa@value+1,itoa@temp+1
  4019                           
  4020                           ;C:\Users\JeeJ\MPLABXProjects\ProjetoF_micro.X\main.c: 680:     while (temp > 0) {
  4021  002318  EF9E  F011         	goto	l5045
  4022  00231C                     l5041:
  4023                           
  4024                           ;C:\Users\JeeJ\MPLABXProjects\ProjetoF_micro.X\main.c: 681:         temp /= 10;
  4025  00231C  C018  F00A         	movff	itoa@temp,___awdiv@dividend
  4026  002320  C019  F00B         	movff	itoa@temp+1,___awdiv@dividend+1
  4027  002324  0E00               	movlw	0
  4028  002326  6E0D               	movwf	(___awdiv@divisor+1)^0,c
  4029  002328  0E0A               	movlw	10
  4030  00232A  6E0C               	movwf	___awdiv@divisor^0,c
  4031  00232C  ECF9  F013         	call	___awdiv	;wreg free
  4032  002330  C00A  F018         	movff	?___awdiv,itoa@temp
  4033  002334  C00B  F019         	movff	?___awdiv+1,itoa@temp+1
  4034  002338                     
  4035                           ;C:\Users\JeeJ\MPLABXProjects\ProjetoF_micro.X\main.c: 682:         count++;
  4036  002338  4A16               	infsnz	itoa@count^0,f,c
  4037  00233A  2A17               	incf	(itoa@count+1)^0,f,c
  4038  00233C                     l5045:
  4039                           
  4040                           ;C:\Users\JeeJ\MPLABXProjects\ProjetoF_micro.X\main.c: 680:     while (temp > 0) {
  4041  00233C  BE19               	btfsc	(itoa@temp+1)^0,7,c
  4042  00233E  EFAB  F011         	goto	u5090
  4043  002342  5019               	movf	(itoa@temp+1)^0,w,c
  4044  002344  E106               	bnz	u5091
  4045  002346  0418               	decf	itoa@temp^0,w,c
  4046  002348  B0D8               	btfsc	status,0,c
  4047  00234A  EFA9  F011         	goto	u5091
  4048  00234E  EFAB  F011         	goto	u5090
  4049  002352                     u5091:
  4050  002352  EF8E  F011         	goto	l5041
  4051  002356                     u5090:
  4052  002356                     
  4053                           ;C:\Users\JeeJ\MPLABXProjects\ProjetoF_micro.X\main.c: 685:     ptr[count] = '\0';
  4054  002356  5016               	movf	itoa@count^0,w,c
  4055  002358  2414               	addwf	itoa@ptr^0,w,c
  4056  00235A  6ED9               	movwf	fsr2l,c
  4057  00235C  5017               	movf	(itoa@count+1)^0,w,c
  4058  00235E  2015               	addwfc	(itoa@ptr+1)^0,w,c
  4059  002360  6EDA               	movwf	fsr2h,c
  4060  002362  0E00               	movlw	0
  4061  002364  6EDF               	movwf	indf2,c
  4062  002366                     
  4063                           ;C:\Users\JeeJ\MPLABXProjects\ProjetoF_micro.X\main.c: 687:     temp = value;
  4064  002366  C012  F018         	movff	itoa@value,itoa@temp
  4065  00236A  C013  F019         	movff	itoa@value+1,itoa@temp+1
  4066                           
  4067                           ;C:\Users\JeeJ\MPLABXProjects\ProjetoF_micro.X\main.c: 688:     while (temp > 0) {
  4068  00236E  EFDD  F011         	goto	l5055
  4069  002372                     l5051:
  4070                           
  4071                           ;C:\Users\JeeJ\MPLABXProjects\ProjetoF_micro.X\main.c: 689:         ptr[--count] = temp 
      +                          % 10 + '0';
  4072  002372  0616               	decf	itoa@count^0,f,c
  4073  002374  A0D8               	btfss	status,0,c
  4074  002376  0617               	decf	(itoa@count+1)^0,f,c
  4075  002378  5016               	movf	itoa@count^0,w,c
  4076  00237A  2414               	addwf	itoa@ptr^0,w,c
  4077  00237C  6ED9               	movwf	fsr2l,c
  4078  00237E  5017               	movf	(itoa@count+1)^0,w,c
  4079  002380  2015               	addwfc	(itoa@ptr+1)^0,w,c
  4080  002382  6EDA               	movwf	fsr2h,c
  4081  002384  C018  F00A         	movff	itoa@temp,___awmod@dividend
  4082  002388  C019  F00B         	movff	itoa@temp+1,___awmod@dividend+1
  4083  00238C  0E00               	movlw	0
  4084  00238E  6E0D               	movwf	(___awmod@divisor+1)^0,c
  4085  002390  0E0A               	movlw	10
  4086  002392  6E0C               	movwf	___awmod@divisor^0,c
  4087  002394  EC78  F015         	call	___awmod	;wreg free
  4088  002398  500A               	movf	?___awmod^0,w,c
  4089  00239A  0F30               	addlw	48
  4090  00239C  6EDF               	movwf	indf2,c
  4091  00239E                     
  4092                           ;C:\Users\JeeJ\MPLABXProjects\ProjetoF_micro.X\main.c: 690:         temp /= 10;
  4093  00239E  C018  F00A         	movff	itoa@temp,___awdiv@dividend
  4094  0023A2  C019  F00B         	movff	itoa@temp+1,___awdiv@dividend+1
  4095  0023A6  0E00               	movlw	0
  4096  0023A8  6E0D               	movwf	(___awdiv@divisor+1)^0,c
  4097  0023AA  0E0A               	movlw	10
  4098  0023AC  6E0C               	movwf	___awdiv@divisor^0,c
  4099  0023AE  ECF9  F013         	call	___awdiv	;wreg free
  4100  0023B2  C00A  F018         	movff	?___awdiv,itoa@temp
  4101  0023B6  C00B  F019         	movff	?___awdiv+1,itoa@temp+1
  4102  0023BA                     l5055:
  4103                           
  4104                           ;C:\Users\JeeJ\MPLABXProjects\ProjetoF_micro.X\main.c: 688:     while (temp > 0) {
  4105  0023BA  BE19               	btfsc	(itoa@temp+1)^0,7,c
  4106  0023BC  EFEA  F011         	goto	u5100
  4107  0023C0  5019               	movf	(itoa@temp+1)^0,w,c
  4108  0023C2  E106               	bnz	u5101
  4109  0023C4  0418               	decf	itoa@temp^0,w,c
  4110  0023C6  B0D8               	btfsc	status,0,c
  4111  0023C8  EFE8  F011         	goto	u5101
  4112  0023CC  EFEA  F011         	goto	u5100
  4113  0023D0                     u5101:
  4114  0023D0  EFB9  F011         	goto	l5051
  4115  0023D4                     u5100:
  4116  0023D4                     l271:
  4117  0023D4  0012               	return		;funcret
  4118  0023D6                     __end_of_itoa:
  4119                           	callstack 0
  4120                           
  4121 ;; *************** function _humidade *****************
  4122 ;; Defined at:
  4123 ;;		line 606 in file "C:\Users\JeeJ\MPLABXProjects\ProjetoF_micro.X\main.c"
  4124 ;; Parameters:    Size  Location     Type
  4125 ;;		None
  4126 ;; Auto vars:     Size  Location     Type
  4127 ;;  Humid           4    4[BANK0 ] float 
  4128 ;;  rawAnalog       2   12[BANK0 ] unsigned int 
  4129 ;; Return value:  Size  Location     Type
  4130 ;;                  4    0[BANK0 ] float 
  4131 ;; Registers used:
  4132 ;;		wreg, status,2, status,0, prodl, prodh, cstack
  4133 ;; Tracked objects:
  4134 ;;		On entry : 0/0
  4135 ;;		On exit  : 0/0
  4136 ;;		Unchanged: 0/0
  4137 ;; Data sizes:     COMRAM   BANK0   BANK1   BANK2   BANK3   BANK4   BANK5   BANK6   BANK7
  4138 ;;      Params:         0       4       0       0       0       0       0       0       0
  4139 ;;      Locals:         0      10       0       0       0       0       0       0       0
  4140 ;;      Temps:          0       0       0       0       0       0       0       0       0
  4141 ;;      Totals:         0      14       0       0       0       0       0       0       0
  4142 ;;Total ram usage:       14 bytes
  4143 ;; Hardware stack levels used: 1
  4144 ;; Hardware stack levels required when called: 3
  4145 ;; This function calls:
  4146 ;;		___fldiv
  4147 ;;		___flmul
  4148 ;;		___xxtofl
  4149 ;;		_readAnalog
  4150 ;; This function is called by:
  4151 ;;		_main
  4152 ;;		_displayMenu
  4153 ;; This function uses a non-reentrant model
  4154 ;;
  4155                           
  4156                           	psect	text9
  4157  002974                     __ptext9:
  4158                           	callstack 0
  4159  002974                     _humidade:
  4160                           	callstack 27
  4161  002974                     
  4162                           ;C:\Users\JeeJ\MPLABXProjects\ProjetoF_micro.X\main.c: 607:     unsigned int rawAnalog =
      +                           readAnalog(3);
  4163  002974  0E03               	movlw	3
  4164  002976  ECA7  F016         	call	_readAnalog
  4165  00297A  C00A  F06C         	movff	?_readAnalog,humidade@rawAnalog
  4166  00297E  C00B  F06D         	movff	?_readAnalog+1,humidade@rawAnalog+1
  4167  002982                     
  4168                           ;C:\Users\JeeJ\MPLABXProjects\ProjetoF_micro.X\main.c: 608:     float Humid = ((rawAnalo
      +                          g * 5.0) / 1023.0) * 20;
  4169  002982  0E00               	movlw	0
  4170  002984  6E35               	movwf	___fldiv@a^0,c
  4171  002986  0EC0               	movlw	192
  4172  002988  6E36               	movwf	(___fldiv@a+1)^0,c
  4173  00298A  0E7F               	movlw	127
  4174  00298C  6E37               	movwf	(___fldiv@a+2)^0,c
  4175  00298E  0E44               	movlw	68
  4176  002990  6E38               	movwf	(___fldiv@a+3)^0,c
  4177  002992  0E00               	movlw	0
  4178  002994  6E1C               	movwf	___flmul@a^0,c
  4179  002996  0E00               	movlw	0
  4180  002998  6E1D               	movwf	(___flmul@a+1)^0,c
  4181  00299A  0EA0               	movlw	160
  4182  00299C  6E1E               	movwf	(___flmul@a+2)^0,c
  4183  00299E  0E40               	movlw	64
  4184  0029A0  6E1F               	movwf	(___flmul@a+3)^0,c
  4185  0029A2  C06C  F00A         	movff	humidade@rawAnalog,___xxtofl@val
  4186  0029A6  C06D  F00B         	movff	humidade@rawAnalog+1,___xxtofl@val+1
  4187  0029AA  6A0C               	clrf	(___xxtofl@val+2)^0,c
  4188  0029AC  6A0D               	clrf	(___xxtofl@val+3)^0,c
  4189  0029AE  0E00               	movlw	0
  4190  0029B0  EC71  F010         	call	___xxtofl
  4191  0029B4  C00A  F018         	movff	?___xxtofl,___flmul@b
  4192  0029B8  C00B  F019         	movff	?___xxtofl+1,___flmul@b+1
  4193  0029BC  C00C  F01A         	movff	?___xxtofl+2,___flmul@b+2
  4194  0029C0  C00D  F01B         	movff	?___xxtofl+3,___flmul@b+3
  4195  0029C4  EC3B  F00A         	call	___flmul	;wreg free
  4196  0029C8  C018  F031         	movff	?___flmul,___fldiv@b
  4197  0029CC  C019  F032         	movff	?___flmul+1,___fldiv@b+1
  4198  0029D0  C01A  F033         	movff	?___flmul+2,___fldiv@b+2
  4199  0029D4  C01B  F034         	movff	?___flmul+3,___fldiv@b+3
  4200  0029D8  EC50  F00C         	call	___fldiv	;wreg free
  4201  0029DC  C031  F068         	movff	?___fldiv,_humidade$1533
  4202  0029E0  C032  F069         	movff	?___fldiv+1,_humidade$1533+1
  4203  0029E4  C033  F06A         	movff	?___fldiv+2,_humidade$1533+2
  4204  0029E8  C034  F06B         	movff	?___fldiv+3,_humidade$1533+3
  4205  0029EC                     
  4206                           ;C:\Users\JeeJ\MPLABXProjects\ProjetoF_micro.X\main.c: 608:     float Humid = ((rawAnalo
      +                          g * 5.0) / 1023.0) * 20;
  4207  0029EC  C068  F018         	movff	_humidade$1533,___flmul@b
  4208  0029F0  C069  F019         	movff	_humidade$1533+1,___flmul@b+1
  4209  0029F4  C06A  F01A         	movff	_humidade$1533+2,___flmul@b+2
  4210  0029F8  C06B  F01B         	movff	_humidade$1533+3,___flmul@b+3
  4211  0029FC  0E00               	movlw	0
  4212  0029FE  6E1C               	movwf	___flmul@a^0,c
  4213  002A00  0E00               	movlw	0
  4214  002A02  6E1D               	movwf	(___flmul@a+1)^0,c
  4215  002A04  0EA0               	movlw	160
  4216  002A06  6E1E               	movwf	(___flmul@a+2)^0,c
  4217  002A08  0E41               	movlw	65
  4218  002A0A  6E1F               	movwf	(___flmul@a+3)^0,c
  4219  002A0C  EC3B  F00A         	call	___flmul	;wreg free
  4220  002A10  C018  F064         	movff	?___flmul,humidade@Humid
  4221  002A14  C019  F065         	movff	?___flmul+1,humidade@Humid+1
  4222  002A18  C01A  F066         	movff	?___flmul+2,humidade@Humid+2
  4223  002A1C  C01B  F067         	movff	?___flmul+3,humidade@Humid+3
  4224  002A20                     
  4225                           ;C:\Users\JeeJ\MPLABXProjects\ProjetoF_micro.X\main.c: 611:     return Humid;
  4226  002A20  C064  F060         	movff	humidade@Humid,?_humidade
  4227  002A24  C065  F061         	movff	humidade@Humid+1,?_humidade+1
  4228  002A28  C066  F062         	movff	humidade@Humid+2,?_humidade+2
  4229  002A2C  C067  F063         	movff	humidade@Humid+3,?_humidade+3
  4230  002A30  0012               	return		;funcret
  4231  002A32                     __end_of_humidade:
  4232                           	callstack 0
  4233                           
  4234 ;; *************** function _gasRead *****************
  4235 ;; Defined at:
  4236 ;;		line 615 in file "C:\Users\JeeJ\MPLABXProjects\ProjetoF_micro.X\main.c"
  4237 ;; Parameters:    Size  Location     Type
  4238 ;;		None
  4239 ;; Auto vars:     Size  Location     Type
  4240 ;;  gas             4    4[BANK0 ] float 
  4241 ;;  rawAnalog       2   12[BANK0 ] unsigned int 
  4242 ;; Return value:  Size  Location     Type
  4243 ;;                  4    0[BANK0 ] float 
  4244 ;; Registers used:
  4245 ;;		wreg, status,2, status,0, prodl, prodh, cstack
  4246 ;; Tracked objects:
  4247 ;;		On entry : 0/0
  4248 ;;		On exit  : 0/0
  4249 ;;		Unchanged: 0/0
  4250 ;; Data sizes:     COMRAM   BANK0   BANK1   BANK2   BANK3   BANK4   BANK5   BANK6   BANK7
  4251 ;;      Params:         0       4       0       0       0       0       0       0       0
  4252 ;;      Locals:         0      10       0       0       0       0       0       0       0
  4253 ;;      Temps:          0       0       0       0       0       0       0       0       0
  4254 ;;      Totals:         0      14       0       0       0       0       0       0       0
  4255 ;;Total ram usage:       14 bytes
  4256 ;; Hardware stack levels used: 1
  4257 ;; Hardware stack levels required when called: 3
  4258 ;; This function calls:
  4259 ;;		___fldiv
  4260 ;;		___flmul
  4261 ;;		___xxtofl
  4262 ;;		_readAnalog
  4263 ;; This function is called by:
  4264 ;;		_main
  4265 ;;		_displayMenu
  4266 ;; This function uses a non-reentrant model
  4267 ;;
  4268                           
  4269                           	psect	text10
  4270  002A32                     __ptext10:
  4271                           	callstack 0
  4272  002A32                     _gasRead:
  4273                           	callstack 27
  4274  002A32                     
  4275                           ;C:\Users\JeeJ\MPLABXProjects\ProjetoF_micro.X\main.c: 616:     unsigned int rawAnalog =
      +                           readAnalog(2);
  4276  002A32  0E02               	movlw	2
  4277  002A34  ECA7  F016         	call	_readAnalog
  4278  002A38  C00A  F06C         	movff	?_readAnalog,gasRead@rawAnalog
  4279  002A3C  C00B  F06D         	movff	?_readAnalog+1,gasRead@rawAnalog+1
  4280  002A40                     
  4281                           ;C:\Users\JeeJ\MPLABXProjects\ProjetoF_micro.X\main.c: 617:     float gas = ((rawAnalog 
      +                          * 5.0) / 1023.0) * 20;
  4282  002A40  0E00               	movlw	0
  4283  002A42  6E35               	movwf	___fldiv@a^0,c
  4284  002A44  0EC0               	movlw	192
  4285  002A46  6E36               	movwf	(___fldiv@a+1)^0,c
  4286  002A48  0E7F               	movlw	127
  4287  002A4A  6E37               	movwf	(___fldiv@a+2)^0,c
  4288  002A4C  0E44               	movlw	68
  4289  002A4E  6E38               	movwf	(___fldiv@a+3)^0,c
  4290  002A50  0E00               	movlw	0
  4291  002A52  6E1C               	movwf	___flmul@a^0,c
  4292  002A54  0E00               	movlw	0
  4293  002A56  6E1D               	movwf	(___flmul@a+1)^0,c
  4294  002A58  0EA0               	movlw	160
  4295  002A5A  6E1E               	movwf	(___flmul@a+2)^0,c
  4296  002A5C  0E40               	movlw	64
  4297  002A5E  6E1F               	movwf	(___flmul@a+3)^0,c
  4298  002A60  C06C  F00A         	movff	gasRead@rawAnalog,___xxtofl@val
  4299  002A64  C06D  F00B         	movff	gasRead@rawAnalog+1,___xxtofl@val+1
  4300  002A68  6A0C               	clrf	(___xxtofl@val+2)^0,c
  4301  002A6A  6A0D               	clrf	(___xxtofl@val+3)^0,c
  4302  002A6C  0E00               	movlw	0
  4303  002A6E  EC71  F010         	call	___xxtofl
  4304  002A72  C00A  F018         	movff	?___xxtofl,___flmul@b
  4305  002A76  C00B  F019         	movff	?___xxtofl+1,___flmul@b+1
  4306  002A7A  C00C  F01A         	movff	?___xxtofl+2,___flmul@b+2
  4307  002A7E  C00D  F01B         	movff	?___xxtofl+3,___flmul@b+3
  4308  002A82  EC3B  F00A         	call	___flmul	;wreg free
  4309  002A86  C018  F031         	movff	?___flmul,___fldiv@b
  4310  002A8A  C019  F032         	movff	?___flmul+1,___fldiv@b+1
  4311  002A8E  C01A  F033         	movff	?___flmul+2,___fldiv@b+2
  4312  002A92  C01B  F034         	movff	?___flmul+3,___fldiv@b+3
  4313  002A96  EC50  F00C         	call	___fldiv	;wreg free
  4314  002A9A  C031  F068         	movff	?___fldiv,_gasRead$1534
  4315  002A9E  C032  F069         	movff	?___fldiv+1,_gasRead$1534+1
  4316  002AA2  C033  F06A         	movff	?___fldiv+2,_gasRead$1534+2
  4317  002AA6  C034  F06B         	movff	?___fldiv+3,_gasRead$1534+3
  4318  002AAA                     
  4319                           ;C:\Users\JeeJ\MPLABXProjects\ProjetoF_micro.X\main.c: 617:     float gas = ((rawAnalog 
      +                          * 5.0) / 1023.0) * 20;
  4320  002AAA  C068  F018         	movff	_gasRead$1534,___flmul@b
  4321  002AAE  C069  F019         	movff	_gasRead$1534+1,___flmul@b+1
  4322  002AB2  C06A  F01A         	movff	_gasRead$1534+2,___flmul@b+2
  4323  002AB6  C06B  F01B         	movff	_gasRead$1534+3,___flmul@b+3
  4324  002ABA  0E00               	movlw	0
  4325  002ABC  6E1C               	movwf	___flmul@a^0,c
  4326  002ABE  0E00               	movlw	0
  4327  002AC0  6E1D               	movwf	(___flmul@a+1)^0,c
  4328  002AC2  0EA0               	movlw	160
  4329  002AC4  6E1E               	movwf	(___flmul@a+2)^0,c
  4330  002AC6  0E41               	movlw	65
  4331  002AC8  6E1F               	movwf	(___flmul@a+3)^0,c
  4332  002ACA  EC3B  F00A         	call	___flmul	;wreg free
  4333  002ACE  C018  F064         	movff	?___flmul,gasRead@gas
  4334  002AD2  C019  F065         	movff	?___flmul+1,gasRead@gas+1
  4335  002AD6  C01A  F066         	movff	?___flmul+2,gasRead@gas+2
  4336  002ADA  C01B  F067         	movff	?___flmul+3,gasRead@gas+3
  4337  002ADE                     
  4338                           ;C:\Users\JeeJ\MPLABXProjects\ProjetoF_micro.X\main.c: 619:     return gas;
  4339  002ADE  C064  F060         	movff	gasRead@gas,?_gasRead
  4340  002AE2  C065  F061         	movff	gasRead@gas+1,?_gasRead+1
  4341  002AE6  C066  F062         	movff	gasRead@gas+2,?_gasRead+2
  4342  002AEA  C067  F063         	movff	gasRead@gas+3,?_gasRead+3
  4343  002AEE  0012               	return		;funcret
  4344  002AF0                     __end_of_gasRead:
  4345                           	callstack 0
  4346                           
  4347 ;; *************** function _readAnalog *****************
  4348 ;; Defined at:
  4349 ;;		line 581 in file "C:\Users\JeeJ\MPLABXProjects\ProjetoF_micro.X\main.c"
  4350 ;; Parameters:    Size  Location     Type
  4351 ;;  pin             1    wreg     unsigned char 
  4352 ;; Auto vars:     Size  Location     Type
  4353 ;;  pin             1   15[COMRAM] unsigned char 
  4354 ;;  result          2   13[COMRAM] unsigned int 
  4355 ;; Return value:  Size  Location     Type
  4356 ;;                  2    9[COMRAM] unsigned int 
  4357 ;; Registers used:
  4358 ;;		wreg, status,2, status,0
  4359 ;; Tracked objects:
  4360 ;;		On entry : 0/0
  4361 ;;		On exit  : 0/0
  4362 ;;		Unchanged: 0/0
  4363 ;; Data sizes:     COMRAM   BANK0   BANK1   BANK2   BANK3   BANK4   BANK5   BANK6   BANK7
  4364 ;;      Params:         2       0       0       0       0       0       0       0       0
  4365 ;;      Locals:         3       0       0       0       0       0       0       0       0
  4366 ;;      Temps:          2       0       0       0       0       0       0       0       0
  4367 ;;      Totals:         7       0       0       0       0       0       0       0       0
  4368 ;;Total ram usage:        7 bytes
  4369 ;; Hardware stack levels used: 1
  4370 ;; Hardware stack levels required when called: 2
  4371 ;; This function calls:
  4372 ;;		Nothing
  4373 ;; This function is called by:
  4374 ;;		_tempRead
  4375 ;;		_humidade
  4376 ;;		_gasRead
  4377 ;; This function uses a non-reentrant model
  4378 ;;
  4379                           
  4380                           	psect	text11
  4381  002D4E                     __ptext11:
  4382                           	callstack 0
  4383  002D4E                     _readAnalog:
  4384                           	callstack 27
  4385                           
  4386                           ;incstack = 0
  4387                           ;readAnalog@pin stored from wreg
  4388  002D4E  6E10               	movwf	readAnalog@pin^0,c
  4389  002D50                     
  4390                           ;C:\Users\JeeJ\MPLABXProjects\ProjetoF_micro.X\main.c: 583:     if (pin > 12) {
  4391  002D50  0E0C               	movlw	12
  4392  002D52  6410               	cpfsgt	readAnalog@pin^0,c
  4393  002D54  EFAE  F016         	goto	u2461
  4394  002D58  EFB0  F016         	goto	u2460
  4395  002D5C                     u2461:
  4396  002D5C  EFB6  F016         	goto	l2969
  4397  002D60                     u2460:
  4398  002D60                     
  4399                           ;C:\Users\JeeJ\MPLABXProjects\ProjetoF_micro.X\main.c: 584:         return 0;
  4400  002D60  0E00               	movlw	0
  4401  002D62  6E0B               	movwf	(?_readAnalog+1)^0,c
  4402  002D64  0E00               	movlw	0
  4403  002D66  6E0A               	movwf	?_readAnalog^0,c
  4404  002D68  EFDD  F016         	goto	l232
  4405  002D6C                     l2969:
  4406                           
  4407                           ;C:\Users\JeeJ\MPLABXProjects\ProjetoF_micro.X\main.c: 587:     ADCON0bits.CHS = pin;
  4408  002D6C  C010  F00C         	movff	readAnalog@pin,??_readAnalog
  4409  002D70  460C               	rlncf	??_readAnalog^0,f,c
  4410  002D72  460C               	rlncf	??_readAnalog^0,f,c
  4411  002D74  50C2               	movf	194,w,c	;volatile
  4412  002D76  180C               	xorwf	??_readAnalog^0,w,c
  4413  002D78  0BC3               	andlw	-61
  4414  002D7A  180C               	xorwf	??_readAnalog^0,w,c
  4415  002D7C  6EC2               	movwf	194,c	;volatile
  4416  002D7E                     
  4417                           ;C:\Users\JeeJ\MPLABXProjects\ProjetoF_micro.X\main.c: 588:     _delay((unsigned long)((
      +                          2)*(20000000/4000.0)));
  4418  002D7E  0E0D               	movlw	13
  4419  002D80  6E0C               	movwf	??_readAnalog^0,c
  4420  002D82  0EFC               	movlw	252
  4421  002D84                     u5637:
  4422  002D84  2EE8               	decfsz	wreg,f,c
  4423  002D86  D7FE               	bra	u5637
  4424  002D88  2E0C               	decfsz	??_readAnalog^0,f,c
  4425  002D8A  D7FC               	bra	u5637
  4426  002D8C                     
  4427                           ;C:\Users\JeeJ\MPLABXProjects\ProjetoF_micro.X\main.c: 589:     ADCON0bits.GO_DONE = 1;
  4428  002D8C  82C2               	bsf	194,1,c	;volatile
  4429  002D8E                     l233:
  4430  002D8E  B2C2               	btfsc	194,1,c	;volatile
  4431  002D90  EFCC  F016         	goto	u2471
  4432  002D94  EFCE  F016         	goto	u2470
  4433  002D98                     u2471:
  4434  002D98  EFC7  F016         	goto	l233
  4435  002D9C                     u2470:
  4436  002D9C                     
  4437                           ;C:\Users\JeeJ\MPLABXProjects\ProjetoF_micro.X\main.c: 593:     result = (ADRESH << 8) |
      +                           ADRESL;
  4438  002D9C  50C3               	movf	195,w,c	;volatile
  4439  002D9E  CFC4 F00C          	movff	4036,??_readAnalog	;volatile
  4440  002DA2  6A0D               	clrf	(??_readAnalog+1)^0,c
  4441  002DA4  C00C  F00D         	movff	??_readAnalog,??_readAnalog+1
  4442  002DA8  6A0C               	clrf	??_readAnalog^0,c
  4443  002DAA  100C               	iorwf	??_readAnalog^0,w,c
  4444  002DAC  6E0E               	movwf	readAnalog@result^0,c
  4445  002DAE  500D               	movf	(??_readAnalog+1)^0,w,c
  4446  002DB0  6E0F               	movwf	(readAnalog@result+1)^0,c
  4447  002DB2                     
  4448                           ;C:\Users\JeeJ\MPLABXProjects\ProjetoF_micro.X\main.c: 594:     return result;
  4449  002DB2  C00E  F00A         	movff	readAnalog@result,?_readAnalog
  4450  002DB6  C00F  F00B         	movff	readAnalog@result+1,?_readAnalog+1
  4451  002DBA                     l232:
  4452  002DBA  0012               	return		;funcret
  4453  002DBC                     __end_of_readAnalog:
  4454                           	callstack 0
  4455                           
  4456 ;; *************** function ___fldiv *****************
  4457 ;; Defined at:
  4458 ;;		line 11 in file "c:\PROGRA~1\MICROC~1\xc8\v2.32\pic\sources\c99\common\sprcdiv.c"
  4459 ;; Parameters:    Size  Location     Type
  4460 ;;  b               4   48[COMRAM] unsigned int 
  4461 ;;  a               4   52[COMRAM] unsigned int 
  4462 ;; Auto vars:     Size  Location     Type
  4463 ;;  grs             4   67[COMRAM] unsigned long 
  4464 ;;  rem             4   60[COMRAM] unsigned long 
  4465 ;;  new_exp         2   65[COMRAM] short 
  4466 ;;  aexp            1   72[COMRAM] unsigned char 
  4467 ;;  bexp            1   71[COMRAM] unsigned char 
  4468 ;;  sign            1   64[COMRAM] unsigned char 
  4469 ;; Return value:  Size  Location     Type
  4470 ;;                  4   48[COMRAM] unsigned char 
  4471 ;; Registers used:
  4472 ;;		wreg, status,2, status,0
  4473 ;; Tracked objects:
  4474 ;;		On entry : 0/0
  4475 ;;		On exit  : 0/0
  4476 ;;		Unchanged: 0/0
  4477 ;; Data sizes:     COMRAM   BANK0   BANK1   BANK2   BANK3   BANK4   BANK5   BANK6   BANK7
  4478 ;;      Params:         8       0       0       0       0       0       0       0       0
  4479 ;;      Locals:        13       0       0       0       0       0       0       0       0
  4480 ;;      Temps:          4       0       0       0       0       0       0       0       0
  4481 ;;      Totals:        25       0       0       0       0       0       0       0       0
  4482 ;;Total ram usage:       25 bytes
  4483 ;; Hardware stack levels used: 1
  4484 ;; Hardware stack levels required when called: 2
  4485 ;; This function calls:
  4486 ;;		Nothing
  4487 ;; This function is called by:
  4488 ;;		_tempRead
  4489 ;;		_humidade
  4490 ;;		_gasRead
  4491 ;; This function uses a non-reentrant model
  4492 ;;
  4493                           
  4494                           	psect	text12
  4495  0018A0                     __ptext12:
  4496                           	callstack 0
  4497  0018A0                     ___fldiv:
  4498                           	callstack 27
  4499  0018A0  5034               	movf	(___fldiv@b+3)^0,w,c
  4500  0018A2  0B80               	andlw	128
  4501  0018A4  6E41               	movwf	___fldiv@sign^0,c
  4502  0018A6  5034               	movf	(___fldiv@b+3)^0,w,c
  4503  0018A8  2434               	addwf	(___fldiv@b+3)^0,w,c
  4504  0018AA  6E48               	movwf	___fldiv@bexp^0,c
  4505  0018AC  AE33               	btfss	(___fldiv@b+2)^0,7,c
  4506  0018AE  EF5B  F00C         	goto	u2491
  4507  0018B2  EF5D  F00C         	goto	u2490
  4508  0018B6                     u2491:
  4509  0018B6  EF5E  F00C         	goto	l3075
  4510  0018BA                     u2490:
  4511  0018BA  8048               	bsf	___fldiv@bexp^0,0,c
  4512  0018BC                     l3075:
  4513  0018BC  5048               	movf	___fldiv@bexp^0,w,c
  4514  0018BE  B4D8               	btfsc	status,2,c
  4515  0018C0  EF64  F00C         	goto	u2501
  4516  0018C4  EF66  F00C         	goto	u2500
  4517  0018C8                     u2501:
  4518  0018C8  EF7B  F00C         	goto	l3085
  4519  0018CC                     u2500:
  4520  0018CC  2848               	incf	___fldiv@bexp^0,w,c
  4521  0018CE  A4D8               	btfss	status,2,c
  4522  0018D0  EF6C  F00C         	goto	u2511
  4523  0018D4  EF6E  F00C         	goto	u2510
  4524  0018D8                     u2511:
  4525  0018D8  EF76  F00C         	goto	l3081
  4526  0018DC                     u2510:
  4527  0018DC  0E00               	movlw	0
  4528  0018DE  6E31               	movwf	___fldiv@b^0,c
  4529  0018E0  0E00               	movlw	0
  4530  0018E2  6E32               	movwf	(___fldiv@b+1)^0,c
  4531  0018E4  0E00               	movlw	0
  4532  0018E6  6E33               	movwf	(___fldiv@b+2)^0,c
  4533  0018E8  0E00               	movlw	0
  4534  0018EA  6E34               	movwf	(___fldiv@b+3)^0,c
  4535  0018EC                     l3081:
  4536  0018EC  8E33               	bsf	(___fldiv@b+2)^0,7,c
  4537  0018EE  0E00               	movlw	0
  4538  0018F0  6E34               	movwf	(___fldiv@b+3)^0,c
  4539  0018F2  EF83  F00C         	goto	l3087
  4540  0018F6                     l3085:
  4541  0018F6  0E00               	movlw	0
  4542  0018F8  6E31               	movwf	___fldiv@b^0,c
  4543  0018FA  0E00               	movlw	0
  4544  0018FC  6E32               	movwf	(___fldiv@b+1)^0,c
  4545  0018FE  0E00               	movlw	0
  4546  001900  6E33               	movwf	(___fldiv@b+2)^0,c
  4547  001902  0E00               	movlw	0
  4548  001904  6E34               	movwf	(___fldiv@b+3)^0,c
  4549  001906                     l3087:
  4550  001906  5038               	movf	(___fldiv@a+3)^0,w,c
  4551  001908  0B80               	andlw	128
  4552  00190A  1A41               	xorwf	___fldiv@sign^0,f,c
  4553  00190C  5038               	movf	(___fldiv@a+3)^0,w,c
  4554  00190E  2438               	addwf	(___fldiv@a+3)^0,w,c
  4555  001910  6E49               	movwf	___fldiv@aexp^0,c
  4556  001912  AE37               	btfss	(___fldiv@a+2)^0,7,c
  4557  001914  EF8E  F00C         	goto	u2521
  4558  001918  EF90  F00C         	goto	u2520
  4559  00191C                     u2521:
  4560  00191C  EF91  F00C         	goto	l3095
  4561  001920                     u2520:
  4562  001920  8049               	bsf	___fldiv@aexp^0,0,c
  4563  001922                     l3095:
  4564  001922  5049               	movf	___fldiv@aexp^0,w,c
  4565  001924  B4D8               	btfsc	status,2,c
  4566  001926  EF97  F00C         	goto	u2531
  4567  00192A  EF99  F00C         	goto	u2530
  4568  00192E                     u2531:
  4569  00192E  EFAE  F00C         	goto	l3105
  4570  001932                     u2530:
  4571  001932  2849               	incf	___fldiv@aexp^0,w,c
  4572  001934  A4D8               	btfss	status,2,c
  4573  001936  EF9F  F00C         	goto	u2541
  4574  00193A  EFA1  F00C         	goto	u2540
  4575  00193E                     u2541:
  4576  00193E  EFA9  F00C         	goto	l3101
  4577  001942                     u2540:
  4578  001942  0E00               	movlw	0
  4579  001944  6E35               	movwf	___fldiv@a^0,c
  4580  001946  0E00               	movlw	0
  4581  001948  6E36               	movwf	(___fldiv@a+1)^0,c
  4582  00194A  0E00               	movlw	0
  4583  00194C  6E37               	movwf	(___fldiv@a+2)^0,c
  4584  00194E  0E00               	movlw	0
  4585  001950  6E38               	movwf	(___fldiv@a+3)^0,c
  4586  001952                     l3101:
  4587  001952  8E37               	bsf	(___fldiv@a+2)^0,7,c
  4588  001954  0E00               	movlw	0
  4589  001956  6E38               	movwf	(___fldiv@a+3)^0,c
  4590  001958  EFB6  F00C         	goto	l3107
  4591  00195C                     l3105:
  4592  00195C  0E00               	movlw	0
  4593  00195E  6E35               	movwf	___fldiv@a^0,c
  4594  001960  0E00               	movlw	0
  4595  001962  6E36               	movwf	(___fldiv@a+1)^0,c
  4596  001964  0E00               	movlw	0
  4597  001966  6E37               	movwf	(___fldiv@a+2)^0,c
  4598  001968  0E00               	movlw	0
  4599  00196A  6E38               	movwf	(___fldiv@a+3)^0,c
  4600  00196C                     l3107:
  4601  00196C  5035               	movf	___fldiv@a^0,w,c
  4602  00196E  1036               	iorwf	(___fldiv@a+1)^0,w,c
  4603  001970  1037               	iorwf	(___fldiv@a+2)^0,w,c
  4604  001972  1038               	iorwf	(___fldiv@a+3)^0,w,c
  4605  001974  A4D8               	btfss	status,2,c
  4606  001976  EFBF  F00C         	goto	u2551
  4607  00197A  EFC1  F00C         	goto	u2550
  4608  00197E                     u2551:
  4609  00197E  EFD9  F00C         	goto	l3119
  4610  001982                     u2550:
  4611  001982  0E00               	movlw	0
  4612  001984  6E31               	movwf	___fldiv@b^0,c
  4613  001986  0E00               	movlw	0
  4614  001988  6E32               	movwf	(___fldiv@b+1)^0,c
  4615  00198A  0E00               	movlw	0
  4616  00198C  6E33               	movwf	(___fldiv@b+2)^0,c
  4617  00198E  0E00               	movlw	0
  4618  001990  6E34               	movwf	(___fldiv@b+3)^0,c
  4619  001992  0E80               	movlw	128
  4620  001994  1233               	iorwf	(___fldiv@b+2)^0,f,c
  4621  001996  0E7F               	movlw	127
  4622  001998  1234               	iorwf	(___fldiv@b+3)^0,f,c
  4623  00199A                     l3113:
  4624  00199A  5041               	movf	___fldiv@sign^0,w,c
  4625  00199C  1234               	iorwf	(___fldiv@b+3)^0,f,c
  4626  00199E  C031  F031         	movff	___fldiv@b,?___fldiv
  4627  0019A2  C032  F032         	movff	___fldiv@b+1,?___fldiv+1
  4628  0019A6  C033  F033         	movff	___fldiv@b+2,?___fldiv+2
  4629  0019AA  C034  F034         	movff	___fldiv@b+3,?___fldiv+3
  4630  0019AE  EF1C  F00E         	goto	l968
  4631  0019B2                     l3119:
  4632  0019B2  5048               	movf	___fldiv@bexp^0,w,c
  4633  0019B4  A4D8               	btfss	status,2,c
  4634  0019B6  EFDF  F00C         	goto	u2561
  4635  0019BA  EFE1  F00C         	goto	u2560
  4636  0019BE                     u2561:
  4637  0019BE  EFEB  F00C         	goto	l3127
  4638  0019C2                     u2560:
  4639  0019C2  0E00               	movlw	0
  4640  0019C4  6E31               	movwf	?___fldiv^0,c
  4641  0019C6  0E00               	movlw	0
  4642  0019C8  6E32               	movwf	(?___fldiv+1)^0,c
  4643  0019CA  0E00               	movlw	0
  4644  0019CC  6E33               	movwf	(?___fldiv+2)^0,c
  4645  0019CE  0E00               	movlw	0
  4646  0019D0  6E34               	movwf	(?___fldiv+3)^0,c
  4647  0019D2  EF1C  F00E         	goto	l968
  4648  0019D6                     l3127:
  4649  0019D6  5049               	movf	___fldiv@aexp^0,w,c
  4650  0019D8  C048  F039         	movff	___fldiv@bexp,??___fldiv
  4651  0019DC  6A3A               	clrf	(??___fldiv+1)^0,c
  4652  0019DE  5E39               	subwf	??___fldiv^0,f,c
  4653  0019E0  0E00               	movlw	0
  4654  0019E2  5A3A               	subwfb	(??___fldiv+1)^0,f,c
  4655  0019E4  0E7F               	movlw	127
  4656  0019E6  2439               	addwf	??___fldiv^0,w,c
  4657  0019E8  6E42               	movwf	___fldiv@new_exp^0,c
  4658  0019EA  0E00               	movlw	0
  4659  0019EC  203A               	addwfc	(??___fldiv+1)^0,w,c
  4660  0019EE  6E43               	movwf	(___fldiv@new_exp+1)^0,c
  4661  0019F0  C031  F03D         	movff	___fldiv@b,___fldiv@rem
  4662  0019F4  C032  F03E         	movff	___fldiv@b+1,___fldiv@rem+1
  4663  0019F8  C033  F03F         	movff	___fldiv@b+2,___fldiv@rem+2
  4664  0019FC  C034  F040         	movff	___fldiv@b+3,___fldiv@rem+3
  4665  001A00  0E00               	movlw	0
  4666  001A02  6E31               	movwf	___fldiv@b^0,c
  4667  001A04  0E00               	movlw	0
  4668  001A06  6E32               	movwf	(___fldiv@b+1)^0,c
  4669  001A08  0E00               	movlw	0
  4670  001A0A  6E33               	movwf	(___fldiv@b+2)^0,c
  4671  001A0C  0E00               	movlw	0
  4672  001A0E  6E34               	movwf	(___fldiv@b+3)^0,c
  4673  001A10  0E00               	movlw	0
  4674  001A12  6E44               	movwf	___fldiv@grs^0,c
  4675  001A14  0E00               	movlw	0
  4676  001A16  6E45               	movwf	(___fldiv@grs+1)^0,c
  4677  001A18  0E00               	movlw	0
  4678  001A1A  6E46               	movwf	(___fldiv@grs+2)^0,c
  4679  001A1C  0E00               	movlw	0
  4680  001A1E  6E47               	movwf	(___fldiv@grs+3)^0,c
  4681  001A20  0E00               	movlw	0
  4682  001A22  6E49               	movwf	___fldiv@aexp^0,c
  4683  001A24  EF4C  F00D         	goto	l970
  4684  001A28                     l3137:
  4685  001A28  5049               	movf	___fldiv@aexp^0,w,c
  4686  001A2A  B4D8               	btfsc	status,2,c
  4687  001A2C  EF1A  F00D         	goto	u2571
  4688  001A30  EF1C  F00D         	goto	u2570
  4689  001A34                     u2571:
  4690  001A34  EF33  F00D         	goto	l3145
  4691  001A38                     u2570:
  4692  001A38  90D8               	bcf	status,0,c
  4693  001A3A  363D               	rlcf	___fldiv@rem^0,f,c
  4694  001A3C  363E               	rlcf	(___fldiv@rem+1)^0,f,c
  4695  001A3E  363F               	rlcf	(___fldiv@rem+2)^0,f,c
  4696  001A40  3640               	rlcf	(___fldiv@rem+3)^0,f,c
  4697  001A42  90D8               	bcf	status,0,c
  4698  001A44  3631               	rlcf	___fldiv@b^0,f,c
  4699  001A46  3632               	rlcf	(___fldiv@b+1)^0,f,c
  4700  001A48  3633               	rlcf	(___fldiv@b+2)^0,f,c
  4701  001A4A  3634               	rlcf	(___fldiv@b+3)^0,f,c
  4702  001A4C  AE47               	btfss	(___fldiv@grs+3)^0,7,c
  4703  001A4E  EF2B  F00D         	goto	u2581
  4704  001A52  EF2D  F00D         	goto	u2580
  4705  001A56                     u2581:
  4706  001A56  EF2E  F00D         	goto	l973
  4707  001A5A                     u2580:
  4708  001A5A  8031               	bsf	___fldiv@b^0,0,c
  4709  001A5C                     l973:
  4710  001A5C  90D8               	bcf	status,0,c
  4711  001A5E  3644               	rlcf	___fldiv@grs^0,f,c
  4712  001A60  3645               	rlcf	(___fldiv@grs+1)^0,f,c
  4713  001A62  3646               	rlcf	(___fldiv@grs+2)^0,f,c
  4714  001A64  3647               	rlcf	(___fldiv@grs+3)^0,f,c
  4715  001A66                     l3145:
  4716  001A66  5035               	movf	___fldiv@a^0,w,c
  4717  001A68  5C3D               	subwf	___fldiv@rem^0,w,c
  4718  001A6A  5036               	movf	(___fldiv@a+1)^0,w,c
  4719  001A6C  583E               	subwfb	(___fldiv@rem+1)^0,w,c
  4720  001A6E  5037               	movf	(___fldiv@a+2)^0,w,c
  4721  001A70  583F               	subwfb	(___fldiv@rem+2)^0,w,c
  4722  001A72  5038               	movf	(___fldiv@a+3)^0,w,c
  4723  001A74  5840               	subwfb	(___fldiv@rem+3)^0,w,c
  4724  001A76  A0D8               	btfss	status,0,c
  4725  001A78  EF40  F00D         	goto	u2591
  4726  001A7C  EF42  F00D         	goto	u2590
  4727  001A80                     u2591:
  4728  001A80  EF4B  F00D         	goto	l3151
  4729  001A84                     u2590:
  4730  001A84  8C47               	bsf	(___fldiv@grs+3)^0,6,c
  4731  001A86  5035               	movf	___fldiv@a^0,w,c
  4732  001A88  5E3D               	subwf	___fldiv@rem^0,f,c
  4733  001A8A  5036               	movf	(___fldiv@a+1)^0,w,c
  4734  001A8C  5A3E               	subwfb	(___fldiv@rem+1)^0,f,c
  4735  001A8E  5037               	movf	(___fldiv@a+2)^0,w,c
  4736  001A90  5A3F               	subwfb	(___fldiv@rem+2)^0,f,c
  4737  001A92  5038               	movf	(___fldiv@a+3)^0,w,c
  4738  001A94  5A40               	subwfb	(___fldiv@rem+3)^0,f,c
  4739  001A96                     l3151:
  4740  001A96  2A49               	incf	___fldiv@aexp^0,f,c
  4741  001A98                     l970:
  4742  001A98  0E19               	movlw	25
  4743  001A9A  6449               	cpfsgt	___fldiv@aexp^0,c
  4744  001A9C  EF52  F00D         	goto	u2601
  4745  001AA0  EF54  F00D         	goto	u2600
  4746  001AA4                     u2601:
  4747  001AA4  EF14  F00D         	goto	l3137
  4748  001AA8                     u2600:
  4749  001AA8  503D               	movf	___fldiv@rem^0,w,c
  4750  001AAA  103E               	iorwf	(___fldiv@rem+1)^0,w,c
  4751  001AAC  103F               	iorwf	(___fldiv@rem+2)^0,w,c
  4752  001AAE  1040               	iorwf	(___fldiv@rem+3)^0,w,c
  4753  001AB0  B4D8               	btfsc	status,2,c
  4754  001AB2  EF5D  F00D         	goto	u2611
  4755  001AB6  EF5F  F00D         	goto	u2610
  4756  001ABA                     u2611:
  4757  001ABA  EF77  F00D         	goto	l3163
  4758  001ABE                     u2610:
  4759  001ABE  8044               	bsf	___fldiv@grs^0,0,c
  4760  001AC0  EF77  F00D         	goto	l3163
  4761  001AC4                     l3157:
  4762  001AC4  90D8               	bcf	status,0,c
  4763  001AC6  3631               	rlcf	___fldiv@b^0,f,c
  4764  001AC8  3632               	rlcf	(___fldiv@b+1)^0,f,c
  4765  001ACA  3633               	rlcf	(___fldiv@b+2)^0,f,c
  4766  001ACC  3634               	rlcf	(___fldiv@b+3)^0,f,c
  4767  001ACE  AE47               	btfss	(___fldiv@grs+3)^0,7,c
  4768  001AD0  EF6C  F00D         	goto	u2621
  4769  001AD4  EF6E  F00D         	goto	u2620
  4770  001AD8                     u2621:
  4771  001AD8  EF6F  F00D         	goto	l979
  4772  001ADC                     u2620:
  4773  001ADC  8031               	bsf	___fldiv@b^0,0,c
  4774  001ADE                     l979:
  4775  001ADE  90D8               	bcf	status,0,c
  4776  001AE0  3644               	rlcf	___fldiv@grs^0,f,c
  4777  001AE2  3645               	rlcf	(___fldiv@grs+1)^0,f,c
  4778  001AE4  3646               	rlcf	(___fldiv@grs+2)^0,f,c
  4779  001AE6  3647               	rlcf	(___fldiv@grs+3)^0,f,c
  4780  001AE8  0642               	decf	___fldiv@new_exp^0,f,c
  4781  001AEA  A0D8               	btfss	status,0,c
  4782  001AEC  0643               	decf	(___fldiv@new_exp+1)^0,f,c
  4783  001AEE                     l3163:
  4784  001AEE  AE33               	btfss	(___fldiv@b+2)^0,7,c
  4785  001AF0  EF7C  F00D         	goto	u2631
  4786  001AF4  EF7E  F00D         	goto	u2630
  4787  001AF8                     u2631:
  4788  001AF8  EF62  F00D         	goto	l3157
  4789  001AFC                     u2630:
  4790  001AFC  0E00               	movlw	0
  4791  001AFE  6E49               	movwf	___fldiv@aexp^0,c
  4792  001B00  AE47               	btfss	(___fldiv@grs+3)^0,7,c
  4793  001B02  EF85  F00D         	goto	u2641
  4794  001B06  EF87  F00D         	goto	u2640
  4795  001B0A                     u2641:
  4796  001B0A  EFAB  F00D         	goto	l981
  4797  001B0E                     u2640:
  4798  001B0E  0EFF               	movlw	255
  4799  001B10  1444               	andwf	___fldiv@grs^0,w,c
  4800  001B12  6E39               	movwf	??___fldiv^0,c
  4801  001B14  0EFF               	movlw	255
  4802  001B16  1445               	andwf	(___fldiv@grs+1)^0,w,c
  4803  001B18  6E3A               	movwf	(??___fldiv+1)^0,c
  4804  001B1A  0EFF               	movlw	255
  4805  001B1C  1446               	andwf	(___fldiv@grs+2)^0,w,c
  4806  001B1E  6E3B               	movwf	(??___fldiv+2)^0,c
  4807  001B20  0E7F               	movlw	127
  4808  001B22  1447               	andwf	(___fldiv@grs+3)^0,w,c
  4809  001B24  6E3C               	movwf	(??___fldiv+3)^0,c
  4810  001B26  5039               	movf	??___fldiv^0,w,c
  4811  001B28  103A               	iorwf	(??___fldiv+1)^0,w,c
  4812  001B2A  103B               	iorwf	(??___fldiv+2)^0,w,c
  4813  001B2C  103C               	iorwf	(??___fldiv+3)^0,w,c
  4814  001B2E  B4D8               	btfsc	status,2,c
  4815  001B30  EF9C  F00D         	goto	u2651
  4816  001B34  EF9E  F00D         	goto	u2650
  4817  001B38                     u2651:
  4818  001B38  EFA2  F00D         	goto	l982
  4819  001B3C                     u2650:
  4820  001B3C                     l3171:
  4821  001B3C  0E01               	movlw	1
  4822  001B3E  6E49               	movwf	___fldiv@aexp^0,c
  4823  001B40  EFAB  F00D         	goto	l981
  4824  001B44                     l982:
  4825  001B44  A031               	btfss	___fldiv@b^0,0,c
  4826  001B46  EFA7  F00D         	goto	u2661
  4827  001B4A  EFA9  F00D         	goto	u2660
  4828  001B4E                     u2661:
  4829  001B4E  EFAB  F00D         	goto	l981
  4830  001B52                     u2660:
  4831  001B52  EF9E  F00D         	goto	l3171
  4832  001B56                     l981:
  4833  001B56  5049               	movf	___fldiv@aexp^0,w,c
  4834  001B58  B4D8               	btfsc	status,2,c
  4835  001B5A  EFB1  F00D         	goto	u2671
  4836  001B5E  EFB3  F00D         	goto	u2670
  4837  001B62                     u2671:
  4838  001B62  EFD7  F00D         	goto	l3183
  4839  001B66                     u2670:
  4840  001B66  0E01               	movlw	1
  4841  001B68  2631               	addwf	___fldiv@b^0,f,c
  4842  001B6A  0E00               	movlw	0
  4843  001B6C  2232               	addwfc	(___fldiv@b+1)^0,f,c
  4844  001B6E  2233               	addwfc	(___fldiv@b+2)^0,f,c
  4845  001B70  2234               	addwfc	(___fldiv@b+3)^0,f,c
  4846  001B72  A034               	btfss	(___fldiv@b+3)^0,0,c
  4847  001B74  EFBE  F00D         	goto	u2681
  4848  001B78  EFC0  F00D         	goto	u2680
  4849  001B7C                     u2681:
  4850  001B7C  EFD7  F00D         	goto	l3183
  4851  001B80                     u2680:
  4852  001B80  C031  F039         	movff	___fldiv@b,??___fldiv
  4853  001B84  C032  F03A         	movff	___fldiv@b+1,??___fldiv+1
  4854  001B88  C033  F03B         	movff	___fldiv@b+2,??___fldiv+2
  4855  001B8C  C034  F03C         	movff	___fldiv@b+3,??___fldiv+3
  4856  001B90  343C               	rlcf	(??___fldiv+3)^0,w,c
  4857  001B92  323C               	rrcf	(??___fldiv+3)^0,f,c
  4858  001B94  323B               	rrcf	(??___fldiv+2)^0,f,c
  4859  001B96  323A               	rrcf	(??___fldiv+1)^0,f,c
  4860  001B98  3239               	rrcf	??___fldiv^0,f,c
  4861  001B9A  C039  F031         	movff	??___fldiv,___fldiv@b
  4862  001B9E  C03A  F032         	movff	??___fldiv+1,___fldiv@b+1
  4863  001BA2  C03B  F033         	movff	??___fldiv+2,___fldiv@b+2
  4864  001BA6  C03C  F034         	movff	??___fldiv+3,___fldiv@b+3
  4865  001BAA  4A42               	infsnz	___fldiv@new_exp^0,f,c
  4866  001BAC  2A43               	incf	(___fldiv@new_exp+1)^0,f,c
  4867  001BAE                     l3183:
  4868  001BAE  BE43               	btfsc	(___fldiv@new_exp+1)^0,7,c
  4869  001BB0  EFE2  F00D         	goto	u2691
  4870  001BB4  5043               	movf	(___fldiv@new_exp+1)^0,w,c
  4871  001BB6  E108               	bnz	u2690
  4872  001BB8  2842               	incf	___fldiv@new_exp^0,w,c
  4873  001BBA  A0D8               	btfss	status,0,c
  4874  001BBC  EFE2  F00D         	goto	u2691
  4875  001BC0  EFE4  F00D         	goto	u2690
  4876  001BC4                     u2691:
  4877  001BC4  EFEF  F00D         	goto	l3187
  4878  001BC8                     u2690:
  4879  001BC8  0E00               	movlw	0
  4880  001BCA  6E43               	movwf	(___fldiv@new_exp+1)^0,c
  4881  001BCC  6842               	setf	___fldiv@new_exp^0,c
  4882  001BCE  0E00               	movlw	0
  4883  001BD0  6E31               	movwf	___fldiv@b^0,c
  4884  001BD2  0E00               	movlw	0
  4885  001BD4  6E32               	movwf	(___fldiv@b+1)^0,c
  4886  001BD6  0E00               	movlw	0
  4887  001BD8  6E33               	movwf	(___fldiv@b+2)^0,c
  4888  001BDA  0E00               	movlw	0
  4889  001BDC  6E34               	movwf	(___fldiv@b+3)^0,c
  4890  001BDE                     l3187:
  4891  001BDE  BE43               	btfsc	(___fldiv@new_exp+1)^0,7,c
  4892  001BE0  EFFC  F00D         	goto	u2700
  4893  001BE4  5043               	movf	(___fldiv@new_exp+1)^0,w,c
  4894  001BE6  E106               	bnz	u2701
  4895  001BE8  0442               	decf	___fldiv@new_exp^0,w,c
  4896  001BEA  B0D8               	btfsc	status,0,c
  4897  001BEC  EFFA  F00D         	goto	u2701
  4898  001BF0  EFFC  F00D         	goto	u2700
  4899  001BF4                     u2701:
  4900  001BF4  EF0A  F00E         	goto	l3191
  4901  001BF8                     u2700:
  4902  001BF8  0E00               	movlw	0
  4903  001BFA  6E43               	movwf	(___fldiv@new_exp+1)^0,c
  4904  001BFC  0E00               	movlw	0
  4905  001BFE  6E42               	movwf	___fldiv@new_exp^0,c
  4906  001C00  0E00               	movlw	0
  4907  001C02  6E31               	movwf	___fldiv@b^0,c
  4908  001C04  0E00               	movlw	0
  4909  001C06  6E32               	movwf	(___fldiv@b+1)^0,c
  4910  001C08  0E00               	movlw	0
  4911  001C0A  6E33               	movwf	(___fldiv@b+2)^0,c
  4912  001C0C  0E00               	movlw	0
  4913  001C0E  6E34               	movwf	(___fldiv@b+3)^0,c
  4914  001C10  0E00               	movlw	0
  4915  001C12  6E41               	movwf	___fldiv@sign^0,c
  4916  001C14                     l3191:
  4917  001C14  C042  F048         	movff	___fldiv@new_exp,___fldiv@bexp
  4918  001C18  A048               	btfss	___fldiv@bexp^0,0,c
  4919  001C1A  EF11  F00E         	goto	u2711
  4920  001C1E  EF13  F00E         	goto	u2710
  4921  001C22                     u2711:
  4922  001C22  EF16  F00E         	goto	l3197
  4923  001C26                     u2710:
  4924  001C26  8E33               	bsf	(___fldiv@b+2)^0,7,c
  4925  001C28  EF17  F00E         	goto	l3199
  4926  001C2C                     l3197:
  4927  001C2C  9E33               	bcf	(___fldiv@b+2)^0,7,c
  4928  001C2E                     l3199:
  4929  001C2E  90D8               	bcf	status,0,c
  4930  001C30  3048               	rrcf	___fldiv@bexp^0,w,c
  4931  001C32  6E34               	movwf	(___fldiv@b+3)^0,c
  4932  001C34  EFCD  F00C         	goto	l3113
  4933  001C38                     l968:
  4934  001C38  0012               	return		;funcret
  4935  001C3A                     __end_of___fldiv:
  4936                           	callstack 0
  4937                           
  4938 ;; *************** function _floatToString *****************
  4939 ;; Defined at:
  4940 ;;		line 697 in file "C:\Users\JeeJ\MPLABXProjects\ProjetoF_micro.X\main.c"
  4941 ;; Parameters:    Size  Location     Type
  4942 ;;  value           4   48[COMRAM] float 
  4943 ;;  buffer          2   52[COMRAM] PTR unsigned char 
  4944 ;;		 -> displayMenu@valueStr(10), 
  4945 ;;  precision       2   54[COMRAM] int 
  4946 ;; Auto vars:     Size  Location     Type
  4947 ;;  digit           2   12[BANK0 ] int 
  4948 ;;  temp            2   16[BANK0 ] int 
  4949 ;;  intStr         12    0[BANK0 ] unsigned char [12]
  4950 ;;  index           2   20[BANK0 ] int 
  4951 ;;  i               2   18[BANK0 ] int 
  4952 ;;  intPart         2   14[BANK0 ] int 
  4953 ;; Return value:  Size  Location     Type
  4954 ;;                  1    wreg      void 
  4955 ;; Registers used:
  4956 ;;		wreg, fsr1l, fsr1h, fsr2l, fsr2h, status,2, status,0, prodl, prodh, cstack
  4957 ;; Tracked objects:
  4958 ;;		On entry : 0/0
  4959 ;;		On exit  : 0/0
  4960 ;;		Unchanged: 0/0
  4961 ;; Data sizes:     COMRAM   BANK0   BANK1   BANK2   BANK3   BANK4   BANK5   BANK6   BANK7
  4962 ;;      Params:         8       0       0       0       0       0       0       0       0
  4963 ;;      Locals:         0      22       0       0       0       0       0       0       0
  4964 ;;      Temps:          2       0       0       0       0       0       0       0       0
  4965 ;;      Totals:        10      22       0       0       0       0       0       0       0
  4966 ;;Total ram usage:       32 bytes
  4967 ;; Hardware stack levels used: 1
  4968 ;; Hardware stack levels required when called: 4
  4969 ;; This function calls:
  4970 ;;		___awdiv
  4971 ;;		___awmod
  4972 ;;		___flmul
  4973 ;;		___flneg
  4974 ;;		___flsub
  4975 ;;		___fltol
  4976 ;;		___xxtofl
  4977 ;; This function is called by:
  4978 ;;		_displayMenu
  4979 ;; This function uses a non-reentrant model
  4980 ;;
  4981                           
  4982                           	psect	text13
  4983  001C3A                     __ptext13:
  4984                           	callstack 0
  4985  001C3A                     _floatToString:
  4986                           	callstack 25
  4987  001C3A                     
  4988                           ;C:\Users\JeeJ\MPLABXProjects\ProjetoF_micro.X\main.c: 698:     int intPart;;C:\Users\Je
      +                          eJ\MPLABXProjects\ProjetoF_micro.X\main.c: 699:     int i, index = 0;
  4989  001C3A  0E00               	movlw	0
  4990  001C3C  0100               	movlb	0	; () banked
  4991  001C3E  6F75               	movwf	(floatToString@index+1)& (0+255),b
  4992  001C40  0E00               	movlw	0
  4993  001C42  6F74               	movwf	floatToString@index& (0+255),b
  4994  001C44                     
  4995                           ; BSR set to: 0
  4996                           ;C:\Users\JeeJ\MPLABXProjects\ProjetoF_micro.X\main.c: 700:     char intStr[12];;C:\User
      +                          s\JeeJ\MPLABXProjects\ProjetoF_micro.X\main.c: 702:     if (value < 0) {
  4997  001C44  BE34               	btfsc	(floatToString@value+3)^0,7,c
  4998  001C46  EF29  F00E         	goto	u5010
  4999  001C4A  EF27  F00E         	goto	u5011
  5000  001C4E                     u5011:
  5001  001C4E  EF43  F00E         	goto	l4959
  5002  001C52                     u5010:
  5003  001C52                     
  5004                           ; BSR set to: 0
  5005                           ;C:\Users\JeeJ\MPLABXProjects\ProjetoF_micro.X\main.c: 703:         *buffer++ = '-';
  5006  001C52  C035  FFD9         	movff	floatToString@buffer,fsr2l
  5007  001C56  C036  FFDA         	movff	floatToString@buffer+1,fsr2h
  5008  001C5A  0E2D               	movlw	45
  5009  001C5C  6EDF               	movwf	indf2,c
  5010  001C5E                     
  5011                           ; BSR set to: 0
  5012  001C5E  4A35               	infsnz	floatToString@buffer^0,f,c
  5013  001C60  2A36               	incf	(floatToString@buffer+1)^0,f,c
  5014  001C62                     
  5015                           ; BSR set to: 0
  5016                           ;C:\Users\JeeJ\MPLABXProjects\ProjetoF_micro.X\main.c: 704:         value = -value;
  5017  001C62  C031  F00A         	movff	floatToString@value,___flneg@f1
  5018  001C66  C032  F00B         	movff	floatToString@value+1,___flneg@f1+1
  5019  001C6A  C033  F00C         	movff	floatToString@value+2,___flneg@f1+2
  5020  001C6E  C034  F00D         	movff	floatToString@value+3,___flneg@f1+3
  5021  001C72  ECC8  F017         	call	___flneg	;wreg free
  5022  001C76  C00A  F031         	movff	?___flneg,floatToString@value
  5023  001C7A  C00B  F032         	movff	?___flneg+1,floatToString@value+1
  5024  001C7E  C00C  F033         	movff	?___flneg+2,floatToString@value+2
  5025  001C82  C00D  F034         	movff	?___flneg+3,floatToString@value+3
  5026  001C86                     l4959:
  5027                           
  5028                           ;C:\Users\JeeJ\MPLABXProjects\ProjetoF_micro.X\main.c: 707:     intPart = (int)value;
  5029  001C86  C031  F00A         	movff	floatToString@value,___fltol@f1
  5030  001C8A  C032  F00B         	movff	floatToString@value+1,___fltol@f1+1
  5031  001C8E  C033  F00C         	movff	floatToString@value+2,___fltol@f1+2
  5032  001C92  C034  F00D         	movff	floatToString@value+3,___fltol@f1+3
  5033  001C96  EC7D  F012         	call	___fltol	;wreg free
  5034  001C9A  C00A  F06E         	movff	?___fltol,floatToString@intPart
  5035  001C9E  C00B  F06F         	movff	?___fltol+1,floatToString@intPart+1
  5036  001CA2                     
  5037                           ;C:\Users\JeeJ\MPLABXProjects\ProjetoF_micro.X\main.c: 708:     value -= intPart;
  5038  001CA2  C031  F01A         	movff	floatToString@value,___flsub@b
  5039  001CA6  C032  F01B         	movff	floatToString@value+1,___flsub@b+1
  5040  001CAA  C033  F01C         	movff	floatToString@value+2,___flsub@b+2
  5041  001CAE  C034  F01D         	movff	floatToString@value+3,___flsub@b+3
  5042  001CB2  C06E  F00A         	movff	floatToString@intPart,___xxtofl@val
  5043  001CB6  C06F  F00B         	movff	floatToString@intPart+1,___xxtofl@val+1
  5044  001CBA  0E00               	movlw	0
  5045  001CBC  BE0B               	btfsc	(___xxtofl@val+1)^0,7,c
  5046  001CBE  0EFF               	movlw	-1
  5047  001CC0  6E0C               	movwf	(___xxtofl@val+2)^0,c
  5048  001CC2  6E0D               	movwf	(___xxtofl@val+3)^0,c
  5049  001CC4  0E01               	movlw	1
  5050  001CC6  EC71  F010         	call	___xxtofl
  5051  001CCA  C00A  F01E         	movff	?___xxtofl,___flsub@a
  5052  001CCE  C00B  F01F         	movff	?___xxtofl+1,___flsub@a+1
  5053  001CD2  C00C  F020         	movff	?___xxtofl+2,___flsub@a+2
  5054  001CD6  C00D  F021         	movff	?___xxtofl+3,___flsub@a+3
  5055  001CDA  EC01  F017         	call	___flsub	;wreg free
  5056  001CDE  C01A  F031         	movff	?___flsub,floatToString@value
  5057  001CE2  C01B  F032         	movff	?___flsub+1,floatToString@value+1
  5058  001CE6  C01C  F033         	movff	?___flsub+2,floatToString@value+2
  5059  001CEA  C01D  F034         	movff	?___flsub+3,floatToString@value+3
  5060  001CEE                     
  5061                           ;C:\Users\JeeJ\MPLABXProjects\ProjetoF_micro.X\main.c: 710:     if(intPart == 0) {
  5062  001CEE  0100               	movlb	0	; () banked
  5063  001CF0  516E               	movf	floatToString@intPart& (0+255),w,b
  5064  001CF2  116F               	iorwf	(floatToString@intPart+1)& (0+255),w,b
  5065  001CF4  A4D8               	btfss	status,2,c
  5066  001CF6  EF7F  F00E         	goto	u5021
  5067  001CFA  EF81  F00E         	goto	u5020
  5068  001CFE                     u5021:
  5069  001CFE  EF87  F00E         	goto	l283
  5070  001D02                     u5020:
  5071  001D02                     
  5072                           ; BSR set to: 0
  5073                           ;C:\Users\JeeJ\MPLABXProjects\ProjetoF_micro.X\main.c: 711:         intStr[index++] = '0
      +                          ';
  5074  001D02  0E30               	movlw	48
  5075  001D04  6F60               	movwf	floatToString@intStr& (0+255),b
  5076  001D06                     
  5077                           ; BSR set to: 0
  5078  001D06  4B74               	infsnz	floatToString@index& (0+255),f,b
  5079  001D08  2B75               	incf	(floatToString@index+1)& (0+255),f,b
  5080                           
  5081                           ;C:\Users\JeeJ\MPLABXProjects\ProjetoF_micro.X\main.c: 712:     } else {
  5082  001D0A  EFC1  F00E         	goto	l4979
  5083  001D0E                     l283:
  5084                           
  5085                           ; BSR set to: 0
  5086                           ;C:\Users\JeeJ\MPLABXProjects\ProjetoF_micro.X\main.c: 713:         int temp = intPart;
  5087  001D0E  C06E  F070         	movff	floatToString@intPart,floatToString@temp
  5088  001D12  C06F  F071         	movff	floatToString@intPart+1,floatToString@temp+1
  5089  001D16                     
  5090                           ; BSR set to: 0
  5091                           ;C:\Users\JeeJ\MPLABXProjects\ProjetoF_micro.X\main.c: 714:         index = 0;
  5092  001D16  0E00               	movlw	0
  5093  001D18  6F75               	movwf	(floatToString@index+1)& (0+255),b
  5094  001D1A  0E00               	movlw	0
  5095  001D1C  6F74               	movwf	floatToString@index& (0+255),b
  5096  001D1E                     l4971:
  5097                           
  5098                           ; BSR set to: 0
  5099                           ;C:\Users\JeeJ\MPLABXProjects\ProjetoF_micro.X\main.c: 716:             intStr[index++] 
      +                          = (temp % 10) + '0';
  5100  001D1E  0E60               	movlw	low floatToString@intStr
  5101  001D20  2574               	addwf	floatToString@index& (0+255),w,b
  5102  001D22  6ED9               	movwf	fsr2l,c
  5103  001D24  0E00               	movlw	high floatToString@intStr
  5104  001D26  2175               	addwfc	(floatToString@index+1)& (0+255),w,b
  5105  001D28  6EDA               	movwf	fsr2h,c
  5106  001D2A  C070  F00A         	movff	floatToString@temp,___awmod@dividend
  5107  001D2E  C071  F00B         	movff	floatToString@temp+1,___awmod@dividend+1
  5108  001D32  0E00               	movlw	0
  5109  001D34  6E0D               	movwf	(___awmod@divisor+1)^0,c
  5110  001D36  0E0A               	movlw	10
  5111  001D38  6E0C               	movwf	___awmod@divisor^0,c
  5112  001D3A  EC78  F015         	call	___awmod	;wreg free
  5113  001D3E  500A               	movf	?___awmod^0,w,c
  5114  001D40  0F30               	addlw	48
  5115  001D42  6EDF               	movwf	indf2,c
  5116  001D44  0100               	movlb	0	; () banked
  5117  001D46  4B74               	infsnz	floatToString@index& (0+255),f,b
  5118  001D48  2B75               	incf	(floatToString@index+1)& (0+255),f,b
  5119  001D4A                     
  5120                           ; BSR set to: 0
  5121                           ;C:\Users\JeeJ\MPLABXProjects\ProjetoF_micro.X\main.c: 717:             temp /= 10;
  5122  001D4A  C070  F00A         	movff	floatToString@temp,___awdiv@dividend
  5123  001D4E  C071  F00B         	movff	floatToString@temp+1,___awdiv@dividend+1
  5124  001D52  0E00               	movlw	0
  5125  001D54  6E0D               	movwf	(___awdiv@divisor+1)^0,c
  5126  001D56  0E0A               	movlw	10
  5127  001D58  6E0C               	movwf	___awdiv@divisor^0,c
  5128  001D5A  ECF9  F013         	call	___awdiv	;wreg free
  5129  001D5E  C00A  F070         	movff	?___awdiv,floatToString@temp
  5130  001D62  C00B  F071         	movff	?___awdiv+1,floatToString@temp+1
  5131  001D66                     
  5132                           ;C:\Users\JeeJ\MPLABXProjects\ProjetoF_micro.X\main.c: 718:         } while (temp > 0);
  5133  001D66  0100               	movlb	0	; () banked
  5134  001D68  BF71               	btfsc	(floatToString@temp+1)& (0+255),7,b
  5135  001D6A  EFC1  F00E         	goto	u5030
  5136  001D6E  5171               	movf	(floatToString@temp+1)& (0+255),w,b
  5137  001D70  E106               	bnz	u5031
  5138  001D72  0570               	decf	floatToString@temp& (0+255),w,b
  5139  001D74  B0D8               	btfsc	status,0,c
  5140  001D76  EFBF  F00E         	goto	u5031
  5141  001D7A  EFC1  F00E         	goto	u5030
  5142  001D7E                     u5031:
  5143  001D7E  EF8F  F00E         	goto	l4971
  5144  001D82                     u5030:
  5145  001D82                     l4979:
  5146                           
  5147                           ; BSR set to: 0
  5148                           ;C:\Users\JeeJ\MPLABXProjects\ProjetoF_micro.X\main.c: 721:     for (i = 0; i < index; i
      +                          ++) {
  5149  001D82  0E00               	movlw	0
  5150  001D84  6F73               	movwf	(floatToString@i+1)& (0+255),b
  5151  001D86  0E00               	movlw	0
  5152  001D88  6F72               	movwf	floatToString@i& (0+255),b
  5153  001D8A  EFE3  F00E         	goto	l4985
  5154  001D8E                     l4981:
  5155                           
  5156                           ; BSR set to: 0
  5157                           ;C:\Users\JeeJ\MPLABXProjects\ProjetoF_micro.X\main.c: 722:         buffer[i] = intStr[i
      +                          ndex - i - 1];
  5158  001D8E  0E60               	movlw	low floatToString@intStr
  5159  001D90  6E39               	movwf	??_floatToString^0,c
  5160  001D92  0E00               	movlw	high floatToString@intStr
  5161  001D94  6E3A               	movwf	(??_floatToString+1)^0,c
  5162  001D96  5172               	movf	floatToString@i& (0+255),w,b
  5163  001D98  5E39               	subwf	??_floatToString^0,f,c
  5164  001D9A  5173               	movf	(floatToString@i+1)& (0+255),w,b
  5165  001D9C  5A3A               	subwfb	(??_floatToString+1)^0,f,c
  5166  001D9E  5174               	movf	floatToString@index& (0+255),w,b
  5167  001DA0  2639               	addwf	??_floatToString^0,f,c
  5168  001DA2  5175               	movf	(floatToString@index+1)& (0+255),w,b
  5169  001DA4  223A               	addwfc	(??_floatToString+1)^0,f,c
  5170  001DA6  0EFF               	movlw	255
  5171  001DA8  2439               	addwf	??_floatToString^0,w,c
  5172  001DAA  6ED9               	movwf	fsr2l,c
  5173  001DAC  0EFF               	movlw	255
  5174  001DAE  203A               	addwfc	(??_floatToString+1)^0,w,c
  5175  001DB0  6EDA               	movwf	fsr2h,c
  5176  001DB2  5172               	movf	floatToString@i& (0+255),w,b
  5177  001DB4  2435               	addwf	floatToString@buffer^0,w,c
  5178  001DB6  6EE1               	movwf	fsr1l,c
  5179  001DB8  5173               	movf	(floatToString@i+1)& (0+255),w,b
  5180  001DBA  2036               	addwfc	(floatToString@buffer+1)^0,w,c
  5181  001DBC  6EE2               	movwf	fsr1h,c
  5182  001DBE  CFDF FFE7          	movff	indf2,indf1
  5183  001DC2                     
  5184                           ; BSR set to: 0
  5185                           ;C:\Users\JeeJ\MPLABXProjects\ProjetoF_micro.X\main.c: 723:     }
  5186  001DC2  4B72               	infsnz	floatToString@i& (0+255),f,b
  5187  001DC4  2B73               	incf	(floatToString@i+1)& (0+255),f,b
  5188  001DC6                     l4985:
  5189                           
  5190                           ; BSR set to: 0
  5191  001DC6  5174               	movf	floatToString@index& (0+255),w,b
  5192  001DC8  5D72               	subwf	floatToString@i& (0+255),w,b
  5193  001DCA  5173               	movf	(floatToString@i+1)& (0+255),w,b
  5194  001DCC  0A80               	xorlw	128
  5195  001DCE  6E39               	movwf	??_floatToString^0,c
  5196  001DD0  5175               	movf	(floatToString@index+1)& (0+255),w,b
  5197  001DD2  0A80               	xorlw	128
  5198  001DD4  5839               	subwfb	??_floatToString^0,w,c
  5199  001DD6  A0D8               	btfss	status,0,c
  5200  001DD8  EFF0  F00E         	goto	u5041
  5201  001DDC  EFF2  F00E         	goto	u5040
  5202  001DE0                     u5041:
  5203  001DE0  EFC7  F00E         	goto	l4981
  5204  001DE4                     u5040:
  5205  001DE4                     
  5206                           ; BSR set to: 0
  5207                           ;C:\Users\JeeJ\MPLABXProjects\ProjetoF_micro.X\main.c: 724:     buffer += index;
  5208  001DE4  5174               	movf	floatToString@index& (0+255),w,b
  5209  001DE6  2635               	addwf	floatToString@buffer^0,f,c
  5210  001DE8  5175               	movf	(floatToString@index+1)& (0+255),w,b
  5211  001DEA  2236               	addwfc	(floatToString@buffer+1)^0,f,c
  5212  001DEC                     
  5213                           ; BSR set to: 0
  5214                           ;C:\Users\JeeJ\MPLABXProjects\ProjetoF_micro.X\main.c: 726:     *buffer++ = '.';
  5215  001DEC  C035  FFD9         	movff	floatToString@buffer,fsr2l
  5216  001DF0  C036  FFDA         	movff	floatToString@buffer+1,fsr2h
  5217  001DF4  0E2E               	movlw	46
  5218  001DF6  6EDF               	movwf	indf2,c
  5219  001DF8                     
  5220                           ; BSR set to: 0
  5221  001DF8  4A35               	infsnz	floatToString@buffer^0,f,c
  5222  001DFA  2A36               	incf	(floatToString@buffer+1)^0,f,c
  5223  001DFC                     
  5224                           ; BSR set to: 0
  5225                           ;C:\Users\JeeJ\MPLABXProjects\ProjetoF_micro.X\main.c: 728:     for (i = 0; i < precisio
      +                          n; i++) {
  5226  001DFC  0E00               	movlw	0
  5227  001DFE  6F73               	movwf	(floatToString@i+1)& (0+255),b
  5228  001E00  0E00               	movlw	0
  5229  001E02  6F72               	movwf	floatToString@i& (0+255),b
  5230  001E04  EF5F  F00F         	goto	l5007
  5231  001E08                     l4995:
  5232                           
  5233                           ; BSR set to: 0
  5234                           ;C:\Users\JeeJ\MPLABXProjects\ProjetoF_micro.X\main.c: 729:         value *= 10;
  5235  001E08  C031  F018         	movff	floatToString@value,___flmul@b
  5236  001E0C  C032  F019         	movff	floatToString@value+1,___flmul@b+1
  5237  001E10  C033  F01A         	movff	floatToString@value+2,___flmul@b+2
  5238  001E14  C034  F01B         	movff	floatToString@value+3,___flmul@b+3
  5239  001E18  0E00               	movlw	0
  5240  001E1A  6E1C               	movwf	___flmul@a^0,c
  5241  001E1C  0E00               	movlw	0
  5242  001E1E  6E1D               	movwf	(___flmul@a+1)^0,c
  5243  001E20  0E20               	movlw	32
  5244  001E22  6E1E               	movwf	(___flmul@a+2)^0,c
  5245  001E24  0E41               	movlw	65
  5246  001E26  6E1F               	movwf	(___flmul@a+3)^0,c
  5247  001E28  EC3B  F00A         	call	___flmul	;wreg free
  5248  001E2C  C018  F031         	movff	?___flmul,floatToString@value
  5249  001E30  C019  F032         	movff	?___flmul+1,floatToString@value+1
  5250  001E34  C01A  F033         	movff	?___flmul+2,floatToString@value+2
  5251  001E38  C01B  F034         	movff	?___flmul+3,floatToString@value+3
  5252  001E3C                     
  5253                           ;C:\Users\JeeJ\MPLABXProjects\ProjetoF_micro.X\main.c: 730:         int digit = (int)val
      +                          ue;
  5254  001E3C  C031  F00A         	movff	floatToString@value,___fltol@f1
  5255  001E40  C032  F00B         	movff	floatToString@value+1,___fltol@f1+1
  5256  001E44  C033  F00C         	movff	floatToString@value+2,___fltol@f1+2
  5257  001E48  C034  F00D         	movff	floatToString@value+3,___fltol@f1+3
  5258  001E4C  EC7D  F012         	call	___fltol	;wreg free
  5259  001E50  C00A  F06C         	movff	?___fltol,floatToString@digit
  5260  001E54  C00B  F06D         	movff	?___fltol+1,floatToString@digit+1
  5261  001E58                     
  5262                           ;C:\Users\JeeJ\MPLABXProjects\ProjetoF_micro.X\main.c: 731:         *buffer++ = digit + 
      +                          '0';
  5263  001E58  0100               	movlb	0	; () banked
  5264  001E5A  516C               	movf	floatToString@digit& (0+255),w,b
  5265  001E5C  0F30               	addlw	48
  5266  001E5E  C035  FFD9         	movff	floatToString@buffer,fsr2l
  5267  001E62  C036  FFDA         	movff	floatToString@buffer+1,fsr2h
  5268  001E66  6EDF               	movwf	indf2,c
  5269  001E68                     
  5270                           ; BSR set to: 0
  5271  001E68  4A35               	infsnz	floatToString@buffer^0,f,c
  5272  001E6A  2A36               	incf	(floatToString@buffer+1)^0,f,c
  5273  001E6C                     
  5274                           ; BSR set to: 0
  5275                           ;C:\Users\JeeJ\MPLABXProjects\ProjetoF_micro.X\main.c: 732:         value -= digit;
  5276  001E6C  C031  F01A         	movff	floatToString@value,___flsub@b
  5277  001E70  C032  F01B         	movff	floatToString@value+1,___flsub@b+1
  5278  001E74  C033  F01C         	movff	floatToString@value+2,___flsub@b+2
  5279  001E78  C034  F01D         	movff	floatToString@value+3,___flsub@b+3
  5280  001E7C  C06C  F00A         	movff	floatToString@digit,___xxtofl@val
  5281  001E80  C06D  F00B         	movff	floatToString@digit+1,___xxtofl@val+1
  5282  001E84  0E00               	movlw	0
  5283  001E86  BE0B               	btfsc	(___xxtofl@val+1)^0,7,c
  5284  001E88  0EFF               	movlw	-1
  5285  001E8A  6E0C               	movwf	(___xxtofl@val+2)^0,c
  5286  001E8C  6E0D               	movwf	(___xxtofl@val+3)^0,c
  5287  001E8E  0E01               	movlw	1
  5288  001E90  EC71  F010         	call	___xxtofl
  5289  001E94  C00A  F01E         	movff	?___xxtofl,___flsub@a
  5290  001E98  C00B  F01F         	movff	?___xxtofl+1,___flsub@a+1
  5291  001E9C  C00C  F020         	movff	?___xxtofl+2,___flsub@a+2
  5292  001EA0  C00D  F021         	movff	?___xxtofl+3,___flsub@a+3
  5293  001EA4  EC01  F017         	call	___flsub	;wreg free
  5294  001EA8  C01A  F031         	movff	?___flsub,floatToString@value
  5295  001EAC  C01B  F032         	movff	?___flsub+1,floatToString@value+1
  5296  001EB0  C01C  F033         	movff	?___flsub+2,floatToString@value+2
  5297  001EB4  C01D  F034         	movff	?___flsub+3,floatToString@value+3
  5298  001EB8                     
  5299                           ;C:\Users\JeeJ\MPLABXProjects\ProjetoF_micro.X\main.c: 733:     }
  5300  001EB8  0100               	movlb	0	; () banked
  5301  001EBA  4B72               	infsnz	floatToString@i& (0+255),f,b
  5302  001EBC  2B73               	incf	(floatToString@i+1)& (0+255),f,b
  5303  001EBE                     l5007:
  5304                           
  5305                           ; BSR set to: 0
  5306  001EBE  5037               	movf	floatToString@precision^0,w,c
  5307  001EC0  5D72               	subwf	floatToString@i& (0+255),w,b
  5308  001EC2  5173               	movf	(floatToString@i+1)& (0+255),w,b
  5309  001EC4  0A80               	xorlw	128
  5310  001EC6  6E39               	movwf	??_floatToString^0,c
  5311  001EC8  5038               	movf	(floatToString@precision+1)^0,w,c
  5312  001ECA  0A80               	xorlw	128
  5313  001ECC  5839               	subwfb	??_floatToString^0,w,c
  5314  001ECE  A0D8               	btfss	status,0,c
  5315  001ED0  EF6C  F00F         	goto	u5051
  5316  001ED4  EF6E  F00F         	goto	u5050
  5317  001ED8                     u5051:
  5318  001ED8  EF04  F00F         	goto	l4995
  5319  001EDC                     u5050:
  5320  001EDC                     
  5321                           ; BSR set to: 0
  5322                           ;C:\Users\JeeJ\MPLABXProjects\ProjetoF_micro.X\main.c: 735:     *buffer = '\0';
  5323  001EDC  C035  FFD9         	movff	floatToString@buffer,fsr2l
  5324  001EE0  C036  FFDA         	movff	floatToString@buffer+1,fsr2h
  5325  001EE4  0E00               	movlw	0
  5326  001EE6  6EDF               	movwf	indf2,c
  5327  001EE8                     
  5328                           ; BSR set to: 0
  5329  001EE8  0012               	return		;funcret
  5330  001EEA                     __end_of_floatToString:
  5331                           	callstack 0
  5332                           
  5333 ;; *************** function ___xxtofl *****************
  5334 ;; Defined at:
  5335 ;;		line 10 in file "c:\PROGRA~1\MICROC~1\xc8\v2.32\pic\sources\c99\common\xxtofl.c"
  5336 ;; Parameters:    Size  Location     Type
  5337 ;;  sign            1    wreg     unsigned char 
  5338 ;;  val             4    9[COMRAM] long 
  5339 ;; Auto vars:     Size  Location     Type
  5340 ;;  sign            1   17[COMRAM] unsigned char 
  5341 ;;  arg             4   19[COMRAM] unsigned long 
  5342 ;;  exp             1   18[COMRAM] unsigned char 
  5343 ;; Return value:  Size  Location     Type
  5344 ;;                  4    9[COMRAM] unsigned char 
  5345 ;; Registers used:
  5346 ;;		wreg, status,2, status,0
  5347 ;; Tracked objects:
  5348 ;;		On entry : 0/0
  5349 ;;		On exit  : 0/0
  5350 ;;		Unchanged: 0/0
  5351 ;; Data sizes:     COMRAM   BANK0   BANK1   BANK2   BANK3   BANK4   BANK5   BANK6   BANK7
  5352 ;;      Params:         4       0       0       0       0       0       0       0       0
  5353 ;;      Locals:         6       0       0       0       0       0       0       0       0
  5354 ;;      Temps:          4       0       0       0       0       0       0       0       0
  5355 ;;      Totals:        14       0       0       0       0       0       0       0       0
  5356 ;;Total ram usage:       14 bytes
  5357 ;; Hardware stack levels used: 1
  5358 ;; Hardware stack levels required when called: 2
  5359 ;; This function calls:
  5360 ;;		Nothing
  5361 ;; This function is called by:
  5362 ;;		_main
  5363 ;;		_displayMenu
  5364 ;;		_tempRead
  5365 ;;		_humidade
  5366 ;;		_gasRead
  5367 ;;		_floatToString
  5368 ;; This function uses a non-reentrant model
  5369 ;;
  5370                           
  5371                           	psect	text14
  5372  0020E2                     __ptext14:
  5373                           	callstack 0
  5374  0020E2                     ___xxtofl:
  5375                           	callstack 27
  5376                           
  5377                           ; BSR set to: 0
  5378                           ;incstack = 0
  5379                           ;___xxtofl@sign stored from wreg
  5380  0020E2  6E12               	movwf	___xxtofl@sign^0,c
  5381  0020E4  5012               	movf	___xxtofl@sign^0,w,c
  5382  0020E6  B4D8               	btfsc	status,2,c
  5383  0020E8  EF78  F010         	goto	u4911
  5384  0020EC  EF7A  F010         	goto	u4910
  5385  0020F0                     u4911:
  5386  0020F0  EF9C  F010         	goto	l1041
  5387  0020F4                     u4910:
  5388  0020F4  BE0D               	btfsc	(___xxtofl@val+3)^0,7,c
  5389  0020F6  EF81  F010         	goto	u4920
  5390  0020FA  EF7F  F010         	goto	u4921
  5391  0020FE                     u4921:
  5392  0020FE  EF9C  F010         	goto	l1041
  5393  002102                     u4920:
  5394  002102  C00A  F00E         	movff	___xxtofl@val,??___xxtofl
  5395  002106  C00B  F00F         	movff	___xxtofl@val+1,??___xxtofl+1
  5396  00210A  C00C  F010         	movff	___xxtofl@val+2,??___xxtofl+2
  5397  00210E  C00D  F011         	movff	___xxtofl@val+3,??___xxtofl+3
  5398  002112  1E0E               	comf	??___xxtofl^0,f,c
  5399  002114  1E0F               	comf	(??___xxtofl+1)^0,f,c
  5400  002116  1E10               	comf	(??___xxtofl+2)^0,f,c
  5401  002118  1E11               	comf	(??___xxtofl+3)^0,f,c
  5402  00211A  2A0E               	incf	??___xxtofl^0,f,c
  5403  00211C  0E00               	movlw	0
  5404  00211E  220F               	addwfc	(??___xxtofl+1)^0,f,c
  5405  002120  2210               	addwfc	(??___xxtofl+2)^0,f,c
  5406  002122  2211               	addwfc	(??___xxtofl+3)^0,f,c
  5407  002124  C00E  F014         	movff	??___xxtofl,___xxtofl@arg
  5408  002128  C00F  F015         	movff	??___xxtofl+1,___xxtofl@arg+1
  5409  00212C  C010  F016         	movff	??___xxtofl+2,___xxtofl@arg+2
  5410  002130  C011  F017         	movff	??___xxtofl+3,___xxtofl@arg+3
  5411  002134  EFA4  F010         	goto	l4879
  5412  002138                     l1041:
  5413  002138  C00A  F014         	movff	___xxtofl@val,___xxtofl@arg
  5414  00213C  C00B  F015         	movff	___xxtofl@val+1,___xxtofl@arg+1
  5415  002140  C00C  F016         	movff	___xxtofl@val+2,___xxtofl@arg+2
  5416  002144  C00D  F017         	movff	___xxtofl@val+3,___xxtofl@arg+3
  5417  002148                     l4879:
  5418  002148  500A               	movf	___xxtofl@val^0,w,c
  5419  00214A  100B               	iorwf	(___xxtofl@val+1)^0,w,c
  5420  00214C  100C               	iorwf	(___xxtofl@val+2)^0,w,c
  5421  00214E  100D               	iorwf	(___xxtofl@val+3)^0,w,c
  5422  002150  A4D8               	btfss	status,2,c
  5423  002152  EFAD  F010         	goto	u4931
  5424  002156  EFAF  F010         	goto	u4930
  5425  00215A                     u4931:
  5426  00215A  EFB9  F010         	goto	l4885
  5427  00215E                     u4930:
  5428  00215E  0E00               	movlw	0
  5429  002160  6E0A               	movwf	?___xxtofl^0,c
  5430  002162  0E00               	movlw	0
  5431  002164  6E0B               	movwf	(?___xxtofl+1)^0,c
  5432  002166  0E00               	movlw	0
  5433  002168  6E0C               	movwf	(?___xxtofl+2)^0,c
  5434  00216A  0E00               	movlw	0
  5435  00216C  6E0D               	movwf	(?___xxtofl+3)^0,c
  5436  00216E  EF4A  F011         	goto	l1044
  5437  002172                     l4885:
  5438  002172  0E96               	movlw	150
  5439  002174  6E13               	movwf	___xxtofl@exp^0,c
  5440  002176  EFC3  F010         	goto	l4889
  5441  00217A                     l4887:
  5442  00217A  2A13               	incf	___xxtofl@exp^0,f,c
  5443  00217C  90D8               	bcf	status,0,c
  5444  00217E  3217               	rrcf	(___xxtofl@arg+3)^0,f,c
  5445  002180  3216               	rrcf	(___xxtofl@arg+2)^0,f,c
  5446  002182  3215               	rrcf	(___xxtofl@arg+1)^0,f,c
  5447  002184  3214               	rrcf	___xxtofl@arg^0,f,c
  5448  002186                     l4889:
  5449  002186  0E00               	movlw	0
  5450  002188  1414               	andwf	___xxtofl@arg^0,w,c
  5451  00218A  6E0E               	movwf	??___xxtofl^0,c
  5452  00218C  0E00               	movlw	0
  5453  00218E  1415               	andwf	(___xxtofl@arg+1)^0,w,c
  5454  002190  6E0F               	movwf	(??___xxtofl+1)^0,c
  5455  002192  0E00               	movlw	0
  5456  002194  1416               	andwf	(___xxtofl@arg+2)^0,w,c
  5457  002196  6E10               	movwf	(??___xxtofl+2)^0,c
  5458  002198  0EFE               	movlw	254
  5459  00219A  1417               	andwf	(___xxtofl@arg+3)^0,w,c
  5460  00219C  6E11               	movwf	(??___xxtofl+3)^0,c
  5461  00219E  500E               	movf	??___xxtofl^0,w,c
  5462  0021A0  100F               	iorwf	(??___xxtofl+1)^0,w,c
  5463  0021A2  1010               	iorwf	(??___xxtofl+2)^0,w,c
  5464  0021A4  1011               	iorwf	(??___xxtofl+3)^0,w,c
  5465  0021A6  A4D8               	btfss	status,2,c
  5466  0021A8  EFD8  F010         	goto	u4941
  5467  0021AC  EFDA  F010         	goto	u4940
  5468  0021B0                     u4941:
  5469  0021B0  EFBD  F010         	goto	l4887
  5470  0021B4                     u4940:
  5471  0021B4  EFE8  F010         	goto	l1048
  5472  0021B8                     l4891:
  5473  0021B8  2A13               	incf	___xxtofl@exp^0,f,c
  5474  0021BA  0E01               	movlw	1
  5475  0021BC  2614               	addwf	___xxtofl@arg^0,f,c
  5476  0021BE  0E00               	movlw	0
  5477  0021C0  2215               	addwfc	(___xxtofl@arg+1)^0,f,c
  5478  0021C2  2216               	addwfc	(___xxtofl@arg+2)^0,f,c
  5479  0021C4  2217               	addwfc	(___xxtofl@arg+3)^0,f,c
  5480  0021C6  90D8               	bcf	status,0,c
  5481  0021C8  3217               	rrcf	(___xxtofl@arg+3)^0,f,c
  5482  0021CA  3216               	rrcf	(___xxtofl@arg+2)^0,f,c
  5483  0021CC  3215               	rrcf	(___xxtofl@arg+1)^0,f,c
  5484  0021CE  3214               	rrcf	___xxtofl@arg^0,f,c
  5485  0021D0                     l1048:
  5486  0021D0  0E00               	movlw	0
  5487  0021D2  1414               	andwf	___xxtofl@arg^0,w,c
  5488  0021D4  6E0E               	movwf	??___xxtofl^0,c
  5489  0021D6  0E00               	movlw	0
  5490  0021D8  1415               	andwf	(___xxtofl@arg+1)^0,w,c
  5491  0021DA  6E0F               	movwf	(??___xxtofl+1)^0,c
  5492  0021DC  0E00               	movlw	0
  5493  0021DE  1416               	andwf	(___xxtofl@arg+2)^0,w,c
  5494  0021E0  6E10               	movwf	(??___xxtofl+2)^0,c
  5495  0021E2  0EFF               	movlw	255
  5496  0021E4  1417               	andwf	(___xxtofl@arg+3)^0,w,c
  5497  0021E6  6E11               	movwf	(??___xxtofl+3)^0,c
  5498  0021E8  500E               	movf	??___xxtofl^0,w,c
  5499  0021EA  100F               	iorwf	(??___xxtofl+1)^0,w,c
  5500  0021EC  1010               	iorwf	(??___xxtofl+2)^0,w,c
  5501  0021EE  1011               	iorwf	(??___xxtofl+3)^0,w,c
  5502  0021F0  A4D8               	btfss	status,2,c
  5503  0021F2  EFFD  F010         	goto	u4951
  5504  0021F6  EFFF  F010         	goto	u4950
  5505  0021FA                     u4951:
  5506  0021FA  EFDC  F010         	goto	l4891
  5507  0021FE                     u4950:
  5508  0021FE  EF07  F011         	goto	l4899
  5509  002202                     l4897:
  5510  002202  0613               	decf	___xxtofl@exp^0,f,c
  5511  002204  90D8               	bcf	status,0,c
  5512  002206  3614               	rlcf	___xxtofl@arg^0,f,c
  5513  002208  3615               	rlcf	(___xxtofl@arg+1)^0,f,c
  5514  00220A  3616               	rlcf	(___xxtofl@arg+2)^0,f,c
  5515  00220C  3617               	rlcf	(___xxtofl@arg+3)^0,f,c
  5516  00220E                     l4899:
  5517  00220E  BE16               	btfsc	(___xxtofl@arg+2)^0,7,c
  5518  002210  EF0C  F011         	goto	u4961
  5519  002214  EF0E  F011         	goto	u4960
  5520  002218                     u4961:
  5521  002218  EF16  F011         	goto	l1055
  5522  00221C                     u4960:
  5523  00221C  0E02               	movlw	2
  5524  00221E  6013               	cpfslt	___xxtofl@exp^0,c
  5525  002220  EF14  F011         	goto	u4971
  5526  002224  EF16  F011         	goto	u4970
  5527  002228                     u4971:
  5528  002228  EF01  F011         	goto	l4897
  5529  00222C                     u4970:
  5530  00222C                     l1055:
  5531  00222C  B013               	btfsc	___xxtofl@exp^0,0,c
  5532  00222E  EF1B  F011         	goto	u4981
  5533  002232  EF1D  F011         	goto	u4980
  5534  002236                     u4981:
  5535  002236  EF1E  F011         	goto	l4905
  5536  00223A                     u4980:
  5537  00223A  9E16               	bcf	(___xxtofl@arg+2)^0,7,c
  5538  00223C                     l4905:
  5539  00223C  90D8               	bcf	status,0,c
  5540  00223E  3213               	rrcf	___xxtofl@exp^0,f,c
  5541  002240  C013  F00E         	movff	___xxtofl@exp,??___xxtofl
  5542  002244  6A0F               	clrf	(??___xxtofl+1)^0,c
  5543  002246  6A10               	clrf	(??___xxtofl+2)^0,c
  5544  002248  6A11               	clrf	(??___xxtofl+3)^0,c
  5545  00224A  C00E  F011         	movff	??___xxtofl,??___xxtofl+3
  5546  00224E  6A10               	clrf	(??___xxtofl+2)^0,c
  5547  002250  6A0F               	clrf	(??___xxtofl+1)^0,c
  5548  002252  6A0E               	clrf	??___xxtofl^0,c
  5549  002254  500E               	movf	??___xxtofl^0,w,c
  5550  002256  1214               	iorwf	___xxtofl@arg^0,f,c
  5551  002258  500F               	movf	(??___xxtofl+1)^0,w,c
  5552  00225A  1215               	iorwf	(___xxtofl@arg+1)^0,f,c
  5553  00225C  5010               	movf	(??___xxtofl+2)^0,w,c
  5554  00225E  1216               	iorwf	(___xxtofl@arg+2)^0,f,c
  5555  002260  5011               	movf	(??___xxtofl+3)^0,w,c
  5556  002262  1217               	iorwf	(___xxtofl@arg+3)^0,f,c
  5557  002264  5012               	movf	___xxtofl@sign^0,w,c
  5558  002266  B4D8               	btfsc	status,2,c
  5559  002268  EF38  F011         	goto	u4991
  5560  00226C  EF3A  F011         	goto	u4990
  5561  002270                     u4991:
  5562  002270  EF42  F011         	goto	l4915
  5563  002274                     u4990:
  5564  002274  BE0D               	btfsc	(___xxtofl@val+3)^0,7,c
  5565  002276  EF41  F011         	goto	u5000
  5566  00227A  EF3F  F011         	goto	u5001
  5567  00227E                     u5001:
  5568  00227E  EF42  F011         	goto	l4915
  5569  002282                     u5000:
  5570  002282  8E17               	bsf	(___xxtofl@arg+3)^0,7,c
  5571  002284                     l4915:
  5572  002284  C014  F00A         	movff	___xxtofl@arg,?___xxtofl
  5573  002288  C015  F00B         	movff	___xxtofl@arg+1,?___xxtofl+1
  5574  00228C  C016  F00C         	movff	___xxtofl@arg+2,?___xxtofl+2
  5575  002290  C017  F00D         	movff	___xxtofl@arg+3,?___xxtofl+3
  5576  002294                     l1044:
  5577  002294  0012               	return		;funcret
  5578  002296                     __end_of___xxtofl:
  5579                           	callstack 0
  5580                           
  5581 ;; *************** function ___fltol *****************
  5582 ;; Defined at:
  5583 ;;		line 43 in file "c:\PROGRA~1\MICROC~1\xc8\v2.32\pic\sources\c99\common\fltol.c"
  5584 ;; Parameters:    Size  Location     Type
  5585 ;;  f1              4    9[COMRAM] unsigned char 
  5586 ;; Auto vars:     Size  Location     Type
  5587 ;;  exp1            1   18[COMRAM] unsigned char 
  5588 ;;  sign1           1   17[COMRAM] unsigned char 
  5589 ;; Return value:  Size  Location     Type
  5590 ;;                  4    9[COMRAM] long 
  5591 ;; Registers used:
  5592 ;;		wreg, status,2, status,0
  5593 ;; Tracked objects:
  5594 ;;		On entry : 0/0
  5595 ;;		On exit  : 0/0
  5596 ;;		Unchanged: 0/0
  5597 ;; Data sizes:     COMRAM   BANK0   BANK1   BANK2   BANK3   BANK4   BANK5   BANK6   BANK7
  5598 ;;      Params:         4       0       0       0       0       0       0       0       0
  5599 ;;      Locals:         2       0       0       0       0       0       0       0       0
  5600 ;;      Temps:          4       0       0       0       0       0       0       0       0
  5601 ;;      Totals:        10       0       0       0       0       0       0       0       0
  5602 ;;Total ram usage:       10 bytes
  5603 ;; Hardware stack levels used: 1
  5604 ;; Hardware stack levels required when called: 2
  5605 ;; This function calls:
  5606 ;;		Nothing
  5607 ;; This function is called by:
  5608 ;;		_floatToString
  5609 ;; This function uses a non-reentrant model
  5610 ;;
  5611                           
  5612                           	psect	text15
  5613  0024FA                     __ptext15:
  5614                           	callstack 0
  5615  0024FA                     ___fltol:
  5616                           	callstack 26
  5617  0024FA  340C               	rlcf	(___fltol@f1+2)^0,w,c
  5618  0024FC  340D               	rlcf	(___fltol@f1+3)^0,w,c
  5619  0024FE  6E13               	movwf	___fltol@exp1^0,c
  5620  002500  5013               	movf	___fltol@exp1^0,w,c
  5621  002502  A4D8               	btfss	status,2,c
  5622  002504  EF86  F012         	goto	u4841
  5623  002508  EF88  F012         	goto	u4840
  5624  00250C                     u4841:
  5625  00250C  EF92  F012         	goto	l4835
  5626  002510                     u4840:
  5627  002510                     l4831:
  5628  002510  0E00               	movlw	0
  5629  002512  6E0A               	movwf	?___fltol^0,c
  5630  002514  0E00               	movlw	0
  5631  002516  6E0B               	movwf	(?___fltol+1)^0,c
  5632  002518  0E00               	movlw	0
  5633  00251A  6E0C               	movwf	(?___fltol+2)^0,c
  5634  00251C  0E00               	movlw	0
  5635  00251E  6E0D               	movwf	(?___fltol+3)^0,c
  5636  002520  EFFF  F012         	goto	l683
  5637  002524                     l4835:
  5638  002524  C00A  F00E         	movff	___fltol@f1,??___fltol
  5639  002528  C00B  F00F         	movff	___fltol@f1+1,??___fltol+1
  5640  00252C  C00C  F010         	movff	___fltol@f1+2,??___fltol+2
  5641  002530  C00D  F011         	movff	___fltol@f1+3,??___fltol+3
  5642  002534  0E20               	movlw	32
  5643  002536  EFA2  F012         	goto	u4850
  5644  00253A                     u4855:
  5645  00253A  90D8               	bcf	status,0,c
  5646  00253C  3211               	rrcf	(??___fltol+3)^0,f,c
  5647  00253E  3210               	rrcf	(??___fltol+2)^0,f,c
  5648  002540  320F               	rrcf	(??___fltol+1)^0,f,c
  5649  002542  320E               	rrcf	??___fltol^0,f,c
  5650  002544                     u4850:
  5651  002544  2EE8               	decfsz	wreg,f,c
  5652  002546  EF9D  F012         	goto	u4855
  5653  00254A  500E               	movf	??___fltol^0,w,c
  5654  00254C  6E12               	movwf	___fltol@sign1^0,c
  5655  00254E  8E0C               	bsf	(___fltol@f1+2)^0,7,c
  5656  002550  0EFF               	movlw	255
  5657  002552  160A               	andwf	___fltol@f1^0,f,c
  5658  002554  0EFF               	movlw	255
  5659  002556  160B               	andwf	(___fltol@f1+1)^0,f,c
  5660  002558  0EFF               	movlw	255
  5661  00255A  160C               	andwf	(___fltol@f1+2)^0,f,c
  5662  00255C  0E00               	movlw	0
  5663  00255E  160D               	andwf	(___fltol@f1+3)^0,f,c
  5664  002560  0E96               	movlw	150
  5665  002562  5E13               	subwf	___fltol@exp1^0,f,c
  5666  002564  BE13               	btfsc	___fltol@exp1^0,7,c
  5667  002566  EFB9  F012         	goto	u4860
  5668  00256A  EFB7  F012         	goto	u4861
  5669  00256E                     u4861:
  5670  00256E  EFCF  F012         	goto	l4855
  5671  002572                     u4860:
  5672  002572  5013               	movf	___fltol@exp1^0,w,c
  5673  002574  0A80               	xorlw	128
  5674  002576  0F97               	addlw	151
  5675  002578  B0D8               	btfsc	status,0,c
  5676  00257A  EFC1  F012         	goto	u4871
  5677  00257E  EFC3  F012         	goto	u4870
  5678  002582                     u4871:
  5679  002582  EFC5  F012         	goto	l4851
  5680  002586                     u4870:
  5681  002586  EF88  F012         	goto	l4831
  5682  00258A                     l4851:
  5683  00258A  90D8               	bcf	status,0,c
  5684  00258C  320D               	rrcf	(___fltol@f1+3)^0,f,c
  5685  00258E  320C               	rrcf	(___fltol@f1+2)^0,f,c
  5686  002590  320B               	rrcf	(___fltol@f1+1)^0,f,c
  5687  002592  320A               	rrcf	___fltol@f1^0,f,c
  5688  002594  3E13               	incfsz	___fltol@exp1^0,f,c
  5689  002596  EFC5  F012         	goto	l4851
  5690  00259A  EFE7  F012         	goto	l4865
  5691  00259E                     l4855:
  5692  00259E  0E1F               	movlw	31
  5693  0025A0  6413               	cpfsgt	___fltol@exp1^0,c
  5694  0025A2  EFD5  F012         	goto	u4881
  5695  0025A6  EFD7  F012         	goto	u4880
  5696  0025AA                     u4881:
  5697  0025AA  EFDF  F012         	goto	l4863
  5698  0025AE                     u4880:
  5699  0025AE  EF88  F012         	goto	l4831
  5700  0025B2                     l4861:
  5701  0025B2  90D8               	bcf	status,0,c
  5702  0025B4  360A               	rlcf	___fltol@f1^0,f,c
  5703  0025B6  360B               	rlcf	(___fltol@f1+1)^0,f,c
  5704  0025B8  360C               	rlcf	(___fltol@f1+2)^0,f,c
  5705  0025BA  360D               	rlcf	(___fltol@f1+3)^0,f,c
  5706  0025BC  0613               	decf	___fltol@exp1^0,f,c
  5707  0025BE                     l4863:
  5708  0025BE  5013               	movf	___fltol@exp1^0,w,c
  5709  0025C0  A4D8               	btfss	status,2,c
  5710  0025C2  EFE5  F012         	goto	u4891
  5711  0025C6  EFE7  F012         	goto	u4890
  5712  0025CA                     u4891:
  5713  0025CA  EFD9  F012         	goto	l4861
  5714  0025CE                     u4890:
  5715  0025CE                     l4865:
  5716  0025CE  5012               	movf	___fltol@sign1^0,w,c
  5717  0025D0  B4D8               	btfsc	status,2,c
  5718  0025D2  EFED  F012         	goto	u4901
  5719  0025D6  EFEF  F012         	goto	u4900
  5720  0025DA                     u4901:
  5721  0025DA  EFF7  F012         	goto	l4869
  5722  0025DE                     u4900:
  5723  0025DE  1E0D               	comf	(___fltol@f1+3)^0,f,c
  5724  0025E0  1E0C               	comf	(___fltol@f1+2)^0,f,c
  5725  0025E2  1E0B               	comf	(___fltol@f1+1)^0,f,c
  5726  0025E4  6C0A               	negf	___fltol@f1^0,c
  5727  0025E6  0E00               	movlw	0
  5728  0025E8  220B               	addwfc	(___fltol@f1+1)^0,f,c
  5729  0025EA  220C               	addwfc	(___fltol@f1+2)^0,f,c
  5730  0025EC  220D               	addwfc	(___fltol@f1+3)^0,f,c
  5731  0025EE                     l4869:
  5732  0025EE  C00A  F00A         	movff	___fltol@f1,?___fltol
  5733  0025F2  C00B  F00B         	movff	___fltol@f1+1,?___fltol+1
  5734  0025F6  C00C  F00C         	movff	___fltol@f1+2,?___fltol+2
  5735  0025FA  C00D  F00D         	movff	___fltol@f1+3,?___fltol+3
  5736  0025FE                     l683:
  5737  0025FE  0012               	return		;funcret
  5738  002600                     __end_of___fltol:
  5739                           	callstack 0
  5740                           
  5741 ;; *************** function ___flsub *****************
  5742 ;; Defined at:
  5743 ;;		line 245 in file "c:\PROGRA~1\MICROC~1\xc8\v2.32\pic\sources\c99\common\sprcadd.c"
  5744 ;; Parameters:    Size  Location     Type
  5745 ;;  b               4   25[COMRAM] long 
  5746 ;;  a               4   29[COMRAM] long 
  5747 ;; Auto vars:     Size  Location     Type
  5748 ;;		None
  5749 ;; Return value:  Size  Location     Type
  5750 ;;                  4   25[COMRAM] long 
  5751 ;; Registers used:
  5752 ;;		wreg, status,2, status,0, cstack
  5753 ;; Tracked objects:
  5754 ;;		On entry : 0/0
  5755 ;;		On exit  : 0/0
  5756 ;;		Unchanged: 0/0
  5757 ;; Data sizes:     COMRAM   BANK0   BANK1   BANK2   BANK3   BANK4   BANK5   BANK6   BANK7
  5758 ;;      Params:         8       0       0       0       0       0       0       0       0
  5759 ;;      Locals:         0       0       0       0       0       0       0       0       0
  5760 ;;      Temps:          0       0       0       0       0       0       0       0       0
  5761 ;;      Totals:         8       0       0       0       0       0       0       0       0
  5762 ;;Total ram usage:        8 bytes
  5763 ;; Hardware stack levels used: 1
  5764 ;; Hardware stack levels required when called: 3
  5765 ;; This function calls:
  5766 ;;		___fladd
  5767 ;; This function is called by:
  5768 ;;		_floatToString
  5769 ;; This function uses a non-reentrant model
  5770 ;;
  5771                           
  5772                           	psect	text16
  5773  002E02                     __ptext16:
  5774                           	callstack 0
  5775  002E02                     ___flsub:
  5776                           	callstack 25
  5777  002E02  0E00               	movlw	0
  5778  002E04  1A1E               	xorwf	___flsub@a^0,f,c
  5779  002E06  0E00               	movlw	0
  5780  002E08  1A1F               	xorwf	(___flsub@a+1)^0,f,c
  5781  002E0A  0E00               	movlw	0
  5782  002E0C  1A20               	xorwf	(___flsub@a+2)^0,f,c
  5783  002E0E  0E80               	movlw	128
  5784  002E10  1A21               	xorwf	(___flsub@a+3)^0,f,c
  5785  002E12  C01A  F00A         	movff	___flsub@b,___fladd@b
  5786  002E16  C01B  F00B         	movff	___flsub@b+1,___fladd@b+1
  5787  002E1A  C01C  F00C         	movff	___flsub@b+2,___fladd@b+2
  5788  002E1E  C01D  F00D         	movff	___flsub@b+3,___fladd@b+3
  5789  002E22  C01E  F00E         	movff	___flsub@a,___fladd@a
  5790  002E26  C01F  F00F         	movff	___flsub@a+1,___fladd@a+1
  5791  002E2A  C020  F010         	movff	___flsub@a+2,___fladd@a+2
  5792  002E2E  C021  F011         	movff	___flsub@a+3,___fladd@a+3
  5793  002E32  ECDB  F007         	call	___fladd	;wreg free
  5794  002E36  C00A  F01A         	movff	?___fladd,?___flsub
  5795  002E3A  C00B  F01B         	movff	?___fladd+1,?___flsub+1
  5796  002E3E  C00C  F01C         	movff	?___fladd+2,?___flsub+2
  5797  002E42  C00D  F01D         	movff	?___fladd+3,?___flsub+3
  5798  002E46  0012               	return		;funcret
  5799  002E48                     __end_of___flsub:
  5800                           	callstack 0
  5801                           
  5802 ;; *************** function ___fladd *****************
  5803 ;; Defined at:
  5804 ;;		line 10 in file "c:\PROGRA~1\MICROC~1\xc8\v2.32\pic\sources\c99\common\sprcadd.c"
  5805 ;; Parameters:    Size  Location     Type
  5806 ;;  b               4    9[COMRAM] long 
  5807 ;;  a               4   13[COMRAM] long 
  5808 ;; Auto vars:     Size  Location     Type
  5809 ;;  grs             1   24[COMRAM] unsigned char 
  5810 ;;  bexp            1   23[COMRAM] unsigned char 
  5811 ;;  aexp            1   22[COMRAM] unsigned char 
  5812 ;;  signs           1   21[COMRAM] unsigned char 
  5813 ;; Return value:  Size  Location     Type
  5814 ;;                  4    9[COMRAM] unsigned char 
  5815 ;; Registers used:
  5816 ;;		wreg, status,2, status,0
  5817 ;; Tracked objects:
  5818 ;;		On entry : 0/0
  5819 ;;		On exit  : 0/0
  5820 ;;		Unchanged: 0/0
  5821 ;; Data sizes:     COMRAM   BANK0   BANK1   BANK2   BANK3   BANK4   BANK5   BANK6   BANK7
  5822 ;;      Params:         8       0       0       0       0       0       0       0       0
  5823 ;;      Locals:         4       0       0       0       0       0       0       0       0
  5824 ;;      Temps:          4       0       0       0       0       0       0       0       0
  5825 ;;      Totals:        16       0       0       0       0       0       0       0       0
  5826 ;;Total ram usage:       16 bytes
  5827 ;; Hardware stack levels used: 1
  5828 ;; Hardware stack levels required when called: 2
  5829 ;; This function calls:
  5830 ;;		Nothing
  5831 ;; This function is called by:
  5832 ;;		___flsub
  5833 ;; This function uses a non-reentrant model
  5834 ;;
  5835                           
  5836                           	psect	text17
  5837  000FB6                     __ptext17:
  5838                           	callstack 0
  5839  000FB6                     ___fladd:
  5840                           	callstack 25
  5841  000FB6  500D               	movf	(___fladd@b+3)^0,w,c
  5842  000FB8  0B80               	andlw	128
  5843  000FBA  6E16               	movwf	___fladd@signs^0,c
  5844  000FBC  500D               	movf	(___fladd@b+3)^0,w,c
  5845  000FBE  240D               	addwf	(___fladd@b+3)^0,w,c
  5846  000FC0  6E18               	movwf	___fladd@bexp^0,c
  5847  000FC2  AE0C               	btfss	(___fladd@b+2)^0,7,c
  5848  000FC4  EFE6  F007         	goto	u4131
  5849  000FC8  EFE8  F007         	goto	u4130
  5850  000FCC                     u4131:
  5851  000FCC  EFE9  F007         	goto	l4409
  5852  000FD0                     u4130:
  5853  000FD0  8018               	bsf	___fladd@bexp^0,0,c
  5854  000FD2                     l4409:
  5855  000FD2  5018               	movf	___fladd@bexp^0,w,c
  5856  000FD4  B4D8               	btfsc	status,2,c
  5857  000FD6  EFEF  F007         	goto	u4141
  5858  000FDA  EFF1  F007         	goto	u4140
  5859  000FDE                     u4141:
  5860  000FDE  EF06  F008         	goto	l4419
  5861  000FE2                     u4140:
  5862  000FE2  2818               	incf	___fladd@bexp^0,w,c
  5863  000FE4  A4D8               	btfss	status,2,c
  5864  000FE6  EFF7  F007         	goto	u4151
  5865  000FEA  EFF9  F007         	goto	u4150
  5866  000FEE                     u4151:
  5867  000FEE  EF01  F008         	goto	l4415
  5868  000FF2                     u4150:
  5869  000FF2  0E00               	movlw	0
  5870  000FF4  6E0A               	movwf	___fladd@b^0,c
  5871  000FF6  0E00               	movlw	0
  5872  000FF8  6E0B               	movwf	(___fladd@b+1)^0,c
  5873  000FFA  0E00               	movlw	0
  5874  000FFC  6E0C               	movwf	(___fladd@b+2)^0,c
  5875  000FFE  0E00               	movlw	0
  5876  001000  6E0D               	movwf	(___fladd@b+3)^0,c
  5877  001002                     l4415:
  5878  001002  8E0C               	bsf	(___fladd@b+2)^0,7,c
  5879  001004  0E00               	movlw	0
  5880  001006  6E0D               	movwf	(___fladd@b+3)^0,c
  5881  001008  EF0E  F008         	goto	l4421
  5882  00100C                     l4419:
  5883  00100C  0E00               	movlw	0
  5884  00100E  6E0A               	movwf	___fladd@b^0,c
  5885  001010  0E00               	movlw	0
  5886  001012  6E0B               	movwf	(___fladd@b+1)^0,c
  5887  001014  0E00               	movlw	0
  5888  001016  6E0C               	movwf	(___fladd@b+2)^0,c
  5889  001018  0E00               	movlw	0
  5890  00101A  6E0D               	movwf	(___fladd@b+3)^0,c
  5891  00101C                     l4421:
  5892  00101C  5011               	movf	(___fladd@a+3)^0,w,c
  5893  00101E  0B80               	andlw	128
  5894  001020  6E17               	movwf	___fladd@aexp^0,c
  5895  001022  5016               	movf	___fladd@signs^0,w,c
  5896  001024  1817               	xorwf	___fladd@aexp^0,w,c
  5897  001026  B4D8               	btfsc	status,2,c
  5898  001028  EF18  F008         	goto	u4161
  5899  00102C  EF1A  F008         	goto	u4160
  5900  001030                     u4161:
  5901  001030  EF1B  F008         	goto	l4427
  5902  001034                     u4160:
  5903  001034  8C16               	bsf	___fladd@signs^0,6,c
  5904  001036                     l4427:
  5905  001036  5011               	movf	(___fladd@a+3)^0,w,c
  5906  001038  2411               	addwf	(___fladd@a+3)^0,w,c
  5907  00103A  6E17               	movwf	___fladd@aexp^0,c
  5908  00103C  AE10               	btfss	(___fladd@a+2)^0,7,c
  5909  00103E  EF23  F008         	goto	u4171
  5910  001042  EF25  F008         	goto	u4170
  5911  001046                     u4171:
  5912  001046  EF26  F008         	goto	l4433
  5913  00104A                     u4170:
  5914  00104A  8017               	bsf	___fladd@aexp^0,0,c
  5915  00104C                     l4433:
  5916  00104C  5017               	movf	___fladd@aexp^0,w,c
  5917  00104E  B4D8               	btfsc	status,2,c
  5918  001050  EF2C  F008         	goto	u4181
  5919  001054  EF2E  F008         	goto	u4180
  5920  001058                     u4181:
  5921  001058  EF43  F008         	goto	l4443
  5922  00105C                     u4180:
  5923  00105C  2817               	incf	___fladd@aexp^0,w,c
  5924  00105E  A4D8               	btfss	status,2,c
  5925  001060  EF34  F008         	goto	u4191
  5926  001064  EF36  F008         	goto	u4190
  5927  001068                     u4191:
  5928  001068  EF3E  F008         	goto	l4439
  5929  00106C                     u4190:
  5930  00106C  0E00               	movlw	0
  5931  00106E  6E0E               	movwf	___fladd@a^0,c
  5932  001070  0E00               	movlw	0
  5933  001072  6E0F               	movwf	(___fladd@a+1)^0,c
  5934  001074  0E00               	movlw	0
  5935  001076  6E10               	movwf	(___fladd@a+2)^0,c
  5936  001078  0E00               	movlw	0
  5937  00107A  6E11               	movwf	(___fladd@a+3)^0,c
  5938  00107C                     l4439:
  5939  00107C  8E10               	bsf	(___fladd@a+2)^0,7,c
  5940  00107E  0E00               	movlw	0
  5941  001080  6E11               	movwf	(___fladd@a+3)^0,c
  5942  001082  EF4B  F008         	goto	l4445
  5943  001086                     l4443:
  5944  001086  0E00               	movlw	0
  5945  001088  6E0E               	movwf	___fladd@a^0,c
  5946  00108A  0E00               	movlw	0
  5947  00108C  6E0F               	movwf	(___fladd@a+1)^0,c
  5948  00108E  0E00               	movlw	0
  5949  001090  6E10               	movwf	(___fladd@a+2)^0,c
  5950  001092  0E00               	movlw	0
  5951  001094  6E11               	movwf	(___fladd@a+3)^0,c
  5952  001096                     l4445:
  5953  001096  5018               	movf	___fladd@bexp^0,w,c
  5954  001098  5C17               	subwf	___fladd@aexp^0,w,c
  5955  00109A  B0D8               	btfsc	status,0,c
  5956  00109C  EF52  F008         	goto	u4201
  5957  0010A0  EF54  F008         	goto	u4200
  5958  0010A4                     u4201:
  5959  0010A4  EF7B  F008         	goto	l4481
  5960  0010A8                     u4200:
  5961  0010A8  AC16               	btfss	___fladd@signs^0,6,c
  5962  0010AA  EF59  F008         	goto	u4211
  5963  0010AE  EF5B  F008         	goto	u4210
  5964  0010B2                     u4211:
  5965  0010B2  EF5D  F008         	goto	l4451
  5966  0010B6                     u4210:
  5967  0010B6  0E80               	movlw	128
  5968  0010B8  1A16               	xorwf	___fladd@signs^0,f,c
  5969  0010BA                     l4451:
  5970  0010BA  C018  F019         	movff	___fladd@bexp,___fladd@grs
  5971  0010BE  C017  F018         	movff	___fladd@aexp,___fladd@bexp
  5972  0010C2  C019  F017         	movff	___fladd@grs,___fladd@aexp
  5973  0010C6  C00A  F019         	movff	___fladd@b,___fladd@grs
  5974  0010CA  C00E  F00A         	movff	___fladd@a,___fladd@b
  5975  0010CE  C019  F00E         	movff	___fladd@grs,___fladd@a
  5976  0010D2  C00B  F019         	movff	___fladd@b+1,___fladd@grs
  5977  0010D6  C00F  F00B         	movff	___fladd@a+1,___fladd@b+1
  5978  0010DA  C019  F00F         	movff	___fladd@grs,___fladd@a+1
  5979  0010DE  C00C  F019         	movff	___fladd@b+2,___fladd@grs
  5980  0010E2  C010  F00C         	movff	___fladd@a+2,___fladd@b+2
  5981  0010E6  C019  F010         	movff	___fladd@grs,___fladd@a+2
  5982  0010EA  C00D  F019         	movff	___fladd@b+3,___fladd@grs
  5983  0010EE  C011  F00D         	movff	___fladd@a+3,___fladd@b+3
  5984  0010F2  C019  F011         	movff	___fladd@grs,___fladd@a+3
  5985  0010F6                     l4481:
  5986  0010F6  0E00               	movlw	0
  5987  0010F8  6E19               	movwf	___fladd@grs^0,c
  5988  0010FA  5018               	movf	___fladd@bexp^0,w,c
  5989  0010FC  C017  F012         	movff	___fladd@aexp,??___fladd
  5990  001100  6A13               	clrf	(??___fladd+1)^0,c
  5991  001102  5E12               	subwf	??___fladd^0,f,c
  5992  001104  0E00               	movlw	0
  5993  001106  5A13               	subwfb	(??___fladd+1)^0,f,c
  5994  001108  BE13               	btfsc	(??___fladd+1)^0,7,c
  5995  00110A  EF90  F008         	goto	u4221
  5996  00110E  5013               	movf	(??___fladd+1)^0,w,c
  5997  001110  E109               	bnz	u4220
  5998  001112  0E1A               	movlw	26
  5999  001114  5C12               	subwf	??___fladd^0,w,c
  6000  001116  A0D8               	btfss	status,0,c
  6001  001118  EF90  F008         	goto	u4221
  6002  00111C  EF92  F008         	goto	u4220
  6003  001120                     u4221:
  6004  001120  EFC9  F008         	goto	l915
  6005  001124                     u4220:
  6006  001124  500A               	movf	___fladd@b^0,w,c
  6007  001126  100B               	iorwf	(___fladd@b+1)^0,w,c
  6008  001128  100C               	iorwf	(___fladd@b+2)^0,w,c
  6009  00112A  100D               	iorwf	(___fladd@b+3)^0,w,c
  6010  00112C  A4D8               	btfss	status,2,c
  6011  00112E  EF9B  F008         	goto	u4231
  6012  001132  EF9E  F008         	goto	u4230
  6013  001136                     u4231:
  6014  001136  0E01               	movlw	1
  6015  001138  EF9F  F008         	goto	u4240
  6016  00113C                     u4230:
  6017  00113C  0E00               	movlw	0
  6018  00113E                     u4240:
  6019  00113E  6E19               	movwf	___fladd@grs^0,c
  6020  001140  0E00               	movlw	0
  6021  001142  6E0A               	movwf	___fladd@b^0,c
  6022  001144  0E00               	movlw	0
  6023  001146  6E0B               	movwf	(___fladd@b+1)^0,c
  6024  001148  0E00               	movlw	0
  6025  00114A  6E0C               	movwf	(___fladd@b+2)^0,c
  6026  00114C  0E00               	movlw	0
  6027  00114E  6E0D               	movwf	(___fladd@b+3)^0,c
  6028  001150  C017  F018         	movff	___fladd@aexp,___fladd@bexp
  6029  001154  EFD2  F008         	goto	l914
  6030  001158                     l916:
  6031  001158  A019               	btfss	___fladd@grs^0,0,c
  6032  00115A  EFB1  F008         	goto	u4251
  6033  00115E  EFB3  F008         	goto	u4250
  6034  001162                     u4251:
  6035  001162  EFB9  F008         	goto	l4493
  6036  001166                     u4250:
  6037  001166  90D8               	bcf	status,0,c
  6038  001168  3019               	rrcf	___fladd@grs^0,w,c
  6039  00116A  0901               	iorlw	1
  6040  00116C  6E19               	movwf	___fladd@grs^0,c
  6041  00116E  EFBB  F008         	goto	l4495
  6042  001172                     l4493:
  6043  001172  90D8               	bcf	status,0,c
  6044  001174  3219               	rrcf	___fladd@grs^0,f,c
  6045  001176                     l4495:
  6046  001176  A00A               	btfss	___fladd@b^0,0,c
  6047  001178  EFC0  F008         	goto	u4261
  6048  00117C  EFC2  F008         	goto	u4260
  6049  001180                     u4261:
  6050  001180  EFC3  F008         	goto	l4499
  6051  001184                     u4260:
  6052  001184  8E19               	bsf	___fladd@grs^0,7,c
  6053  001186                     l4499:
  6054  001186  340D               	rlcf	(___fladd@b+3)^0,w,c
  6055  001188  320D               	rrcf	(___fladd@b+3)^0,f,c
  6056  00118A  320C               	rrcf	(___fladd@b+2)^0,f,c
  6057  00118C  320B               	rrcf	(___fladd@b+1)^0,f,c
  6058  00118E  320A               	rrcf	___fladd@b^0,f,c
  6059  001190  2A18               	incf	___fladd@bexp^0,f,c
  6060  001192                     l915:
  6061  001192  5017               	movf	___fladd@aexp^0,w,c
  6062  001194  5C18               	subwf	___fladd@bexp^0,w,c
  6063  001196  A0D8               	btfss	status,0,c
  6064  001198  EFD0  F008         	goto	u4271
  6065  00119C  EFD2  F008         	goto	u4270
  6066  0011A0                     u4271:
  6067  0011A0  EFAC  F008         	goto	l916
  6068  0011A4                     u4270:
  6069  0011A4                     l914:
  6070  0011A4  BC16               	btfsc	___fladd@signs^0,6,c
  6071  0011A6  EFD7  F008         	goto	u4281
  6072  0011AA  EFD9  F008         	goto	u4280
  6073  0011AE                     u4281:
  6074  0011AE  EF19  F009         	goto	l4527
  6075  0011B2                     u4280:
  6076  0011B2  5018               	movf	___fladd@bexp^0,w,c
  6077  0011B4  A4D8               	btfss	status,2,c
  6078  0011B6  EFDF  F008         	goto	u4291
  6079  0011BA  EFE1  F008         	goto	u4290
  6080  0011BE                     u4291:
  6081  0011BE  EFEB  F008         	goto	l4509
  6082  0011C2                     u4290:
  6083  0011C2  0E00               	movlw	0
  6084  0011C4  6E0A               	movwf	?___fladd^0,c
  6085  0011C6  0E00               	movlw	0
  6086  0011C8  6E0B               	movwf	(?___fladd+1)^0,c
  6087  0011CA  0E00               	movlw	0
  6088  0011CC  6E0C               	movwf	(?___fladd+2)^0,c
  6089  0011CE  0E00               	movlw	0
  6090  0011D0  6E0D               	movwf	(?___fladd+3)^0,c
  6091  0011D2  EF3A  F00A         	goto	l923
  6092  0011D6                     l4509:
  6093  0011D6  500E               	movf	___fladd@a^0,w,c
  6094  0011D8  260A               	addwf	___fladd@b^0,f,c
  6095  0011DA  500F               	movf	(___fladd@a+1)^0,w,c
  6096  0011DC  220B               	addwfc	(___fladd@b+1)^0,f,c
  6097  0011DE  5010               	movf	(___fladd@a+2)^0,w,c
  6098  0011E0  220C               	addwfc	(___fladd@b+2)^0,f,c
  6099  0011E2  5011               	movf	(___fladd@a+3)^0,w,c
  6100  0011E4  220D               	addwfc	(___fladd@b+3)^0,f,c
  6101  0011E6  A00D               	btfss	(___fladd@b+3)^0,0,c
  6102  0011E8  EFF8  F008         	goto	u4301
  6103  0011EC  EFFA  F008         	goto	u4300
  6104  0011F0                     u4301:
  6105  0011F0  EFA6  F009         	goto	l4563
  6106  0011F4                     u4300:
  6107  0011F4  A019               	btfss	___fladd@grs^0,0,c
  6108  0011F6  EFFF  F008         	goto	u4311
  6109  0011FA  EF01  F009         	goto	u4310
  6110  0011FE                     u4311:
  6111  0011FE  EF07  F009         	goto	l4517
  6112  001202                     u4310:
  6113  001202  90D8               	bcf	status,0,c
  6114  001204  3019               	rrcf	___fladd@grs^0,w,c
  6115  001206  0901               	iorlw	1
  6116  001208  6E19               	movwf	___fladd@grs^0,c
  6117  00120A  EF09  F009         	goto	l4519
  6118  00120E                     l4517:
  6119  00120E  90D8               	bcf	status,0,c
  6120  001210  3219               	rrcf	___fladd@grs^0,f,c
  6121  001212                     l4519:
  6122  001212  A00A               	btfss	___fladd@b^0,0,c
  6123  001214  EF0E  F009         	goto	u4321
  6124  001218  EF10  F009         	goto	u4320
  6125  00121C                     u4321:
  6126  00121C  EF11  F009         	goto	l4523
  6127  001220                     u4320:
  6128  001220  8E19               	bsf	___fladd@grs^0,7,c
  6129  001222                     l4523:
  6130  001222  340D               	rlcf	(___fladd@b+3)^0,w,c
  6131  001224  320D               	rrcf	(___fladd@b+3)^0,f,c
  6132  001226  320C               	rrcf	(___fladd@b+2)^0,f,c
  6133  001228  320B               	rrcf	(___fladd@b+1)^0,f,c
  6134  00122A  320A               	rrcf	___fladd@b^0,f,c
  6135  00122C  2A18               	incf	___fladd@bexp^0,f,c
  6136  00122E  EFA6  F009         	goto	l4563
  6137  001232                     l4527:
  6138  001232  500E               	movf	___fladd@a^0,w,c
  6139  001234  5C0A               	subwf	___fladd@b^0,w,c
  6140  001236  500F               	movf	(___fladd@a+1)^0,w,c
  6141  001238  580B               	subwfb	(___fladd@b+1)^0,w,c
  6142  00123A  5010               	movf	(___fladd@a+2)^0,w,c
  6143  00123C  580C               	subwfb	(___fladd@b+2)^0,w,c
  6144  00123E  500D               	movf	(___fladd@b+3)^0,w,c
  6145  001240  0A80               	xorlw	128
  6146  001242  6E12               	movwf	??___fladd^0,c
  6147  001244  5011               	movf	(___fladd@a+3)^0,w,c
  6148  001246  0A80               	xorlw	128
  6149  001248  5812               	subwfb	??___fladd^0,w,c
  6150  00124A  B0D8               	btfsc	status,0,c
  6151  00124C  EF2A  F009         	goto	u4331
  6152  001250  EF2C  F009         	goto	u4330
  6153  001254                     u4331:
  6154  001254  EF57  F009         	goto	l4537
  6155  001258                     u4330:
  6156  001258  500A               	movf	___fladd@b^0,w,c
  6157  00125A  5C0E               	subwf	___fladd@a^0,w,c
  6158  00125C  6E12               	movwf	??___fladd^0,c
  6159  00125E  500B               	movf	(___fladd@b+1)^0,w,c
  6160  001260  580F               	subwfb	(___fladd@a+1)^0,w,c
  6161  001262  6E13               	movwf	(??___fladd+1)^0,c
  6162  001264  500C               	movf	(___fladd@b+2)^0,w,c
  6163  001266  5810               	subwfb	(___fladd@a+2)^0,w,c
  6164  001268  6E14               	movwf	(??___fladd+2)^0,c
  6165  00126A  500D               	movf	(___fladd@b+3)^0,w,c
  6166  00126C  5811               	subwfb	(___fladd@a+3)^0,w,c
  6167  00126E  6E15               	movwf	(??___fladd+3)^0,c
  6168  001270  0EFF               	movlw	255
  6169  001272  2412               	addwf	??___fladd^0,w,c
  6170  001274  6E0A               	movwf	___fladd@b^0,c
  6171  001276  0EFF               	movlw	255
  6172  001278  2013               	addwfc	(??___fladd+1)^0,w,c
  6173  00127A  6E0B               	movwf	(___fladd@b+1)^0,c
  6174  00127C  0EFF               	movlw	255
  6175  00127E  2014               	addwfc	(??___fladd+2)^0,w,c
  6176  001280  6E0C               	movwf	(___fladd@b+2)^0,c
  6177  001282  0EFF               	movlw	255
  6178  001284  2015               	addwfc	(??___fladd+3)^0,w,c
  6179  001286  6E0D               	movwf	(___fladd@b+3)^0,c
  6180  001288  0E80               	movlw	128
  6181  00128A  1A16               	xorwf	___fladd@signs^0,f,c
  6182  00128C  6C19               	negf	___fladd@grs^0,c
  6183  00128E  5019               	movf	___fladd@grs^0,w,c
  6184  001290  A4D8               	btfss	status,2,c
  6185  001292  EF4D  F009         	goto	u4341
  6186  001296  EF4F  F009         	goto	u4340
  6187  00129A                     u4341:
  6188  00129A  EF5F  F009         	goto	l931
  6189  00129E                     u4340:
  6190  00129E  0E01               	movlw	1
  6191  0012A0  260A               	addwf	___fladd@b^0,f,c
  6192  0012A2  0E00               	movlw	0
  6193  0012A4  220B               	addwfc	(___fladd@b+1)^0,f,c
  6194  0012A6  220C               	addwfc	(___fladd@b+2)^0,f,c
  6195  0012A8  220D               	addwfc	(___fladd@b+3)^0,f,c
  6196  0012AA  EF5F  F009         	goto	l931
  6197  0012AE                     l4537:
  6198  0012AE  500E               	movf	___fladd@a^0,w,c
  6199  0012B0  5E0A               	subwf	___fladd@b^0,f,c
  6200  0012B2  500F               	movf	(___fladd@a+1)^0,w,c
  6201  0012B4  5A0B               	subwfb	(___fladd@b+1)^0,f,c
  6202  0012B6  5010               	movf	(___fladd@a+2)^0,w,c
  6203  0012B8  5A0C               	subwfb	(___fladd@b+2)^0,f,c
  6204  0012BA  5011               	movf	(___fladd@a+3)^0,w,c
  6205  0012BC  5A0D               	subwfb	(___fladd@b+3)^0,f,c
  6206  0012BE                     l931:
  6207  0012BE  500A               	movf	___fladd@b^0,w,c
  6208  0012C0  100B               	iorwf	(___fladd@b+1)^0,w,c
  6209  0012C2  100C               	iorwf	(___fladd@b+2)^0,w,c
  6210  0012C4  100D               	iorwf	(___fladd@b+3)^0,w,c
  6211  0012C6  A4D8               	btfss	status,2,c
  6212  0012C8  EF68  F009         	goto	u4351
  6213  0012CC  EF6A  F009         	goto	u4350
  6214  0012D0                     u4351:
  6215  0012D0  EF9F  F009         	goto	l4561
  6216  0012D4                     u4350:
  6217  0012D4  5019               	movf	___fladd@grs^0,w,c
  6218  0012D6  A4D8               	btfss	status,2,c
  6219  0012D8  EF70  F009         	goto	u4361
  6220  0012DC  EF72  F009         	goto	u4360
  6221  0012E0                     u4361:
  6222  0012E0  EF9F  F009         	goto	l4561
  6223  0012E4                     u4360:
  6224  0012E4  0E00               	movlw	0
  6225  0012E6  6E0A               	movwf	?___fladd^0,c
  6226  0012E8  0E00               	movlw	0
  6227  0012EA  6E0B               	movwf	(?___fladd+1)^0,c
  6228  0012EC  0E00               	movlw	0
  6229  0012EE  6E0C               	movwf	(?___fladd+2)^0,c
  6230  0012F0  0E00               	movlw	0
  6231  0012F2  6E0D               	movwf	(?___fladd+3)^0,c
  6232  0012F4  EF3A  F00A         	goto	l923
  6233  0012F8                     l4545:
  6234  0012F8  90D8               	bcf	status,0,c
  6235  0012FA  360A               	rlcf	___fladd@b^0,f,c
  6236  0012FC  360B               	rlcf	(___fladd@b+1)^0,f,c
  6237  0012FE  360C               	rlcf	(___fladd@b+2)^0,f,c
  6238  001300  360D               	rlcf	(___fladd@b+3)^0,f,c
  6239  001302  AE19               	btfss	___fladd@grs^0,7,c
  6240  001304  EF86  F009         	goto	u4371
  6241  001308  EF88  F009         	goto	u4370
  6242  00130C                     u4371:
  6243  00130C  EF89  F009         	goto	l4551
  6244  001310                     u4370:
  6245  001310  800A               	bsf	___fladd@b^0,0,c
  6246  001312                     l4551:
  6247  001312  A019               	btfss	___fladd@grs^0,0,c
  6248  001314  EF8E  F009         	goto	u4381
  6249  001318  EF90  F009         	goto	u4380
  6250  00131C                     u4381:
  6251  00131C  EF94  F009         	goto	l4555
  6252  001320                     u4380:
  6253  001320  80D8               	bsf	status,0,c
  6254  001322  3619               	rlcf	___fladd@grs^0,f,c
  6255  001324  EF96  F009         	goto	l4557
  6256  001328                     l4555:
  6257  001328  90D8               	bcf	status,0,c
  6258  00132A  3619               	rlcf	___fladd@grs^0,f,c
  6259  00132C                     l4557:
  6260  00132C  5018               	movf	___fladd@bexp^0,w,c
  6261  00132E  B4D8               	btfsc	status,2,c
  6262  001330  EF9C  F009         	goto	u4391
  6263  001334  EF9E  F009         	goto	u4390
  6264  001338                     u4391:
  6265  001338  EF9F  F009         	goto	l4561
  6266  00133C                     u4390:
  6267  00133C  0618               	decf	___fladd@bexp^0,f,c
  6268  00133E                     l4561:
  6269  00133E  AE0C               	btfss	(___fladd@b+2)^0,7,c
  6270  001340  EFA4  F009         	goto	u4401
  6271  001344  EFA6  F009         	goto	u4400
  6272  001348                     u4401:
  6273  001348  EF7C  F009         	goto	l4545
  6274  00134C                     u4400:
  6275  00134C                     l4563:
  6276  00134C  0E00               	movlw	0
  6277  00134E  6E17               	movwf	___fladd@aexp^0,c
  6278  001350  AE19               	btfss	___fladd@grs^0,7,c
  6279  001352  EFAD  F009         	goto	u4411
  6280  001356  EFAF  F009         	goto	u4410
  6281  00135A                     u4411:
  6282  00135A  EFC7  F009         	goto	l940
  6283  00135E                     u4410:
  6284  00135E  C019  F012         	movff	___fladd@grs,??___fladd
  6285  001362  0E7F               	movlw	127
  6286  001364  1612               	andwf	??___fladd^0,f,c
  6287  001366  B4D8               	btfsc	status,2,c
  6288  001368  EFB8  F009         	goto	u4421
  6289  00136C  EFBA  F009         	goto	u4420
  6290  001370                     u4421:
  6291  001370  EFBE  F009         	goto	l941
  6292  001374                     u4420:
  6293  001374                     l4569:
  6294  001374  0E01               	movlw	1
  6295  001376  6E17               	movwf	___fladd@aexp^0,c
  6296  001378  EFC7  F009         	goto	l940
  6297  00137C                     l941:
  6298  00137C  A00A               	btfss	___fladd@b^0,0,c
  6299  00137E  EFC3  F009         	goto	u4431
  6300  001382  EFC5  F009         	goto	u4430
  6301  001386                     u4431:
  6302  001386  EFC7  F009         	goto	l940
  6303  00138A                     u4430:
  6304  00138A  EFBA  F009         	goto	l4569
  6305  00138E                     l940:
  6306  00138E  5017               	movf	___fladd@aexp^0,w,c
  6307  001390  B4D8               	btfsc	status,2,c
  6308  001392  EFCD  F009         	goto	u4441
  6309  001396  EFCF  F009         	goto	u4440
  6310  00139A                     u4441:
  6311  00139A  EFFA  F009         	goto	l4581
  6312  00139E                     u4440:
  6313  00139E  0E01               	movlw	1
  6314  0013A0  260A               	addwf	___fladd@b^0,f,c
  6315  0013A2  0E00               	movlw	0
  6316  0013A4  220B               	addwfc	(___fladd@b+1)^0,f,c
  6317  0013A6  220C               	addwfc	(___fladd@b+2)^0,f,c
  6318  0013A8  220D               	addwfc	(___fladd@b+3)^0,f,c
  6319  0013AA  A00D               	btfss	(___fladd@b+3)^0,0,c
  6320  0013AC  EFDA  F009         	goto	u4451
  6321  0013B0  EFDC  F009         	goto	u4450
  6322  0013B4                     u4451:
  6323  0013B4  EFFA  F009         	goto	l4581
  6324  0013B8                     u4450:
  6325  0013B8  C00A  F012         	movff	___fladd@b,??___fladd
  6326  0013BC  C00B  F013         	movff	___fladd@b+1,??___fladd+1
  6327  0013C0  C00C  F014         	movff	___fladd@b+2,??___fladd+2
  6328  0013C4  C00D  F015         	movff	___fladd@b+3,??___fladd+3
  6329  0013C8  3415               	rlcf	(??___fladd+3)^0,w,c
  6330  0013CA  3215               	rrcf	(??___fladd+3)^0,f,c
  6331  0013CC  3214               	rrcf	(??___fladd+2)^0,f,c
  6332  0013CE  3213               	rrcf	(??___fladd+1)^0,f,c
  6333  0013D0  3212               	rrcf	??___fladd^0,f,c
  6334  0013D2  C012  F00A         	movff	??___fladd,___fladd@b
  6335  0013D6  C013  F00B         	movff	??___fladd+1,___fladd@b+1
  6336  0013DA  C014  F00C         	movff	??___fladd+2,___fladd@b+2
  6337  0013DE  C015  F00D         	movff	??___fladd+3,___fladd@b+3
  6338  0013E2  2818               	incf	___fladd@bexp^0,w,c
  6339  0013E4  B4D8               	btfsc	status,2,c
  6340  0013E6  EFF7  F009         	goto	u4461
  6341  0013EA  EFF9  F009         	goto	u4460
  6342  0013EE                     u4461:
  6343  0013EE  EFFA  F009         	goto	l4581
  6344  0013F2                     u4460:
  6345  0013F2  2A18               	incf	___fladd@bexp^0,f,c
  6346  0013F4                     l4581:
  6347  0013F4  2818               	incf	___fladd@bexp^0,w,c
  6348  0013F6  B4D8               	btfsc	status,2,c
  6349  0013F8  EF00  F00A         	goto	u4471
  6350  0013FC  EF02  F00A         	goto	u4470
  6351  001400                     u4471:
  6352  001400  EF0A  F00A         	goto	l4585
  6353  001404                     u4470:
  6354  001404  5018               	movf	___fladd@bexp^0,w,c
  6355  001406  A4D8               	btfss	status,2,c
  6356  001408  EF08  F00A         	goto	u4481
  6357  00140C  EF0A  F00A         	goto	u4480
  6358  001410                     u4481:
  6359  001410  EF1C  F00A         	goto	l4589
  6360  001414                     u4480:
  6361  001414                     l4585:
  6362  001414  0E00               	movlw	0
  6363  001416  6E0A               	movwf	___fladd@b^0,c
  6364  001418  0E00               	movlw	0
  6365  00141A  6E0B               	movwf	(___fladd@b+1)^0,c
  6366  00141C  0E00               	movlw	0
  6367  00141E  6E0C               	movwf	(___fladd@b+2)^0,c
  6368  001420  0E00               	movlw	0
  6369  001422  6E0D               	movwf	(___fladd@b+3)^0,c
  6370  001424  5018               	movf	___fladd@bexp^0,w,c
  6371  001426  A4D8               	btfss	status,2,c
  6372  001428  EF18  F00A         	goto	u4491
  6373  00142C  EF1A  F00A         	goto	u4490
  6374  001430                     u4491:
  6375  001430  EF1C  F00A         	goto	l4589
  6376  001434                     u4490:
  6377  001434  0E00               	movlw	0
  6378  001436  6E16               	movwf	___fladd@signs^0,c
  6379  001438                     l4589:
  6380  001438  A018               	btfss	___fladd@bexp^0,0,c
  6381  00143A  EF21  F00A         	goto	u4501
  6382  00143E  EF23  F00A         	goto	u4500
  6383  001442                     u4501:
  6384  001442  EF26  F00A         	goto	l4593
  6385  001446                     u4500:
  6386  001446  8E0C               	bsf	(___fladd@b+2)^0,7,c
  6387  001448  EF27  F00A         	goto	l4595
  6388  00144C                     l4593:
  6389  00144C  9E0C               	bcf	(___fladd@b+2)^0,7,c
  6390  00144E                     l4595:
  6391  00144E  90D8               	bcf	status,0,c
  6392  001450  3018               	rrcf	___fladd@bexp^0,w,c
  6393  001452  6E0D               	movwf	(___fladd@b+3)^0,c
  6394  001454  AE16               	btfss	___fladd@signs^0,7,c
  6395  001456  EF2F  F00A         	goto	u4511
  6396  00145A  EF31  F00A         	goto	u4510
  6397  00145E                     u4511:
  6398  00145E  EF32  F00A         	goto	l4601
  6399  001462                     u4510:
  6400  001462  8E0D               	bsf	(___fladd@b+3)^0,7,c
  6401  001464                     l4601:
  6402  001464  C00A  F00A         	movff	___fladd@b,?___fladd
  6403  001468  C00B  F00B         	movff	___fladd@b+1,?___fladd+1
  6404  00146C  C00C  F00C         	movff	___fladd@b+2,?___fladd+2
  6405  001470  C00D  F00D         	movff	___fladd@b+3,?___fladd+3
  6406  001474                     l923:
  6407  001474  0012               	return		;funcret
  6408  001476                     __end_of___fladd:
  6409                           	callstack 0
  6410                           
  6411 ;; *************** function ___flneg *****************
  6412 ;; Defined at:
  6413 ;;		line 15 in file "c:\PROGRA~1\MICROC~1\xc8\v2.32\pic\sources\c99\common\flneg.c"
  6414 ;; Parameters:    Size  Location     Type
  6415 ;;  f1              4    9[COMRAM] unsigned char 
  6416 ;; Auto vars:     Size  Location     Type
  6417 ;;		None
  6418 ;; Return value:  Size  Location     Type
  6419 ;;                  4    9[COMRAM] unsigned char 
  6420 ;; Registers used:
  6421 ;;		wreg, status,2, status,0
  6422 ;; Tracked objects:
  6423 ;;		On entry : 0/0
  6424 ;;		On exit  : 0/0
  6425 ;;		Unchanged: 0/0
  6426 ;; Data sizes:     COMRAM   BANK0   BANK1   BANK2   BANK3   BANK4   BANK5   BANK6   BANK7
  6427 ;;      Params:         4       0       0       0       0       0       0       0       0
  6428 ;;      Locals:         0       0       0       0       0       0       0       0       0
  6429 ;;      Temps:          0       0       0       0       0       0       0       0       0
  6430 ;;      Totals:         4       0       0       0       0       0       0       0       0
  6431 ;;Total ram usage:        4 bytes
  6432 ;; Hardware stack levels used: 1
  6433 ;; Hardware stack levels required when called: 2
  6434 ;; This function calls:
  6435 ;;		Nothing
  6436 ;; This function is called by:
  6437 ;;		_floatToString
  6438 ;; This function uses a non-reentrant model
  6439 ;;
  6440                           
  6441                           	psect	text18
  6442  002F90                     __ptext18:
  6443                           	callstack 0
  6444  002F90                     ___flneg:
  6445                           	callstack 26
  6446  002F90  500A               	movf	___flneg@f1^0,w,c
  6447  002F92  100B               	iorwf	(___flneg@f1+1)^0,w,c
  6448  002F94  100C               	iorwf	(___flneg@f1+2)^0,w,c
  6449  002F96  100D               	iorwf	(___flneg@f1+3)^0,w,c
  6450  002F98  B4D8               	btfsc	status,2,c
  6451  002F9A  EFD1  F017         	goto	u4831
  6452  002F9E  EFD3  F017         	goto	u4830
  6453  002FA2                     u4831:
  6454  002FA2  EFDB  F017         	goto	l4825
  6455  002FA6                     u4830:
  6456  002FA6  0E00               	movlw	0
  6457  002FA8  1A0A               	xorwf	___flneg@f1^0,f,c
  6458  002FAA  0E00               	movlw	0
  6459  002FAC  1A0B               	xorwf	(___flneg@f1+1)^0,f,c
  6460  002FAE  0E00               	movlw	0
  6461  002FB0  1A0C               	xorwf	(___flneg@f1+2)^0,f,c
  6462  002FB2  0E80               	movlw	128
  6463  002FB4  1A0D               	xorwf	(___flneg@f1+3)^0,f,c
  6464  002FB6                     l4825:
  6465  002FB6  C00A  F00A         	movff	___flneg@f1,?___flneg
  6466  002FBA  C00B  F00B         	movff	___flneg@f1+1,?___flneg+1
  6467  002FBE  C00C  F00C         	movff	___flneg@f1+2,?___flneg+2
  6468  002FC2  C00D  F00D         	movff	___flneg@f1+3,?___flneg+3
  6469  002FC6  0012               	return		;funcret
  6470  002FC8                     __end_of___flneg:
  6471                           	callstack 0
  6472                           
  6473 ;; *************** function ___flmul *****************
  6474 ;; Defined at:
  6475 ;;		line 8 in file "c:\PROGRA~1\MICROC~1\xc8\v2.32\pic\sources\c99\common\sprcmul.c"
  6476 ;; Parameters:    Size  Location     Type
  6477 ;;  b               4   23[COMRAM] unsigned char 
  6478 ;;  a               4   27[COMRAM] unsigned char 
  6479 ;; Auto vars:     Size  Location     Type
  6480 ;;  prod            4   42[COMRAM] struct .
  6481 ;;  grs             4   37[COMRAM] unsigned long 
  6482 ;;  temp            2   46[COMRAM] struct .
  6483 ;;  bexp            1   41[COMRAM] unsigned char 
  6484 ;;  aexp            1   36[COMRAM] unsigned char 
  6485 ;;  sign            1   35[COMRAM] unsigned char 
  6486 ;; Return value:  Size  Location     Type
  6487 ;;                  4   23[COMRAM] unsigned char 
  6488 ;; Registers used:
  6489 ;;		wreg, status,2, status,0, prodl, prodh
  6490 ;; Tracked objects:
  6491 ;;		On entry : 0/0
  6492 ;;		On exit  : 0/0
  6493 ;;		Unchanged: 0/0
  6494 ;; Data sizes:     COMRAM   BANK0   BANK1   BANK2   BANK3   BANK4   BANK5   BANK6   BANK7
  6495 ;;      Params:         8       0       0       0       0       0       0       0       0
  6496 ;;      Locals:        13       0       0       0       0       0       0       0       0
  6497 ;;      Temps:          4       0       0       0       0       0       0       0       0
  6498 ;;      Totals:        25       0       0       0       0       0       0       0       0
  6499 ;;Total ram usage:       25 bytes
  6500 ;; Hardware stack levels used: 1
  6501 ;; Hardware stack levels required when called: 2
  6502 ;; This function calls:
  6503 ;;		Nothing
  6504 ;; This function is called by:
  6505 ;;		_tempRead
  6506 ;;		_humidade
  6507 ;;		_gasRead
  6508 ;;		_floatToString
  6509 ;; This function uses a non-reentrant model
  6510 ;;
  6511                           
  6512                           	psect	text19
  6513  001476                     __ptext19:
  6514                           	callstack 0
  6515  001476                     ___flmul:
  6516                           	callstack 27
  6517  001476  501B               	movf	(___flmul@b+3)^0,w,c
  6518  001478  0B80               	andlw	128
  6519  00147A  6E24               	movwf	___flmul@sign^0,c
  6520  00147C  501B               	movf	(___flmul@b+3)^0,w,c
  6521  00147E  241B               	addwf	(___flmul@b+3)^0,w,c
  6522  001480  6E2A               	movwf	___flmul@bexp^0,c
  6523  001482  AE1A               	btfss	(___flmul@b+2)^0,7,c
  6524  001484  EF46  F00A         	goto	u4521
  6525  001488  EF48  F00A         	goto	u4520
  6526  00148C                     u4521:
  6527  00148C  EF49  F00A         	goto	l4611
  6528  001490                     u4520:
  6529  001490  802A               	bsf	___flmul@bexp^0,0,c
  6530  001492                     l4611:
  6531  001492  502A               	movf	___flmul@bexp^0,w,c
  6532  001494  B4D8               	btfsc	status,2,c
  6533  001496  EF4F  F00A         	goto	u4531
  6534  00149A  EF51  F00A         	goto	u4530
  6535  00149E                     u4531:
  6536  00149E  EF64  F00A         	goto	l4619
  6537  0014A2                     u4530:
  6538  0014A2  282A               	incf	___flmul@bexp^0,w,c
  6539  0014A4  A4D8               	btfss	status,2,c
  6540  0014A6  EF57  F00A         	goto	u4541
  6541  0014AA  EF59  F00A         	goto	u4540
  6542  0014AE                     u4541:
  6543  0014AE  EF61  F00A         	goto	l4617
  6544  0014B2                     u4540:
  6545  0014B2  0E00               	movlw	0
  6546  0014B4  6E18               	movwf	___flmul@b^0,c
  6547  0014B6  0E00               	movlw	0
  6548  0014B8  6E19               	movwf	(___flmul@b+1)^0,c
  6549  0014BA  0E00               	movlw	0
  6550  0014BC  6E1A               	movwf	(___flmul@b+2)^0,c
  6551  0014BE  0E00               	movlw	0
  6552  0014C0  6E1B               	movwf	(___flmul@b+3)^0,c
  6553  0014C2                     l4617:
  6554  0014C2  8E1A               	bsf	(___flmul@b+2)^0,7,c
  6555  0014C4  EF6C  F00A         	goto	l4621
  6556  0014C8                     l4619:
  6557  0014C8  0E00               	movlw	0
  6558  0014CA  6E18               	movwf	___flmul@b^0,c
  6559  0014CC  0E00               	movlw	0
  6560  0014CE  6E19               	movwf	(___flmul@b+1)^0,c
  6561  0014D0  0E00               	movlw	0
  6562  0014D2  6E1A               	movwf	(___flmul@b+2)^0,c
  6563  0014D4  0E00               	movlw	0
  6564  0014D6  6E1B               	movwf	(___flmul@b+3)^0,c
  6565  0014D8                     l4621:
  6566  0014D8  501F               	movf	(___flmul@a+3)^0,w,c
  6567  0014DA  0B80               	andlw	128
  6568  0014DC  1A24               	xorwf	___flmul@sign^0,f,c
  6569  0014DE  501F               	movf	(___flmul@a+3)^0,w,c
  6570  0014E0  241F               	addwf	(___flmul@a+3)^0,w,c
  6571  0014E2  6E25               	movwf	___flmul@aexp^0,c
  6572  0014E4  AE1E               	btfss	(___flmul@a+2)^0,7,c
  6573  0014E6  EF77  F00A         	goto	u4551
  6574  0014EA  EF79  F00A         	goto	u4550
  6575  0014EE                     u4551:
  6576  0014EE  EF7A  F00A         	goto	l4629
  6577  0014F2                     u4550:
  6578  0014F2  8025               	bsf	___flmul@aexp^0,0,c
  6579  0014F4                     l4629:
  6580  0014F4  5025               	movf	___flmul@aexp^0,w,c
  6581  0014F6  B4D8               	btfsc	status,2,c
  6582  0014F8  EF80  F00A         	goto	u4561
  6583  0014FC  EF82  F00A         	goto	u4560
  6584  001500                     u4561:
  6585  001500  EF95  F00A         	goto	l4637
  6586  001504                     u4560:
  6587  001504  2825               	incf	___flmul@aexp^0,w,c
  6588  001506  A4D8               	btfss	status,2,c
  6589  001508  EF88  F00A         	goto	u4571
  6590  00150C  EF8A  F00A         	goto	u4570
  6591  001510                     u4571:
  6592  001510  EF92  F00A         	goto	l4635
  6593  001514                     u4570:
  6594  001514  0E00               	movlw	0
  6595  001516  6E1C               	movwf	___flmul@a^0,c
  6596  001518  0E00               	movlw	0
  6597  00151A  6E1D               	movwf	(___flmul@a+1)^0,c
  6598  00151C  0E00               	movlw	0
  6599  00151E  6E1E               	movwf	(___flmul@a+2)^0,c
  6600  001520  0E00               	movlw	0
  6601  001522  6E1F               	movwf	(___flmul@a+3)^0,c
  6602  001524                     l4635:
  6603  001524  8E1E               	bsf	(___flmul@a+2)^0,7,c
  6604  001526  EF9D  F00A         	goto	l1000
  6605  00152A                     l4637:
  6606  00152A  0E00               	movlw	0
  6607  00152C  6E1C               	movwf	___flmul@a^0,c
  6608  00152E  0E00               	movlw	0
  6609  001530  6E1D               	movwf	(___flmul@a+1)^0,c
  6610  001532  0E00               	movlw	0
  6611  001534  6E1E               	movwf	(___flmul@a+2)^0,c
  6612  001536  0E00               	movlw	0
  6613  001538  6E1F               	movwf	(___flmul@a+3)^0,c
  6614  00153A                     l1000:
  6615  00153A  5025               	movf	___flmul@aexp^0,w,c
  6616  00153C  B4D8               	btfsc	status,2,c
  6617  00153E  EFA3  F00A         	goto	u4581
  6618  001542  EFA5  F00A         	goto	u4580
  6619  001546                     u4581:
  6620  001546  EFAD  F00A         	goto	l4641
  6621  00154A                     u4580:
  6622  00154A  502A               	movf	___flmul@bexp^0,w,c
  6623  00154C  A4D8               	btfss	status,2,c
  6624  00154E  EFAB  F00A         	goto	u4591
  6625  001552  EFAD  F00A         	goto	u4590
  6626  001556                     u4591:
  6627  001556  EFB7  F00A         	goto	l4645
  6628  00155A                     u4590:
  6629  00155A                     l4641:
  6630  00155A  0E00               	movlw	0
  6631  00155C  6E18               	movwf	?___flmul^0,c
  6632  00155E  0E00               	movlw	0
  6633  001560  6E19               	movwf	(?___flmul+1)^0,c
  6634  001562  0E00               	movlw	0
  6635  001564  6E1A               	movwf	(?___flmul+2)^0,c
  6636  001566  0E00               	movlw	0
  6637  001568  6E1B               	movwf	(?___flmul+3)^0,c
  6638  00156A  EF4F  F00C         	goto	l1004
  6639  00156E                     l4645:
  6640  00156E  501E               	movf	(___flmul@a+2)^0,w,c
  6641  001570  0218               	mulwf	___flmul@b^0,c
  6642  001572  CFF3 F02F          	movff	prodl,___flmul@temp
  6643  001576  CFF4 F030          	movff	prodh,___flmul@temp+1
  6644  00157A  502F               	movf	___flmul@temp^0,w,c
  6645  00157C  6E26               	movwf	___flmul@grs^0,c
  6646  00157E  6A27               	clrf	(___flmul@grs+1)^0,c
  6647  001580  6A28               	clrf	(___flmul@grs+2)^0,c
  6648  001582  6A29               	clrf	(___flmul@grs+3)^0,c
  6649  001584  5030               	movf	(___flmul@temp+1)^0,w,c
  6650  001586  6E2B               	movwf	___flmul@prod^0,c
  6651  001588  6A2C               	clrf	(___flmul@prod+1)^0,c
  6652  00158A  6A2D               	clrf	(___flmul@prod+2)^0,c
  6653  00158C  6A2E               	clrf	(___flmul@prod+3)^0,c
  6654  00158E  501D               	movf	(___flmul@a+1)^0,w,c
  6655  001590  0219               	mulwf	(___flmul@b+1)^0,c
  6656  001592  CFF3 F02F          	movff	prodl,___flmul@temp
  6657  001596  CFF4 F030          	movff	prodh,___flmul@temp+1
  6658  00159A  502F               	movf	___flmul@temp^0,w,c
  6659  00159C  2626               	addwf	___flmul@grs^0,f,c
  6660  00159E  0E00               	movlw	0
  6661  0015A0  2227               	addwfc	(___flmul@grs+1)^0,f,c
  6662  0015A2  2228               	addwfc	(___flmul@grs+2)^0,f,c
  6663  0015A4  2229               	addwfc	(___flmul@grs+3)^0,f,c
  6664  0015A6  5030               	movf	(___flmul@temp+1)^0,w,c
  6665  0015A8  262B               	addwf	___flmul@prod^0,f,c
  6666  0015AA  0E00               	movlw	0
  6667  0015AC  222C               	addwfc	(___flmul@prod+1)^0,f,c
  6668  0015AE  222D               	addwfc	(___flmul@prod+2)^0,f,c
  6669  0015B0  222E               	addwfc	(___flmul@prod+3)^0,f,c
  6670  0015B2  501C               	movf	___flmul@a^0,w,c
  6671  0015B4  021A               	mulwf	(___flmul@b+2)^0,c
  6672  0015B6  CFF3 F02F          	movff	prodl,___flmul@temp
  6673  0015BA  CFF4 F030          	movff	prodh,___flmul@temp+1
  6674  0015BE  502F               	movf	___flmul@temp^0,w,c
  6675  0015C0  2626               	addwf	___flmul@grs^0,f,c
  6676  0015C2  0E00               	movlw	0
  6677  0015C4  2227               	addwfc	(___flmul@grs+1)^0,f,c
  6678  0015C6  2228               	addwfc	(___flmul@grs+2)^0,f,c
  6679  0015C8  2229               	addwfc	(___flmul@grs+3)^0,f,c
  6680  0015CA  5030               	movf	(___flmul@temp+1)^0,w,c
  6681  0015CC  262B               	addwf	___flmul@prod^0,f,c
  6682  0015CE  0E00               	movlw	0
  6683  0015D0  222C               	addwfc	(___flmul@prod+1)^0,f,c
  6684  0015D2  222D               	addwfc	(___flmul@prod+2)^0,f,c
  6685  0015D4  222E               	addwfc	(___flmul@prod+3)^0,f,c
  6686  0015D6  C028  F029         	movff	___flmul@grs+2,___flmul@grs+3
  6687  0015DA  C027  F028         	movff	___flmul@grs+1,___flmul@grs+2
  6688  0015DE  C026  F027         	movff	___flmul@grs,___flmul@grs+1
  6689  0015E2  6A26               	clrf	___flmul@grs^0,c
  6690  0015E4  501C               	movf	___flmul@a^0,w,c
  6691  0015E6  0219               	mulwf	(___flmul@b+1)^0,c
  6692  0015E8  CFF3 F02F          	movff	prodl,___flmul@temp
  6693  0015EC  CFF4 F030          	movff	prodh,___flmul@temp+1
  6694  0015F0  502F               	movf	___flmul@temp^0,w,c
  6695  0015F2  2626               	addwf	___flmul@grs^0,f,c
  6696  0015F4  5030               	movf	(___flmul@temp+1)^0,w,c
  6697  0015F6  2227               	addwfc	(___flmul@grs+1)^0,f,c
  6698  0015F8  0E00               	movlw	0
  6699  0015FA  2228               	addwfc	(___flmul@grs+2)^0,f,c
  6700  0015FC  0E00               	movlw	0
  6701  0015FE  2229               	addwfc	(___flmul@grs+3)^0,f,c
  6702  001600  501D               	movf	(___flmul@a+1)^0,w,c
  6703  001602  0218               	mulwf	___flmul@b^0,c
  6704  001604  CFF3 F02F          	movff	prodl,___flmul@temp
  6705  001608  CFF4 F030          	movff	prodh,___flmul@temp+1
  6706  00160C  502F               	movf	___flmul@temp^0,w,c
  6707  00160E  2626               	addwf	___flmul@grs^0,f,c
  6708  001610  5030               	movf	(___flmul@temp+1)^0,w,c
  6709  001612  2227               	addwfc	(___flmul@grs+1)^0,f,c
  6710  001614  0E00               	movlw	0
  6711  001616  2228               	addwfc	(___flmul@grs+2)^0,f,c
  6712  001618  0E00               	movlw	0
  6713  00161A  2229               	addwfc	(___flmul@grs+3)^0,f,c
  6714  00161C  C028  F029         	movff	___flmul@grs+2,___flmul@grs+3
  6715  001620  C027  F028         	movff	___flmul@grs+1,___flmul@grs+2
  6716  001624  C026  F027         	movff	___flmul@grs,___flmul@grs+1
  6717  001628  6A26               	clrf	___flmul@grs^0,c
  6718  00162A  501C               	movf	___flmul@a^0,w,c
  6719  00162C  0218               	mulwf	___flmul@b^0,c
  6720  00162E  CFF3 F02F          	movff	prodl,___flmul@temp
  6721  001632  CFF4 F030          	movff	prodh,___flmul@temp+1
  6722  001636  502F               	movf	___flmul@temp^0,w,c
  6723  001638  2626               	addwf	___flmul@grs^0,f,c
  6724  00163A  5030               	movf	(___flmul@temp+1)^0,w,c
  6725  00163C  2227               	addwfc	(___flmul@grs+1)^0,f,c
  6726  00163E  0E00               	movlw	0
  6727  001640  2228               	addwfc	(___flmul@grs+2)^0,f,c
  6728  001642  0E00               	movlw	0
  6729  001644  2229               	addwfc	(___flmul@grs+3)^0,f,c
  6730  001646  501E               	movf	(___flmul@a+2)^0,w,c
  6731  001648  0219               	mulwf	(___flmul@b+1)^0,c
  6732  00164A  CFF3 F02F          	movff	prodl,___flmul@temp
  6733  00164E  CFF4 F030          	movff	prodh,___flmul@temp+1
  6734  001652  502F               	movf	___flmul@temp^0,w,c
  6735  001654  262B               	addwf	___flmul@prod^0,f,c
  6736  001656  5030               	movf	(___flmul@temp+1)^0,w,c
  6737  001658  222C               	addwfc	(___flmul@prod+1)^0,f,c
  6738  00165A  0E00               	movlw	0
  6739  00165C  222D               	addwfc	(___flmul@prod+2)^0,f,c
  6740  00165E  0E00               	movlw	0
  6741  001660  222E               	addwfc	(___flmul@prod+3)^0,f,c
  6742  001662  501D               	movf	(___flmul@a+1)^0,w,c
  6743  001664  021A               	mulwf	(___flmul@b+2)^0,c
  6744  001666  CFF3 F02F          	movff	prodl,___flmul@temp
  6745  00166A  CFF4 F030          	movff	prodh,___flmul@temp+1
  6746  00166E  502F               	movf	___flmul@temp^0,w,c
  6747  001670  262B               	addwf	___flmul@prod^0,f,c
  6748  001672  5030               	movf	(___flmul@temp+1)^0,w,c
  6749  001674  222C               	addwfc	(___flmul@prod+1)^0,f,c
  6750  001676  0E00               	movlw	0
  6751  001678  222D               	addwfc	(___flmul@prod+2)^0,f,c
  6752  00167A  0E00               	movlw	0
  6753  00167C  222E               	addwfc	(___flmul@prod+3)^0,f,c
  6754  00167E  501E               	movf	(___flmul@a+2)^0,w,c
  6755  001680  021A               	mulwf	(___flmul@b+2)^0,c
  6756  001682  CFF3 F02F          	movff	prodl,___flmul@temp
  6757  001686  CFF4 F030          	movff	prodh,___flmul@temp+1
  6758  00168A  502F               	movf	___flmul@temp^0,w,c
  6759  00168C  6E20               	movwf	??___flmul^0,c
  6760  00168E  5030               	movf	(___flmul@temp+1)^0,w,c
  6761  001690  6E21               	movwf	(??___flmul+1)^0,c
  6762  001692  6A22               	clrf	(??___flmul+2)^0,c
  6763  001694  6A23               	clrf	(??___flmul+3)^0,c
  6764  001696  C022  F023         	movff	??___flmul+2,??___flmul+3
  6765  00169A  C021  F022         	movff	??___flmul+1,??___flmul+2
  6766  00169E  C020  F021         	movff	??___flmul,??___flmul+1
  6767  0016A2  6A20               	clrf	??___flmul^0,c
  6768  0016A4  5020               	movf	??___flmul^0,w,c
  6769  0016A6  262B               	addwf	___flmul@prod^0,f,c
  6770  0016A8  5021               	movf	(??___flmul+1)^0,w,c
  6771  0016AA  222C               	addwfc	(___flmul@prod+1)^0,f,c
  6772  0016AC  5022               	movf	(??___flmul+2)^0,w,c
  6773  0016AE  222D               	addwfc	(___flmul@prod+2)^0,f,c
  6774  0016B0  5023               	movf	(??___flmul+3)^0,w,c
  6775  0016B2  222E               	addwfc	(___flmul@prod+3)^0,f,c
  6776  0016B4  C026  F020         	movff	___flmul@grs,??___flmul
  6777  0016B8  C027  F021         	movff	___flmul@grs+1,??___flmul+1
  6778  0016BC  C028  F022         	movff	___flmul@grs+2,??___flmul+2
  6779  0016C0  C029  F023         	movff	___flmul@grs+3,??___flmul+3
  6780  0016C4  0E19               	movlw	25
  6781  0016C6  EF6A  F00B         	goto	u4600
  6782  0016CA                     u4605:
  6783  0016CA  90D8               	bcf	status,0,c
  6784  0016CC  3223               	rrcf	(??___flmul+3)^0,f,c
  6785  0016CE  3222               	rrcf	(??___flmul+2)^0,f,c
  6786  0016D0  3221               	rrcf	(??___flmul+1)^0,f,c
  6787  0016D2  3220               	rrcf	??___flmul^0,f,c
  6788  0016D4                     u4600:
  6789  0016D4  2EE8               	decfsz	wreg,f,c
  6790  0016D6  EF65  F00B         	goto	u4605
  6791  0016DA  5020               	movf	??___flmul^0,w,c
  6792  0016DC  262B               	addwf	___flmul@prod^0,f,c
  6793  0016DE  5021               	movf	(??___flmul+1)^0,w,c
  6794  0016E0  222C               	addwfc	(___flmul@prod+1)^0,f,c
  6795  0016E2  5022               	movf	(??___flmul+2)^0,w,c
  6796  0016E4  222D               	addwfc	(___flmul@prod+2)^0,f,c
  6797  0016E6  5023               	movf	(??___flmul+3)^0,w,c
  6798  0016E8  222E               	addwfc	(___flmul@prod+3)^0,f,c
  6799  0016EA  C028  F029         	movff	___flmul@grs+2,___flmul@grs+3
  6800  0016EE  C027  F028         	movff	___flmul@grs+1,___flmul@grs+2
  6801  0016F2  C026  F027         	movff	___flmul@grs,___flmul@grs+1
  6802  0016F6  6A26               	clrf	___flmul@grs^0,c
  6803  0016F8  5025               	movf	___flmul@aexp^0,w,c
  6804  0016FA  C02A  F020         	movff	___flmul@bexp,??___flmul
  6805  0016FE  6A21               	clrf	(??___flmul+1)^0,c
  6806  001700  2620               	addwf	??___flmul^0,f,c
  6807  001702  0E00               	movlw	0
  6808  001704  2221               	addwfc	(??___flmul+1)^0,f,c
  6809  001706  0E82               	movlw	130
  6810  001708  2420               	addwf	??___flmul^0,w,c
  6811  00170A  6E2F               	movwf	___flmul@temp^0,c
  6812  00170C  0EFF               	movlw	255
  6813  00170E  2021               	addwfc	(??___flmul+1)^0,w,c
  6814  001710  6E30               	movwf	(___flmul@temp+1)^0,c
  6815  001712  EFA0  F00B         	goto	l4693
  6816  001716                     l4687:
  6817  001716  90D8               	bcf	status,0,c
  6818  001718  362B               	rlcf	___flmul@prod^0,f,c
  6819  00171A  362C               	rlcf	(___flmul@prod+1)^0,f,c
  6820  00171C  362D               	rlcf	(___flmul@prod+2)^0,f,c
  6821  00171E  362E               	rlcf	(___flmul@prod+3)^0,f,c
  6822  001720  AE29               	btfss	(___flmul@grs+3)^0,7,c
  6823  001722  EF95  F00B         	goto	u4611
  6824  001726  EF97  F00B         	goto	u4610
  6825  00172A                     u4611:
  6826  00172A  EF98  F00B         	goto	l1007
  6827  00172E                     u4610:
  6828  00172E  802B               	bsf	___flmul@prod^0,0,c
  6829  001730                     l1007:
  6830  001730  90D8               	bcf	status,0,c
  6831  001732  3626               	rlcf	___flmul@grs^0,f,c
  6832  001734  3627               	rlcf	(___flmul@grs+1)^0,f,c
  6833  001736  3628               	rlcf	(___flmul@grs+2)^0,f,c
  6834  001738  3629               	rlcf	(___flmul@grs+3)^0,f,c
  6835  00173A  062F               	decf	___flmul@temp^0,f,c
  6836  00173C  A0D8               	btfss	status,0,c
  6837  00173E  0630               	decf	(___flmul@temp+1)^0,f,c
  6838  001740                     l4693:
  6839  001740  AE2D               	btfss	(___flmul@prod+2)^0,7,c
  6840  001742  EFA5  F00B         	goto	u4621
  6841  001746  EFA7  F00B         	goto	u4620
  6842  00174A                     u4621:
  6843  00174A  EF8B  F00B         	goto	l4687
  6844  00174E                     u4620:
  6845  00174E  0E00               	movlw	0
  6846  001750  6E25               	movwf	___flmul@aexp^0,c
  6847  001752  AE29               	btfss	(___flmul@grs+3)^0,7,c
  6848  001754  EFAE  F00B         	goto	u4631
  6849  001758  EFB0  F00B         	goto	u4630
  6850  00175C                     u4631:
  6851  00175C  EFD4  F00B         	goto	l1009
  6852  001760                     u4630:
  6853  001760  0EFF               	movlw	255
  6854  001762  1426               	andwf	___flmul@grs^0,w,c
  6855  001764  6E20               	movwf	??___flmul^0,c
  6856  001766  0EFF               	movlw	255
  6857  001768  1427               	andwf	(___flmul@grs+1)^0,w,c
  6858  00176A  6E21               	movwf	(??___flmul+1)^0,c
  6859  00176C  0EFF               	movlw	255
  6860  00176E  1428               	andwf	(___flmul@grs+2)^0,w,c
  6861  001770  6E22               	movwf	(??___flmul+2)^0,c
  6862  001772  0E7F               	movlw	127
  6863  001774  1429               	andwf	(___flmul@grs+3)^0,w,c
  6864  001776  6E23               	movwf	(??___flmul+3)^0,c
  6865  001778  5020               	movf	??___flmul^0,w,c
  6866  00177A  1021               	iorwf	(??___flmul+1)^0,w,c
  6867  00177C  1022               	iorwf	(??___flmul+2)^0,w,c
  6868  00177E  1023               	iorwf	(??___flmul+3)^0,w,c
  6869  001780  B4D8               	btfsc	status,2,c
  6870  001782  EFC5  F00B         	goto	u4641
  6871  001786  EFC7  F00B         	goto	u4640
  6872  00178A                     u4641:
  6873  00178A  EFCB  F00B         	goto	l1010
  6874  00178E                     u4640:
  6875  00178E                     l4701:
  6876  00178E  0E01               	movlw	1
  6877  001790  6E25               	movwf	___flmul@aexp^0,c
  6878  001792  EFD4  F00B         	goto	l1009
  6879  001796                     l1010:
  6880  001796  A02B               	btfss	___flmul@prod^0,0,c
  6881  001798  EFD0  F00B         	goto	u4651
  6882  00179C  EFD2  F00B         	goto	u4650
  6883  0017A0                     u4651:
  6884  0017A0  EFD4  F00B         	goto	l1009
  6885  0017A4                     u4650:
  6886  0017A4  EFC7  F00B         	goto	l4701
  6887  0017A8                     l1009:
  6888  0017A8  5025               	movf	___flmul@aexp^0,w,c
  6889  0017AA  B4D8               	btfsc	status,2,c
  6890  0017AC  EFDA  F00B         	goto	u4661
  6891  0017B0  EFDC  F00B         	goto	u4660
  6892  0017B4                     u4661:
  6893  0017B4  EF00  F00C         	goto	l4713
  6894  0017B8                     u4660:
  6895  0017B8  0E01               	movlw	1
  6896  0017BA  262B               	addwf	___flmul@prod^0,f,c
  6897  0017BC  0E00               	movlw	0
  6898  0017BE  222C               	addwfc	(___flmul@prod+1)^0,f,c
  6899  0017C0  222D               	addwfc	(___flmul@prod+2)^0,f,c
  6900  0017C2  222E               	addwfc	(___flmul@prod+3)^0,f,c
  6901  0017C4  A02E               	btfss	(___flmul@prod+3)^0,0,c
  6902  0017C6  EFE7  F00B         	goto	u4671
  6903  0017CA  EFE9  F00B         	goto	u4670
  6904  0017CE                     u4671:
  6905  0017CE  EF00  F00C         	goto	l4713
  6906  0017D2                     u4670:
  6907  0017D2  C02B  F020         	movff	___flmul@prod,??___flmul
  6908  0017D6  C02C  F021         	movff	___flmul@prod+1,??___flmul+1
  6909  0017DA  C02D  F022         	movff	___flmul@prod+2,??___flmul+2
  6910  0017DE  C02E  F023         	movff	___flmul@prod+3,??___flmul+3
  6911  0017E2  3423               	rlcf	(??___flmul+3)^0,w,c
  6912  0017E4  3223               	rrcf	(??___flmul+3)^0,f,c
  6913  0017E6  3222               	rrcf	(??___flmul+2)^0,f,c
  6914  0017E8  3221               	rrcf	(??___flmul+1)^0,f,c
  6915  0017EA  3220               	rrcf	??___flmul^0,f,c
  6916  0017EC  C020  F02B         	movff	??___flmul,___flmul@prod
  6917  0017F0  C021  F02C         	movff	??___flmul+1,___flmul@prod+1
  6918  0017F4  C022  F02D         	movff	??___flmul+2,___flmul@prod+2
  6919  0017F8  C023  F02E         	movff	??___flmul+3,___flmul@prod+3
  6920  0017FC  4A2F               	infsnz	___flmul@temp^0,f,c
  6921  0017FE  2A30               	incf	(___flmul@temp+1)^0,f,c
  6922  001800                     l4713:
  6923  001800  BE30               	btfsc	(___flmul@temp+1)^0,7,c
  6924  001802  EF0B  F00C         	goto	u4681
  6925  001806  5030               	movf	(___flmul@temp+1)^0,w,c
  6926  001808  E108               	bnz	u4680
  6927  00180A  282F               	incf	___flmul@temp^0,w,c
  6928  00180C  A0D8               	btfss	status,0,c
  6929  00180E  EF0B  F00C         	goto	u4681
  6930  001812  EF0D  F00C         	goto	u4680
  6931  001816                     u4681:
  6932  001816  EF17  F00C         	goto	l4717
  6933  00181A                     u4680:
  6934  00181A  0E00               	movlw	0
  6935  00181C  6E2B               	movwf	___flmul@prod^0,c
  6936  00181E  0E00               	movlw	0
  6937  001820  6E2C               	movwf	(___flmul@prod+1)^0,c
  6938  001822  0E80               	movlw	128
  6939  001824  6E2D               	movwf	(___flmul@prod+2)^0,c
  6940  001826  0E7F               	movlw	127
  6941  001828  6E2E               	movwf	(___flmul@prod+3)^0,c
  6942  00182A  EF45  F00C         	goto	l4729
  6943  00182E                     l4717:
  6944  00182E  BE30               	btfsc	(___flmul@temp+1)^0,7,c
  6945  001830  EF24  F00C         	goto	u4690
  6946  001834  5030               	movf	(___flmul@temp+1)^0,w,c
  6947  001836  E106               	bnz	u4691
  6948  001838  042F               	decf	___flmul@temp^0,w,c
  6949  00183A  B0D8               	btfsc	status,0,c
  6950  00183C  EF22  F00C         	goto	u4691
  6951  001840  EF24  F00C         	goto	u4690
  6952  001844                     u4691:
  6953  001844  EF30  F00C         	goto	l1017
  6954  001848                     u4690:
  6955  001848  0E00               	movlw	0
  6956  00184A  6E2B               	movwf	___flmul@prod^0,c
  6957  00184C  0E00               	movlw	0
  6958  00184E  6E2C               	movwf	(___flmul@prod+1)^0,c
  6959  001850  0E00               	movlw	0
  6960  001852  6E2D               	movwf	(___flmul@prod+2)^0,c
  6961  001854  0E00               	movlw	0
  6962  001856  6E2E               	movwf	(___flmul@prod+3)^0,c
  6963  001858  0E00               	movlw	0
  6964  00185A  6E24               	movwf	___flmul@sign^0,c
  6965  00185C  EF45  F00C         	goto	l4729
  6966  001860                     l1017:
  6967  001860  C02F  F02A         	movff	___flmul@temp,___flmul@bexp
  6968  001864  0EFF               	movlw	255
  6969  001866  162B               	andwf	___flmul@prod^0,f,c
  6970  001868  0EFF               	movlw	255
  6971  00186A  162C               	andwf	(___flmul@prod+1)^0,f,c
  6972  00186C  0E7F               	movlw	127
  6973  00186E  162D               	andwf	(___flmul@prod+2)^0,f,c
  6974  001870  0E00               	movlw	0
  6975  001872  162E               	andwf	(___flmul@prod+3)^0,f,c
  6976  001874  A02A               	btfss	___flmul@bexp^0,0,c
  6977  001876  EF3F  F00C         	goto	u4701
  6978  00187A  EF41  F00C         	goto	u4700
  6979  00187E                     u4701:
  6980  00187E  EF42  F00C         	goto	l4727
  6981  001882                     u4700:
  6982  001882  8E2D               	bsf	(___flmul@prod+2)^0,7,c
  6983  001884                     l4727:
  6984  001884  90D8               	bcf	status,0,c
  6985  001886  302A               	rrcf	___flmul@bexp^0,w,c
  6986  001888  6E2E               	movwf	(___flmul@prod+3)^0,c
  6987  00188A                     l4729:
  6988  00188A  5024               	movf	___flmul@sign^0,w,c
  6989  00188C  122E               	iorwf	(___flmul@prod+3)^0,f,c
  6990  00188E  C02B  F018         	movff	___flmul@prod,?___flmul
  6991  001892  C02C  F019         	movff	___flmul@prod+1,?___flmul+1
  6992  001896  C02D  F01A         	movff	___flmul@prod+2,?___flmul+2
  6993  00189A  C02E  F01B         	movff	___flmul@prod+3,?___flmul+3
  6994  00189E                     l1004:
  6995  00189E  0012               	return		;funcret
  6996  0018A0                     __end_of___flmul:
  6997                           	callstack 0
  6998                           
  6999 ;; *************** function ___awmod *****************
  7000 ;; Defined at:
  7001 ;;		line 7 in file "c:\PROGRA~1\MICROC~1\xc8\v2.32\pic\sources\c99\common\awmod.c"
  7002 ;; Parameters:    Size  Location     Type
  7003 ;;  dividend        2    9[COMRAM] int 
  7004 ;;  divisor         2   11[COMRAM] int 
  7005 ;; Auto vars:     Size  Location     Type
  7006 ;;  sign            1   14[COMRAM] unsigned char 
  7007 ;;  counter         1   13[COMRAM] unsigned char 
  7008 ;; Return value:  Size  Location     Type
  7009 ;;                  2    9[COMRAM] int 
  7010 ;; Registers used:
  7011 ;;		wreg, status,2, status,0
  7012 ;; Tracked objects:
  7013 ;;		On entry : 0/0
  7014 ;;		On exit  : 0/0
  7015 ;;		Unchanged: 0/0
  7016 ;; Data sizes:     COMRAM   BANK0   BANK1   BANK2   BANK3   BANK4   BANK5   BANK6   BANK7
  7017 ;;      Params:         4       0       0       0       0       0       0       0       0
  7018 ;;      Locals:         2       0       0       0       0       0       0       0       0
  7019 ;;      Temps:          0       0       0       0       0       0       0       0       0
  7020 ;;      Totals:         6       0       0       0       0       0       0       0       0
  7021 ;;Total ram usage:        6 bytes
  7022 ;; Hardware stack levels used: 1
  7023 ;; Hardware stack levels required when called: 2
  7024 ;; This function calls:
  7025 ;;		Nothing
  7026 ;; This function is called by:
  7027 ;;		_itoa
  7028 ;;		_floatToString
  7029 ;; This function uses a non-reentrant model
  7030 ;;
  7031                           
  7032                           	psect	text20
  7033  002AF0                     __ptext20:
  7034                           	callstack 0
  7035  002AF0                     ___awmod:
  7036                           	callstack 26
  7037  002AF0  0E00               	movlw	0
  7038  002AF2  6E0F               	movwf	___awmod@sign^0,c
  7039  002AF4  BE0B               	btfsc	(___awmod@dividend+1)^0,7,c
  7040  002AF6  EF81  F015         	goto	u4770
  7041  002AFA  EF7F  F015         	goto	u4771
  7042  002AFE                     u4771:
  7043  002AFE  EF87  F015         	goto	l4793
  7044  002B02                     u4770:
  7045  002B02  6C0A               	negf	___awmod@dividend^0,c
  7046  002B04  1E0B               	comf	(___awmod@dividend+1)^0,f,c
  7047  002B06  B0D8               	btfsc	status,0,c
  7048  002B08  2A0B               	incf	(___awmod@dividend+1)^0,f,c
  7049  002B0A  0E01               	movlw	1
  7050  002B0C  6E0F               	movwf	___awmod@sign^0,c
  7051  002B0E                     l4793:
  7052  002B0E  BE0D               	btfsc	(___awmod@divisor+1)^0,7,c
  7053  002B10  EF8E  F015         	goto	u4780
  7054  002B14  EF8C  F015         	goto	u4781
  7055  002B18                     u4781:
  7056  002B18  EF92  F015         	goto	l4797
  7057  002B1C                     u4780:
  7058  002B1C  6C0C               	negf	___awmod@divisor^0,c
  7059  002B1E  1E0D               	comf	(___awmod@divisor+1)^0,f,c
  7060  002B20  B0D8               	btfsc	status,0,c
  7061  002B22  2A0D               	incf	(___awmod@divisor+1)^0,f,c
  7062  002B24                     l4797:
  7063  002B24  500C               	movf	___awmod@divisor^0,w,c
  7064  002B26  100D               	iorwf	(___awmod@divisor+1)^0,w,c
  7065  002B28  B4D8               	btfsc	status,2,c
  7066  002B2A  EF99  F015         	goto	u4791
  7067  002B2E  EF9B  F015         	goto	u4790
  7068  002B32                     u4791:
  7069  002B32  EFBF  F015         	goto	l4813
  7070  002B36                     u4790:
  7071  002B36  0E01               	movlw	1
  7072  002B38  6E0E               	movwf	___awmod@counter^0,c
  7073  002B3A  EFA3  F015         	goto	l4803
  7074  002B3E                     l4801:
  7075  002B3E  90D8               	bcf	status,0,c
  7076  002B40  360C               	rlcf	___awmod@divisor^0,f,c
  7077  002B42  360D               	rlcf	(___awmod@divisor+1)^0,f,c
  7078  002B44  2A0E               	incf	___awmod@counter^0,f,c
  7079  002B46                     l4803:
  7080  002B46  AE0D               	btfss	(___awmod@divisor+1)^0,7,c
  7081  002B48  EFA8  F015         	goto	u4801
  7082  002B4C  EFAA  F015         	goto	u4800
  7083  002B50                     u4801:
  7084  002B50  EF9F  F015         	goto	l4801
  7085  002B54                     u4800:
  7086  002B54                     l4805:
  7087  002B54  500C               	movf	___awmod@divisor^0,w,c
  7088  002B56  5C0A               	subwf	___awmod@dividend^0,w,c
  7089  002B58  500D               	movf	(___awmod@divisor+1)^0,w,c
  7090  002B5A  580B               	subwfb	(___awmod@dividend+1)^0,w,c
  7091  002B5C  A0D8               	btfss	status,0,c
  7092  002B5E  EFB3  F015         	goto	u4811
  7093  002B62  EFB5  F015         	goto	u4810
  7094  002B66                     u4811:
  7095  002B66  EFB9  F015         	goto	l4809
  7096  002B6A                     u4810:
  7097  002B6A  500C               	movf	___awmod@divisor^0,w,c
  7098  002B6C  5E0A               	subwf	___awmod@dividend^0,f,c
  7099  002B6E  500D               	movf	(___awmod@divisor+1)^0,w,c
  7100  002B70  5A0B               	subwfb	(___awmod@dividend+1)^0,f,c
  7101  002B72                     l4809:
  7102  002B72  90D8               	bcf	status,0,c
  7103  002B74  320D               	rrcf	(___awmod@divisor+1)^0,f,c
  7104  002B76  320C               	rrcf	___awmod@divisor^0,f,c
  7105  002B78  2E0E               	decfsz	___awmod@counter^0,f,c
  7106  002B7A  EFAA  F015         	goto	l4805
  7107  002B7E                     l4813:
  7108  002B7E  500F               	movf	___awmod@sign^0,w,c
  7109  002B80  B4D8               	btfsc	status,2,c
  7110  002B82  EFC5  F015         	goto	u4821
  7111  002B86  EFC7  F015         	goto	u4820
  7112  002B8A                     u4821:
  7113  002B8A  EFCB  F015         	goto	l4817
  7114  002B8E                     u4820:
  7115  002B8E  6C0A               	negf	___awmod@dividend^0,c
  7116  002B90  1E0B               	comf	(___awmod@dividend+1)^0,f,c
  7117  002B92  B0D8               	btfsc	status,0,c
  7118  002B94  2A0B               	incf	(___awmod@dividend+1)^0,f,c
  7119  002B96                     l4817:
  7120  002B96  C00A  F00A         	movff	___awmod@dividend,?___awmod
  7121  002B9A  C00B  F00B         	movff	___awmod@dividend+1,?___awmod+1
  7122  002B9E  0012               	return		;funcret
  7123  002BA0                     __end_of___awmod:
  7124                           	callstack 0
  7125                           
  7126 ;; *************** function ___awdiv *****************
  7127 ;; Defined at:
  7128 ;;		line 7 in file "c:\PROGRA~1\MICROC~1\xc8\v2.32\pic\sources\c99\common\awdiv.c"
  7129 ;; Parameters:    Size  Location     Type
  7130 ;;  dividend        2    9[COMRAM] int 
  7131 ;;  divisor         2   11[COMRAM] int 
  7132 ;; Auto vars:     Size  Location     Type
  7133 ;;  quotient        2   15[COMRAM] int 
  7134 ;;  sign            1   14[COMRAM] unsigned char 
  7135 ;;  counter         1   13[COMRAM] unsigned char 
  7136 ;; Return value:  Size  Location     Type
  7137 ;;                  2    9[COMRAM] int 
  7138 ;; Registers used:
  7139 ;;		wreg, status,2, status,0
  7140 ;; Tracked objects:
  7141 ;;		On entry : 0/0
  7142 ;;		On exit  : 0/0
  7143 ;;		Unchanged: 0/0
  7144 ;; Data sizes:     COMRAM   BANK0   BANK1   BANK2   BANK3   BANK4   BANK5   BANK6   BANK7
  7145 ;;      Params:         4       0       0       0       0       0       0       0       0
  7146 ;;      Locals:         4       0       0       0       0       0       0       0       0
  7147 ;;      Temps:          0       0       0       0       0       0       0       0       0
  7148 ;;      Totals:         8       0       0       0       0       0       0       0       0
  7149 ;;Total ram usage:        8 bytes
  7150 ;; Hardware stack levels used: 1
  7151 ;; Hardware stack levels required when called: 2
  7152 ;; This function calls:
  7153 ;;		Nothing
  7154 ;; This function is called by:
  7155 ;;		_itoa
  7156 ;;		_floatToString
  7157 ;; This function uses a non-reentrant model
  7158 ;;
  7159                           
  7160                           	psect	text21
  7161  0027F2                     __ptext21:
  7162                           	callstack 0
  7163  0027F2                     ___awdiv:
  7164                           	callstack 26
  7165  0027F2  0E00               	movlw	0
  7166  0027F4  6E0F               	movwf	___awdiv@sign^0,c
  7167  0027F6  BE0D               	btfsc	(___awdiv@divisor+1)^0,7,c
  7168  0027F8  EF02  F014         	goto	u4710
  7169  0027FC  EF00  F014         	goto	u4711
  7170  002800                     u4711:
  7171  002800  EF08  F014         	goto	l4749
  7172  002804                     u4710:
  7173  002804  6C0C               	negf	___awdiv@divisor^0,c
  7174  002806  1E0D               	comf	(___awdiv@divisor+1)^0,f,c
  7175  002808  B0D8               	btfsc	status,0,c
  7176  00280A  2A0D               	incf	(___awdiv@divisor+1)^0,f,c
  7177  00280C  0E01               	movlw	1
  7178  00280E  6E0F               	movwf	___awdiv@sign^0,c
  7179  002810                     l4749:
  7180  002810  BE0B               	btfsc	(___awdiv@dividend+1)^0,7,c
  7181  002812  EF0F  F014         	goto	u4720
  7182  002816  EF0D  F014         	goto	u4721
  7183  00281A                     u4721:
  7184  00281A  EF15  F014         	goto	l4755
  7185  00281E                     u4720:
  7186  00281E  6C0A               	negf	___awdiv@dividend^0,c
  7187  002820  1E0B               	comf	(___awdiv@dividend+1)^0,f,c
  7188  002822  B0D8               	btfsc	status,0,c
  7189  002824  2A0B               	incf	(___awdiv@dividend+1)^0,f,c
  7190  002826  0E01               	movlw	1
  7191  002828  1A0F               	xorwf	___awdiv@sign^0,f,c
  7192  00282A                     l4755:
  7193  00282A  0E00               	movlw	0
  7194  00282C  6E11               	movwf	(___awdiv@quotient+1)^0,c
  7195  00282E  0E00               	movlw	0
  7196  002830  6E10               	movwf	___awdiv@quotient^0,c
  7197  002832  500C               	movf	___awdiv@divisor^0,w,c
  7198  002834  100D               	iorwf	(___awdiv@divisor+1)^0,w,c
  7199  002836  B4D8               	btfsc	status,2,c
  7200  002838  EF20  F014         	goto	u4731
  7201  00283C  EF22  F014         	goto	u4730
  7202  002840                     u4731:
  7203  002840  EF4A  F014         	goto	l4777
  7204  002844                     u4730:
  7205  002844  0E01               	movlw	1
  7206  002846  6E0E               	movwf	___awdiv@counter^0,c
  7207  002848  EF2A  F014         	goto	l4763
  7208  00284C                     l4761:
  7209  00284C  90D8               	bcf	status,0,c
  7210  00284E  360C               	rlcf	___awdiv@divisor^0,f,c
  7211  002850  360D               	rlcf	(___awdiv@divisor+1)^0,f,c
  7212  002852  2A0E               	incf	___awdiv@counter^0,f,c
  7213  002854                     l4763:
  7214  002854  AE0D               	btfss	(___awdiv@divisor+1)^0,7,c
  7215  002856  EF2F  F014         	goto	u4741
  7216  00285A  EF31  F014         	goto	u4740
  7217  00285E                     u4741:
  7218  00285E  EF26  F014         	goto	l4761
  7219  002862                     u4740:
  7220  002862                     l4765:
  7221  002862  90D8               	bcf	status,0,c
  7222  002864  3610               	rlcf	___awdiv@quotient^0,f,c
  7223  002866  3611               	rlcf	(___awdiv@quotient+1)^0,f,c
  7224  002868  500C               	movf	___awdiv@divisor^0,w,c
  7225  00286A  5C0A               	subwf	___awdiv@dividend^0,w,c
  7226  00286C  500D               	movf	(___awdiv@divisor+1)^0,w,c
  7227  00286E  580B               	subwfb	(___awdiv@dividend+1)^0,w,c
  7228  002870  A0D8               	btfss	status,0,c
  7229  002872  EF3D  F014         	goto	u4751
  7230  002876  EF3F  F014         	goto	u4750
  7231  00287A                     u4751:
  7232  00287A  EF44  F014         	goto	l4773
  7233  00287E                     u4750:
  7234  00287E  500C               	movf	___awdiv@divisor^0,w,c
  7235  002880  5E0A               	subwf	___awdiv@dividend^0,f,c
  7236  002882  500D               	movf	(___awdiv@divisor+1)^0,w,c
  7237  002884  5A0B               	subwfb	(___awdiv@dividend+1)^0,f,c
  7238  002886  8010               	bsf	___awdiv@quotient^0,0,c
  7239  002888                     l4773:
  7240  002888  90D8               	bcf	status,0,c
  7241  00288A  320D               	rrcf	(___awdiv@divisor+1)^0,f,c
  7242  00288C  320C               	rrcf	___awdiv@divisor^0,f,c
  7243  00288E  2E0E               	decfsz	___awdiv@counter^0,f,c
  7244  002890  EF31  F014         	goto	l4765
  7245  002894                     l4777:
  7246  002894  500F               	movf	___awdiv@sign^0,w,c
  7247  002896  B4D8               	btfsc	status,2,c
  7248  002898  EF50  F014         	goto	u4761
  7249  00289C  EF52  F014         	goto	u4760
  7250  0028A0                     u4761:
  7251  0028A0  EF56  F014         	goto	l4781
  7252  0028A4                     u4760:
  7253  0028A4  6C10               	negf	___awdiv@quotient^0,c
  7254  0028A6  1E11               	comf	(___awdiv@quotient+1)^0,f,c
  7255  0028A8  B0D8               	btfsc	status,0,c
  7256  0028AA  2A11               	incf	(___awdiv@quotient+1)^0,f,c
  7257  0028AC                     l4781:
  7258  0028AC  C010  F00A         	movff	___awdiv@quotient,?___awdiv
  7259  0028B0  C011  F00B         	movff	___awdiv@quotient+1,?___awdiv+1
  7260  0028B4  0012               	return		;funcret
  7261  0028B6                     __end_of___awdiv:
  7262                           	callstack 0
  7263                           
  7264 ;; *************** function _displayStuff *****************
  7265 ;; Defined at:
  7266 ;;		line 623 in file "C:\Users\JeeJ\MPLABXProjects\ProjetoF_micro.X\main.c"
  7267 ;; Parameters:    Size  Location     Type
  7268 ;;  row             2   10[COMRAM] int 
  7269 ;;  column          2   12[COMRAM] int 
  7270 ;;  stuff           2   14[COMRAM] PTR unsigned char 
  7271 ;;		 -> readTwoDigitValue@input(3), STR_27(15), STR_26(12), STR_25(17), 
  7272 ;;		 -> STR_24(14), STR_23(3), STR_22(10), STR_21(16), 
  7273 ;;		 -> STR_20(16), STR_19(16), STR_18(3), STR_17(9), 
  7274 ;;		 -> STR_16(5), STR_15(4), STR_14(5), STR_13(5), 
  7275 ;;		 -> STR_12(2), STR_11(7), STR_10(5), STR_9(2), 
  7276 ;;		 -> displayMenu@valueStr(10), STR_8(6), STR_7(15), STR_6(11), 
  7277 ;;		 -> STR_5(11), STR_4(13), STR_3(12), STR_2(12), 
  7278 ;;		 -> STR_1(13), 
  7279 ;; Auto vars:     Size  Location     Type
  7280 ;;  LCDWritePosi    2   16[COMRAM] int 
  7281 ;; Return value:  Size  Location     Type
  7282 ;;                  1    wreg      void 
  7283 ;; Registers used:
  7284 ;;		wreg, fsr1l, fsr1h, status,2, status,0, tblptrl, tblptrh, tblptru, cstack
  7285 ;; Tracked objects:
  7286 ;;		On entry : 0/0
  7287 ;;		On exit  : 0/0
  7288 ;;		Unchanged: 0/0
  7289 ;; Data sizes:     COMRAM   BANK0   BANK1   BANK2   BANK3   BANK4   BANK5   BANK6   BANK7
  7290 ;;      Params:         6       0       0       0       0       0       0       0       0
  7291 ;;      Locals:         4       0       0       0       0       0       0       0       0
  7292 ;;      Temps:          0       0       0       0       0       0       0       0       0
  7293 ;;      Totals:        10       0       0       0       0       0       0       0       0
  7294 ;;Total ram usage:       10 bytes
  7295 ;; Hardware stack levels used: 1
  7296 ;; Hardware stack levels required when called: 4
  7297 ;; This function calls:
  7298 ;;		_WriteCmdXLCD
  7299 ;;		_WriteDataXLCD
  7300 ;; This function is called by:
  7301 ;;		_main
  7302 ;;		_displayMenu
  7303 ;;		_readTwoDigitValue
  7304 ;; This function uses a non-reentrant model
  7305 ;;
  7306                           
  7307                           	psect	text22
  7308  002BA0                     __ptext22:
  7309                           	callstack 0
  7310  002BA0                     _displayStuff:
  7311                           	callstack 25
  7312  002BA0                     
  7313                           ;C:\Users\JeeJ\MPLABXProjects\ProjetoF_micro.X\main.c: 624:     int LCDWritePosition = (
      +                          row == 0 ? 0x80 : 0xC0) + column;
  7314  002BA0  500B               	movf	displayStuff@row^0,w,c
  7315  002BA2  100C               	iorwf	(displayStuff@row+1)^0,w,c
  7316  002BA4  B4D8               	btfsc	status,2,c
  7317  002BA6  EFD7  F015         	goto	u3301
  7318  002BAA  EFD9  F015         	goto	u3300
  7319  002BAE                     u3301:
  7320  002BAE  EFDF  F015         	goto	l3581
  7321  002BB2                     u3300:
  7322  002BB2  0E00               	movlw	0
  7323  002BB4  6E14               	movwf	(_displayStuff$791+1)^0,c
  7324  002BB6  0EC0               	movlw	192
  7325  002BB8  6E13               	movwf	_displayStuff$791^0,c
  7326  002BBA  EFE3  F015         	goto	l3583
  7327  002BBE                     l3581:
  7328  002BBE  0E00               	movlw	0
  7329  002BC0  6E14               	movwf	(_displayStuff$791+1)^0,c
  7330  002BC2  0E80               	movlw	128
  7331  002BC4  6E13               	movwf	_displayStuff$791^0,c
  7332  002BC6                     l3583:
  7333  002BC6  500D               	movf	displayStuff@column^0,w,c
  7334  002BC8  2413               	addwf	_displayStuff$791^0,w,c
  7335  002BCA  6E11               	movwf	displayStuff@LCDWritePosition^0,c
  7336  002BCC  500E               	movf	(displayStuff@column+1)^0,w,c
  7337  002BCE  2014               	addwfc	(_displayStuff$791+1)^0,w,c
  7338  002BD0  6E12               	movwf	(displayStuff@LCDWritePosition+1)^0,c
  7339  002BD2                     
  7340                           ;C:\Users\JeeJ\MPLABXProjects\ProjetoF_micro.X\main.c: 627:     WriteCmdXLCD(LCDWritePos
      +                          ition);
  7341  002BD2  5011               	movf	displayStuff@LCDWritePosition^0,w,c
  7342  002BD4  ECA9  F017         	call	_WriteCmdXLCD
  7343                           
  7344                           ;C:\Users\JeeJ\MPLABXProjects\ProjetoF_micro.X\main.c: 628:     while (*stuff) {
  7345  002BD8  EF02  F016         	goto	l3591
  7346  002BDC                     l3587:
  7347                           
  7348                           ;C:\Users\JeeJ\MPLABXProjects\ProjetoF_micro.X\main.c: 629:         WriteDataXLCD(*stuff
      +                          );
  7349  002BDC  C00F  FFF6         	movff	displayStuff@stuff,tblptrl
  7350  002BE0  C010  FFF7         	movff	displayStuff@stuff+1,tblptrh
  7351  002BE4  6AF8               	clrf	tblptru,c
  7352  002BE6  0E07               	movlw	(high __ramtop+-1)
  7353  002BE8  64F7               	cpfsgt	tblptrh,c
  7354  002BEA  D003               	bra	u3317
  7355  002BEC  0008               	tblrd		*
  7356  002BEE  50F5               	movf	tablat,w,c
  7357  002BF0  D005               	bra	u3310
  7358  002BF2                     u3317:
  7359  002BF2  CFF6 FFE1          	movff	tblptrl,fsr1l
  7360  002BF6  CFF7 FFE2          	movff	tblptrh,fsr1h
  7361  002BFA  50E7               	movf	indf1,w,c
  7362  002BFC                     u3310:
  7363  002BFC  EC8A  F017         	call	_WriteDataXLCD
  7364  002C00                     
  7365                           ;C:\Users\JeeJ\MPLABXProjects\ProjetoF_micro.X\main.c: 630:         stuff++;
  7366  002C00  4A0F               	infsnz	displayStuff@stuff^0,f,c
  7367  002C02  2A10               	incf	(displayStuff@stuff+1)^0,f,c
  7368  002C04                     l3591:
  7369                           
  7370                           ;C:\Users\JeeJ\MPLABXProjects\ProjetoF_micro.X\main.c: 628:     while (*stuff) {
  7371  002C04  C00F  FFF6         	movff	displayStuff@stuff,tblptrl
  7372  002C08  C010  FFF7         	movff	displayStuff@stuff+1,tblptrh
  7373  002C0C  6AF8               	clrf	tblptru,c
  7374  002C0E  0E07               	movlw	(high __ramtop+-1)
  7375  002C10  64F7               	cpfsgt	tblptrh,c
  7376  002C12  D003               	bra	u3327
  7377  002C14  0008               	tblrd		*
  7378  002C16  50F5               	movf	tablat,w,c
  7379  002C18  D005               	bra	u3320
  7380  002C1A                     u3327:
  7381  002C1A  CFF6 FFE1          	movff	tblptrl,fsr1l
  7382  002C1E  CFF7 FFE2          	movff	tblptrh,fsr1h
  7383  002C22  50E7               	movf	indf1,w,c
  7384  002C24                     u3320:
  7385  002C24  0900               	iorlw	0
  7386  002C26  A4D8               	btfss	status,2,c
  7387  002C28  EF18  F016         	goto	u3331
  7388  002C2C  EF1A  F016         	goto	u3330
  7389  002C30                     u3331:
  7390  002C30  EFEE  F015         	goto	l3587
  7391  002C34                     u3330:
  7392  002C34  0012               	return		;funcret
  7393  002C36                     __end_of_displayStuff:
  7394                           	callstack 0
  7395                           
  7396 ;; *************** function _WriteDataXLCD *****************
  7397 ;; Defined at:
  7398 ;;		line 449 in file "C:\Users\JeeJ\MPLABXProjects\ProjetoF_micro.X\nxlcd.c"
  7399 ;; Parameters:    Size  Location     Type
  7400 ;;  data            1    wreg     unsigned char 
  7401 ;; Auto vars:     Size  Location     Type
  7402 ;;  data            1    9[COMRAM] unsigned char 
  7403 ;; Return value:  Size  Location     Type
  7404 ;;                  1    wreg      void 
  7405 ;; Registers used:
  7406 ;;		wreg, status,2, status,0, cstack
  7407 ;; Tracked objects:
  7408 ;;		On entry : 0/0
  7409 ;;		On exit  : 0/0
  7410 ;;		Unchanged: 0/0
  7411 ;; Data sizes:     COMRAM   BANK0   BANK1   BANK2   BANK3   BANK4   BANK5   BANK6   BANK7
  7412 ;;      Params:         0       0       0       0       0       0       0       0       0
  7413 ;;      Locals:         1       0       0       0       0       0       0       0       0
  7414 ;;      Temps:          0       0       0       0       0       0       0       0       0
  7415 ;;      Totals:         1       0       0       0       0       0       0       0       0
  7416 ;;Total ram usage:        1 bytes
  7417 ;; Hardware stack levels used: 1
  7418 ;; Hardware stack levels required when called: 3
  7419 ;; This function calls:
  7420 ;;		_DelayFor18TCY
  7421 ;; This function is called by:
  7422 ;;		_displayStuff
  7423 ;;		_putsXLCD
  7424 ;;		_putrsXLCD
  7425 ;; This function uses a non-reentrant model
  7426 ;;
  7427                           
  7428                           	psect	text23
  7429  002F14                     __ptext23:
  7430                           	callstack 0
  7431  002F14                     _WriteDataXLCD:
  7432                           	callstack 25
  7433                           
  7434                           ;incstack = 0
  7435                           ;WriteDataXLCD@data stored from wreg
  7436  002F14  6E0A               	movwf	WriteDataXLCD@data^0,c
  7437  002F16                     
  7438                           ;C:\Users\JeeJ\MPLABXProjects\ProjetoF_micro.X\nxlcd.c: 449: void WriteDataXLCD(char dat
      +                          a);C:\Users\JeeJ\MPLABXProjects\ProjetoF_micro.X\nxlcd.c: 450: {;C:\Users\JeeJ\MPLABXPro
      +                          jects\ProjetoF_micro.X\nxlcd.c: 464:         TRISD &= 0x0f;
  7439  002F16  0E0F               	movlw	15
  7440  002F18  1695               	andwf	149,f,c	;volatile
  7441                           
  7442                           ;C:\Users\JeeJ\MPLABXProjects\ProjetoF_micro.X\nxlcd.c: 465:         PORTD &= 0x0f;
  7443  002F1A  0E0F               	movlw	15
  7444  002F1C  1683               	andwf	131,f,c	;volatile
  7445                           
  7446                           ;C:\Users\JeeJ\MPLABXProjects\ProjetoF_micro.X\nxlcd.c: 466:         PORTD |= data&0xf0;
  7447  002F1E  500A               	movf	WriteDataXLCD@data^0,w,c
  7448  002F20  0BF0               	andlw	240
  7449  002F22  1283               	iorwf	131,f,c	;volatile
  7450  002F24                     
  7451                           ;C:\Users\JeeJ\MPLABXProjects\ProjetoF_micro.X\nxlcd.c: 472:         LATEbits.LATE0 = 1;
  7452  002F24  808D               	bsf	141,0,c	;volatile
  7453  002F26                     
  7454                           ;C:\Users\JeeJ\MPLABXProjects\ProjetoF_micro.X\nxlcd.c: 473:         LATEbits.LATE2 = 0;
  7455  002F26  948D               	bcf	141,2,c	;volatile
  7456  002F28                     
  7457                           ;C:\Users\JeeJ\MPLABXProjects\ProjetoF_micro.X\nxlcd.c: 474:         DelayFor18TCY();
  7458  002F28  EC2D  F018         	call	_DelayFor18TCY	;wreg free
  7459  002F2C                     
  7460                           ;C:\Users\JeeJ\MPLABXProjects\ProjetoF_micro.X\nxlcd.c: 475:         LATEbits.LATE1 = 1;
  7461  002F2C  828D               	bsf	141,1,c	;volatile
  7462  002F2E                     
  7463                           ;C:\Users\JeeJ\MPLABXProjects\ProjetoF_micro.X\nxlcd.c: 476:         DelayFor18TCY();
  7464  002F2E  EC2D  F018         	call	_DelayFor18TCY	;wreg free
  7465  002F32                     
  7466                           ;C:\Users\JeeJ\MPLABXProjects\ProjetoF_micro.X\nxlcd.c: 477:         LATEbits.LATE1 = 0;
  7467  002F32  928D               	bcf	141,1,c	;volatile
  7468                           
  7469                           ;C:\Users\JeeJ\MPLABXProjects\ProjetoF_micro.X\nxlcd.c: 479:         PORTD &= 0x0f;
  7470  002F34  0E0F               	movlw	15
  7471  002F36  1683               	andwf	131,f,c	;volatile
  7472                           
  7473                           ;C:\Users\JeeJ\MPLABXProjects\ProjetoF_micro.X\nxlcd.c: 480:         PORTD |= ((data<<4)
      +                          &0xf0);
  7474  002F38  380A               	swapf	WriteDataXLCD@data^0,w,c
  7475  002F3A  0BF0               	andlw	240
  7476  002F3C  0BF0               	andlw	240
  7477  002F3E  1283               	iorwf	131,f,c	;volatile
  7478  002F40                     
  7479                           ;C:\Users\JeeJ\MPLABXProjects\ProjetoF_micro.X\nxlcd.c: 485:         DelayFor18TCY();
  7480  002F40  EC2D  F018         	call	_DelayFor18TCY	;wreg free
  7481  002F44                     
  7482                           ;C:\Users\JeeJ\MPLABXProjects\ProjetoF_micro.X\nxlcd.c: 486:         LATEbits.LATE1 = 1;
  7483  002F44  828D               	bsf	141,1,c	;volatile
  7484  002F46                     
  7485                           ;C:\Users\JeeJ\MPLABXProjects\ProjetoF_micro.X\nxlcd.c: 487:         DelayFor18TCY();
  7486  002F46  EC2D  F018         	call	_DelayFor18TCY	;wreg free
  7487  002F4A                     
  7488                           ;C:\Users\JeeJ\MPLABXProjects\ProjetoF_micro.X\nxlcd.c: 488:         LATEbits.LATE1 = 0;
  7489  002F4A  928D               	bcf	141,1,c	;volatile
  7490                           
  7491                           ;C:\Users\JeeJ\MPLABXProjects\ProjetoF_micro.X\nxlcd.c: 490:         TRISD |= 0xf0;
  7492  002F4C  0EF0               	movlw	240
  7493  002F4E  1295               	iorwf	149,f,c	;volatile
  7494  002F50  0012               	return		;funcret
  7495  002F52                     __end_of_WriteDataXLCD:
  7496                           	callstack 0
  7497                           
  7498 ;; *************** function ___flge *****************
  7499 ;; Defined at:
  7500 ;;		line 4 in file "c:\PROGRA~1\MICROC~1\xc8\v2.32\pic\sources\c99\common\flge.c"
  7501 ;; Parameters:    Size  Location     Type
  7502 ;;  ff1             4   23[COMRAM] void 
  7503 ;;  ff2             4   27[COMRAM] void 
  7504 ;; Auto vars:     Size  Location     Type
  7505 ;;		None
  7506 ;; Return value:  Size  Location     Type
  7507 ;;		None               void
  7508 ;; Registers used:
  7509 ;;		wreg, status,2, status,0
  7510 ;; Tracked objects:
  7511 ;;		On entry : 0/0
  7512 ;;		On exit  : 0/0
  7513 ;;		Unchanged: 0/0
  7514 ;; Data sizes:     COMRAM   BANK0   BANK1   BANK2   BANK3   BANK4   BANK5   BANK6   BANK7
  7515 ;;      Params:         8       0       0       0       0       0       0       0       0
  7516 ;;      Locals:         0       0       0       0       0       0       0       0       0
  7517 ;;      Temps:          4       0       0       0       0       0       0       0       0
  7518 ;;      Totals:        12       0       0       0       0       0       0       0       0
  7519 ;;Total ram usage:       12 bytes
  7520 ;; Hardware stack levels used: 1
  7521 ;; Hardware stack levels required when called: 2
  7522 ;; This function calls:
  7523 ;;		Nothing
  7524 ;; This function is called by:
  7525 ;;		_main
  7526 ;;		_displayMenu
  7527 ;; This function uses a non-reentrant model
  7528 ;;
  7529                           
  7530                           	psect	text24
  7531  002600                     __ptext24:
  7532                           	callstack 0
  7533  002600                     ___flge:
  7534                           	callstack 27
  7535  002600  0E00               	movlw	0
  7536  002602  1418               	andwf	___flge@ff1^0,w,c
  7537  002604  6E20               	movwf	??___flge^0,c
  7538  002606  0E00               	movlw	0
  7539  002608  1419               	andwf	(___flge@ff1+1)^0,w,c
  7540  00260A  6E21               	movwf	(??___flge+1)^0,c
  7541  00260C  0E80               	movlw	128
  7542  00260E  141A               	andwf	(___flge@ff1+2)^0,w,c
  7543  002610  6E22               	movwf	(??___flge+2)^0,c
  7544  002612  0E7F               	movlw	127
  7545  002614  141B               	andwf	(___flge@ff1+3)^0,w,c
  7546  002616  6E23               	movwf	(??___flge+3)^0,c
  7547  002618  5020               	movf	??___flge^0,w,c
  7548  00261A  1021               	iorwf	(??___flge+1)^0,w,c
  7549  00261C  1022               	iorwf	(??___flge+2)^0,w,c
  7550  00261E  1023               	iorwf	(??___flge+3)^0,w,c
  7551  002620  A4D8               	btfss	status,2,c
  7552  002622  EF15  F013         	goto	u3511
  7553  002626  EF17  F013         	goto	u3510
  7554  00262A                     u3511:
  7555  00262A  EF1F  F013         	goto	l3793
  7556  00262E                     u3510:
  7557  00262E  0E00               	movlw	0
  7558  002630  6E18               	movwf	___flge@ff1^0,c
  7559  002632  0E00               	movlw	0
  7560  002634  6E19               	movwf	(___flge@ff1+1)^0,c
  7561  002636  0E00               	movlw	0
  7562  002638  6E1A               	movwf	(___flge@ff1+2)^0,c
  7563  00263A  0E00               	movlw	0
  7564  00263C  6E1B               	movwf	(___flge@ff1+3)^0,c
  7565  00263E                     l3793:
  7566  00263E  0E00               	movlw	0
  7567  002640  141C               	andwf	___flge@ff2^0,w,c
  7568  002642  6E20               	movwf	??___flge^0,c
  7569  002644  0E00               	movlw	0
  7570  002646  141D               	andwf	(___flge@ff2+1)^0,w,c
  7571  002648  6E21               	movwf	(??___flge+1)^0,c
  7572  00264A  0E80               	movlw	128
  7573  00264C  141E               	andwf	(___flge@ff2+2)^0,w,c
  7574  00264E  6E22               	movwf	(??___flge+2)^0,c
  7575  002650  0E7F               	movlw	127
  7576  002652  141F               	andwf	(___flge@ff2+3)^0,w,c
  7577  002654  6E23               	movwf	(??___flge+3)^0,c
  7578  002656  5020               	movf	??___flge^0,w,c
  7579  002658  1021               	iorwf	(??___flge+1)^0,w,c
  7580  00265A  1022               	iorwf	(??___flge+2)^0,w,c
  7581  00265C  1023               	iorwf	(??___flge+3)^0,w,c
  7582  00265E  A4D8               	btfss	status,2,c
  7583  002660  EF34  F013         	goto	u3521
  7584  002664  EF36  F013         	goto	u3520
  7585  002668                     u3521:
  7586  002668  EF3E  F013         	goto	l3797
  7587  00266C                     u3520:
  7588  00266C  0E00               	movlw	0
  7589  00266E  6E1C               	movwf	___flge@ff2^0,c
  7590  002670  0E00               	movlw	0
  7591  002672  6E1D               	movwf	(___flge@ff2+1)^0,c
  7592  002674  0E00               	movlw	0
  7593  002676  6E1E               	movwf	(___flge@ff2+2)^0,c
  7594  002678  0E00               	movlw	0
  7595  00267A  6E1F               	movwf	(___flge@ff2+3)^0,c
  7596  00267C                     l3797:
  7597  00267C  AE1B               	btfss	(___flge@ff1+3)^0,7,c
  7598  00267E  EF43  F013         	goto	u3531
  7599  002682  EF45  F013         	goto	u3530
  7600  002686                     u3531:
  7601  002686  EF4E  F013         	goto	l3801
  7602  00268A                     u3530:
  7603  00268A  6C18               	negf	___flge@ff1^0,c
  7604  00268C  1E19               	comf	(___flge@ff1+1)^0,f,c
  7605  00268E  B0D8               	btfsc	status,0,c
  7606  002690  2A19               	incf	(___flge@ff1+1)^0,f,c
  7607  002692  1E1A               	comf	(___flge@ff1+2)^0,f,c
  7608  002694  B0D8               	btfsc	status,0,c
  7609  002696  2A1A               	incf	(___flge@ff1+2)^0,f,c
  7610  002698  0E80               	movlw	128
  7611  00269A  561B               	subfwb	(___flge@ff1+3)^0,f,c
  7612  00269C                     l3801:
  7613  00269C  AE1F               	btfss	(___flge@ff2+3)^0,7,c
  7614  00269E  EF53  F013         	goto	u3541
  7615  0026A2  EF55  F013         	goto	u3540
  7616  0026A6                     u3541:
  7617  0026A6  EF5E  F013         	goto	l651
  7618  0026AA                     u3540:
  7619  0026AA  6C1C               	negf	___flge@ff2^0,c
  7620  0026AC  1E1D               	comf	(___flge@ff2+1)^0,f,c
  7621  0026AE  B0D8               	btfsc	status,0,c
  7622  0026B0  2A1D               	incf	(___flge@ff2+1)^0,f,c
  7623  0026B2  1E1E               	comf	(___flge@ff2+2)^0,f,c
  7624  0026B4  B0D8               	btfsc	status,0,c
  7625  0026B6  2A1E               	incf	(___flge@ff2+2)^0,f,c
  7626  0026B8  0E80               	movlw	128
  7627  0026BA  561F               	subfwb	(___flge@ff2+3)^0,f,c
  7628  0026BC                     l651:
  7629  0026BC  0E00               	movlw	0
  7630  0026BE  1A18               	xorwf	___flge@ff1^0,f,c
  7631  0026C0  0E00               	movlw	0
  7632  0026C2  1A19               	xorwf	(___flge@ff1+1)^0,f,c
  7633  0026C4  0E00               	movlw	0
  7634  0026C6  1A1A               	xorwf	(___flge@ff1+2)^0,f,c
  7635  0026C8  0E80               	movlw	128
  7636  0026CA  1A1B               	xorwf	(___flge@ff1+3)^0,f,c
  7637  0026CC  0E00               	movlw	0
  7638  0026CE  1A1C               	xorwf	___flge@ff2^0,f,c
  7639  0026D0  0E00               	movlw	0
  7640  0026D2  1A1D               	xorwf	(___flge@ff2+1)^0,f,c
  7641  0026D4  0E00               	movlw	0
  7642  0026D6  1A1E               	xorwf	(___flge@ff2+2)^0,f,c
  7643  0026D8  0E80               	movlw	128
  7644  0026DA  1A1F               	xorwf	(___flge@ff2+3)^0,f,c
  7645  0026DC  501C               	movf	___flge@ff2^0,w,c
  7646  0026DE  5C18               	subwf	___flge@ff1^0,w,c
  7647  0026E0  501D               	movf	(___flge@ff2+1)^0,w,c
  7648  0026E2  5819               	subwfb	(___flge@ff1+1)^0,w,c
  7649  0026E4  501E               	movf	(___flge@ff2+2)^0,w,c
  7650  0026E6  581A               	subwfb	(___flge@ff1+2)^0,w,c
  7651  0026E8  501F               	movf	(___flge@ff2+3)^0,w,c
  7652  0026EA  581B               	subwfb	(___flge@ff1+3)^0,w,c
  7653  0026EC  B0D8               	btfsc	status,0,c
  7654  0026EE  EF7B  F013         	goto	u3551
  7655  0026F2  EF7D  F013         	goto	u3550
  7656  0026F6                     u3551:
  7657  0026F6  EF80  F013         	goto	l3807
  7658  0026FA                     u3550:
  7659  0026FA  90D8               	bcf	status,0,c
  7660  0026FC  EF81  F013         	goto	l656
  7661  002700                     l3807:
  7662  002700  80D8               	bsf	status,0,c
  7663  002702                     l656:
  7664  002702  0012               	return		;funcret
  7665  002704                     __end_of___flge:
  7666                           	callstack 0
  7667                           
  7668 ;; *************** function _configureTimer *****************
  7669 ;; Defined at:
  7670 ;;		line 505 in file "C:\Users\JeeJ\MPLABXProjects\ProjetoF_micro.X\main.c"
  7671 ;; Parameters:    Size  Location     Type
  7672 ;;		None
  7673 ;; Auto vars:     Size  Location     Type
  7674 ;;		None
  7675 ;; Return value:  Size  Location     Type
  7676 ;;                  1    wreg      void 
  7677 ;; Registers used:
  7678 ;;		wreg, status,2
  7679 ;; Tracked objects:
  7680 ;;		On entry : 0/0
  7681 ;;		On exit  : 0/0
  7682 ;;		Unchanged: 0/0
  7683 ;; Data sizes:     COMRAM   BANK0   BANK1   BANK2   BANK3   BANK4   BANK5   BANK6   BANK7
  7684 ;;      Params:         0       0       0       0       0       0       0       0       0
  7685 ;;      Locals:         0       0       0       0       0       0       0       0       0
  7686 ;;      Temps:          0       0       0       0       0       0       0       0       0
  7687 ;;      Totals:         0       0       0       0       0       0       0       0       0
  7688 ;;Total ram usage:        0 bytes
  7689 ;; Hardware stack levels used: 1
  7690 ;; Hardware stack levels required when called: 2
  7691 ;; This function calls:
  7692 ;;		Nothing
  7693 ;; This function is called by:
  7694 ;;		_main
  7695 ;; This function uses a non-reentrant model
  7696 ;;
  7697                           
  7698                           	psect	text25
  7699  003042                     __ptext25:
  7700                           	callstack 0
  7701  003042                     _configureTimer:
  7702                           	callstack 28
  7703  003042                     
  7704                           ;C:\Users\JeeJ\MPLABXProjects\ProjetoF_micro.X\main.c: 506:     T0CON = 0b11000100;
  7705  003042  0EC4               	movlw	196
  7706  003044  6ED5               	movwf	213,c	;volatile
  7707                           
  7708                           ;C:\Users\JeeJ\MPLABXProjects\ProjetoF_micro.X\main.c: 510:     TMR0L = 100;
  7709  003046  0E64               	movlw	100
  7710  003048  6ED6               	movwf	214,c	;volatile
  7711  00304A                     
  7712                           ;C:\Users\JeeJ\MPLABXProjects\ProjetoF_micro.X\main.c: 511:     INTCONbits.TMR0IF = 0;
  7713  00304A  94F2               	bcf	242,2,c	;volatile
  7714  00304C  0012               	return		;funcret
  7715  00304E                     __end_of_configureTimer:
  7716                           	callstack 0
  7717                           
  7718 ;; *************** function _configureLCD *****************
  7719 ;; Defined at:
  7720 ;;		line 477 in file "C:\Users\JeeJ\MPLABXProjects\ProjetoF_micro.X\main.c"
  7721 ;; Parameters:    Size  Location     Type
  7722 ;;		None
  7723 ;; Auto vars:     Size  Location     Type
  7724 ;;		None
  7725 ;; Return value:  Size  Location     Type
  7726 ;;                  1    wreg      void 
  7727 ;; Registers used:
  7728 ;;		wreg, status,2, status,0, cstack
  7729 ;; Tracked objects:
  7730 ;;		On entry : 0/0
  7731 ;;		On exit  : 0/0
  7732 ;;		Unchanged: 0/0
  7733 ;; Data sizes:     COMRAM   BANK0   BANK1   BANK2   BANK3   BANK4   BANK5   BANK6   BANK7
  7734 ;;      Params:         0       0       0       0       0       0       0       0       0
  7735 ;;      Locals:         0       0       0       0       0       0       0       0       0
  7736 ;;      Temps:          1       0       0       0       0       0       0       0       0
  7737 ;;      Totals:         1       0       0       0       0       0       0       0       0
  7738 ;;Total ram usage:        1 bytes
  7739 ;; Hardware stack levels used: 1
  7740 ;; Hardware stack levels required when called: 5
  7741 ;; This function calls:
  7742 ;;		_OpenXLCD
  7743 ;;		_WriteCmdXLCD
  7744 ;; This function is called by:
  7745 ;;		_main
  7746 ;; This function uses a non-reentrant model
  7747 ;;
  7748                           
  7749                           	psect	text26
  7750  002E48                     __ptext26:
  7751                           	callstack 0
  7752  002E48                     _configureLCD:
  7753                           	callstack 25
  7754  002E48                     
  7755                           ;C:\Users\JeeJ\MPLABXProjects\ProjetoF_micro.X\main.c: 478:     OpenXLCD(0b00101100 & 0b
      +                          00111000);
  7756  002E48  0E28               	movlw	40
  7757  002E4A  EC82  F013         	call	_OpenXLCD
  7758                           
  7759                           ;C:\Users\JeeJ\MPLABXProjects\ProjetoF_micro.X\main.c: 479:     WriteCmdXLCD(0x01);
  7760  002E4E  0E01               	movlw	1
  7761  002E50  ECA9  F017         	call	_WriteCmdXLCD
  7762  002E54                     
  7763                           ;C:\Users\JeeJ\MPLABXProjects\ProjetoF_micro.X\main.c: 480:     _delay((unsigned long)((
      +                          10)*(20000000/4000.0)));
  7764  002E54  0E41               	movlw	65
  7765  002E56  6E0C               	movwf	??_configureLCD^0,c
  7766  002E58  0EEE               	movlw	238
  7767  002E5A                     u5647:
  7768  002E5A  2EE8               	decfsz	wreg,f,c
  7769  002E5C  D7FE               	bra	u5647
  7770  002E5E  2E0C               	decfsz	??_configureLCD^0,f,c
  7771  002E60  D7FC               	bra	u5647
  7772  002E62  D000               	nop2	
  7773  002E64                     
  7774                           ;C:\Users\JeeJ\MPLABXProjects\ProjetoF_micro.X\main.c: 481:     WriteCmdXLCD(0x02);
  7775  002E64  0E02               	movlw	2
  7776  002E66  ECA9  F017         	call	_WriteCmdXLCD
  7777                           
  7778                           ;C:\Users\JeeJ\MPLABXProjects\ProjetoF_micro.X\main.c: 482:     _delay((unsigned long)((
      +                          2)*(20000000/4000.0)));
  7779  002E6A  0E0D               	movlw	13
  7780  002E6C  6E0C               	movwf	??_configureLCD^0,c
  7781  002E6E  0EFC               	movlw	252
  7782  002E70                     u5657:
  7783  002E70  2EE8               	decfsz	wreg,f,c
  7784  002E72  D7FE               	bra	u5657
  7785  002E74  2E0C               	decfsz	??_configureLCD^0,f,c
  7786  002E76  D7FC               	bra	u5657
  7787  002E78                     
  7788                           ;C:\Users\JeeJ\MPLABXProjects\ProjetoF_micro.X\main.c: 483:     WriteCmdXLCD(0x0C);
  7789  002E78  0E0C               	movlw	12
  7790  002E7A  ECA9  F017         	call	_WriteCmdXLCD
  7791  002E7E                     
  7792                           ;C:\Users\JeeJ\MPLABXProjects\ProjetoF_micro.X\main.c: 484:     _delay((unsigned long)((
      +                          2)*(20000000/4000.0)));
  7793  002E7E  0E0D               	movlw	13
  7794  002E80  6E0C               	movwf	??_configureLCD^0,c
  7795  002E82  0EFC               	movlw	252
  7796  002E84                     u5667:
  7797  002E84  2EE8               	decfsz	wreg,f,c
  7798  002E86  D7FE               	bra	u5667
  7799  002E88  2E0C               	decfsz	??_configureLCD^0,f,c
  7800  002E8A  D7FC               	bra	u5667
  7801  002E8C  0012               	return		;funcret
  7802  002E8E                     __end_of_configureLCD:
  7803                           	callstack 0
  7804                           
  7805 ;; *************** function _OpenXLCD *****************
  7806 ;; Defined at:
  7807 ;;		line 41 in file "C:\Users\JeeJ\MPLABXProjects\ProjetoF_micro.X\nxlcd.c"
  7808 ;; Parameters:    Size  Location     Type
  7809 ;;  lcdtype         1    wreg     unsigned char 
  7810 ;; Auto vars:     Size  Location     Type
  7811 ;;  lcdtype         1   10[COMRAM] unsigned char 
  7812 ;; Return value:  Size  Location     Type
  7813 ;;                  1    wreg      void 
  7814 ;; Registers used:
  7815 ;;		wreg, status,2, status,0, cstack
  7816 ;; Tracked objects:
  7817 ;;		On entry : 0/0
  7818 ;;		On exit  : 0/0
  7819 ;;		Unchanged: 0/0
  7820 ;; Data sizes:     COMRAM   BANK0   BANK1   BANK2   BANK3   BANK4   BANK5   BANK6   BANK7
  7821 ;;      Params:         0       0       0       0       0       0       0       0       0
  7822 ;;      Locals:         1       0       0       0       0       0       0       0       0
  7823 ;;      Temps:          0       0       0       0       0       0       0       0       0
  7824 ;;      Totals:         1       0       0       0       0       0       0       0       0
  7825 ;;Total ram usage:        1 bytes
  7826 ;; Hardware stack levels used: 1
  7827 ;; Hardware stack levels required when called: 4
  7828 ;; This function calls:
  7829 ;;		_BusyXLCD
  7830 ;;		_DelayPORXLCD
  7831 ;;		_DelayXLCD
  7832 ;;		_SetDDRamAddr
  7833 ;;		_WriteCmdXLCD
  7834 ;; This function is called by:
  7835 ;;		_configureLCD
  7836 ;; This function uses a non-reentrant model
  7837 ;;
  7838                           
  7839                           	psect	text27
  7840  002704                     __ptext27:
  7841                           	callstack 0
  7842  002704                     _OpenXLCD:
  7843                           	callstack 25
  7844                           
  7845                           ;incstack = 0
  7846                           ;OpenXLCD@lcdtype stored from wreg
  7847  002704  6E0B               	movwf	OpenXLCD@lcdtype^0,c
  7848  002706                     
  7849                           ;C:\Users\JeeJ\MPLABXProjects\ProjetoF_micro.X\nxlcd.c: 41: void OpenXLCD(unsigned char 
      +                          lcdtype);C:\Users\JeeJ\MPLABXProjects\ProjetoF_micro.X\nxlcd.c: 42: {;C:\Users\JeeJ\MPLA
      +                          BXProjects\ProjetoF_micro.X\nxlcd.c: 50:         PORTD &= 0x0f;
  7850  002706  0E0F               	movlw	15
  7851  002708  1683               	andwf	131,f,c	;volatile
  7852                           
  7853                           ;C:\Users\JeeJ\MPLABXProjects\ProjetoF_micro.X\nxlcd.c: 51:         TRISD &= 0x0F;
  7854  00270A  0E0F               	movlw	15
  7855  00270C  1695               	andwf	149,f,c	;volatile
  7856  00270E                     
  7857                           ;C:\Users\JeeJ\MPLABXProjects\ProjetoF_micro.X\nxlcd.c: 57:         TRISEbits.TRISE2 = 0
      +                          ;
  7858  00270E  9496               	bcf	150,2,c	;volatile
  7859  002710                     
  7860                           ;C:\Users\JeeJ\MPLABXProjects\ProjetoF_micro.X\nxlcd.c: 58:         TRISEbits.TRISE0 = 0
      +                          ;
  7861  002710  9096               	bcf	150,0,c	;volatile
  7862  002712                     
  7863                           ;C:\Users\JeeJ\MPLABXProjects\ProjetoF_micro.X\nxlcd.c: 59:         TRISEbits.TRISE1 = 0
      +                          ;
  7864  002712  9296               	bcf	150,1,c	;volatile
  7865  002714                     
  7866                           ;C:\Users\JeeJ\MPLABXProjects\ProjetoF_micro.X\nxlcd.c: 60:         LATEbits.LATE2 = 0;
  7867  002714  948D               	bcf	141,2,c	;volatile
  7868  002716                     
  7869                           ;C:\Users\JeeJ\MPLABXProjects\ProjetoF_micro.X\nxlcd.c: 61:         LATEbits.LATE0 = 0;
  7870  002716  908D               	bcf	141,0,c	;volatile
  7871  002718                     
  7872                           ;C:\Users\JeeJ\MPLABXProjects\ProjetoF_micro.X\nxlcd.c: 62:         LATEbits.LATE1 = 0;
  7873  002718  928D               	bcf	141,1,c	;volatile
  7874  00271A                     
  7875                           ;C:\Users\JeeJ\MPLABXProjects\ProjetoF_micro.X\nxlcd.c: 65:         DelayPORXLCD();
  7876  00271A  EC19  F018         	call	_DelayPORXLCD	;wreg free
  7877  00271E                     
  7878                           ;C:\Users\JeeJ\MPLABXProjects\ProjetoF_micro.X\nxlcd.c: 67:    WriteCmdXLCD(0x30);
  7879  00271E  0E30               	movlw	48
  7880  002720  ECA9  F017         	call	_WriteCmdXLCD
  7881  002724                     
  7882                           ;C:\Users\JeeJ\MPLABXProjects\ProjetoF_micro.X\nxlcd.c: 68:    DelayXLCD();
  7883  002724  EC10  F018         	call	_DelayXLCD	;wreg free
  7884  002728                     
  7885                           ;C:\Users\JeeJ\MPLABXProjects\ProjetoF_micro.X\nxlcd.c: 69:    DelayXLCD();
  7886  002728  EC10  F018         	call	_DelayXLCD	;wreg free
  7887  00272C                     
  7888                           ;C:\Users\JeeJ\MPLABXProjects\ProjetoF_micro.X\nxlcd.c: 70:    WriteCmdXLCD(0x30);
  7889  00272C  0E30               	movlw	48
  7890  00272E  ECA9  F017         	call	_WriteCmdXLCD
  7891  002732                     
  7892                           ;C:\Users\JeeJ\MPLABXProjects\ProjetoF_micro.X\nxlcd.c: 71:    DelayXLCD();
  7893  002732  EC10  F018         	call	_DelayXLCD	;wreg free
  7894  002736                     
  7895                           ;C:\Users\JeeJ\MPLABXProjects\ProjetoF_micro.X\nxlcd.c: 72:    DelayXLCD();
  7896  002736  EC10  F018         	call	_DelayXLCD	;wreg free
  7897  00273A                     
  7898                           ;C:\Users\JeeJ\MPLABXProjects\ProjetoF_micro.X\nxlcd.c: 73:    WriteCmdXLCD(0x32);
  7899  00273A  0E32               	movlw	50
  7900  00273C  ECA9  F017         	call	_WriteCmdXLCD
  7901  002740                     l3761:
  7902  002740  EC47  F017         	call	_BusyXLCD	;wreg free
  7903  002744  0900               	iorlw	0
  7904  002746  A4D8               	btfss	status,2,c
  7905  002748  EFA8  F013         	goto	u3441
  7906  00274C  EFAA  F013         	goto	u3440
  7907  002750                     u3441:
  7908  002750  EFA0  F013         	goto	l3761
  7909  002754                     u3440:
  7910  002754                     l3763:
  7911  002754  EC47  F017         	call	_BusyXLCD	;wreg free
  7912  002758  0900               	iorlw	0
  7913  00275A  A4D8               	btfss	status,2,c
  7914  00275C  EFB2  F013         	goto	u3451
  7915  002760  EFB4  F013         	goto	u3450
  7916  002764                     u3451:
  7917  002764  EFAA  F013         	goto	l3763
  7918  002768                     u3450:
  7919  002768                     
  7920                           ;C:\Users\JeeJ\MPLABXProjects\ProjetoF_micro.X\nxlcd.c: 80:         WriteCmdXLCD(lcdtype
      +                          );
  7921  002768  500B               	movf	OpenXLCD@lcdtype^0,w,c
  7922  00276A  ECA9  F017         	call	_WriteCmdXLCD
  7923  00276E                     l3767:
  7924  00276E  EC47  F017         	call	_BusyXLCD	;wreg free
  7925  002772  0900               	iorlw	0
  7926  002774  A4D8               	btfss	status,2,c
  7927  002776  EFBF  F013         	goto	u3461
  7928  00277A  EFC1  F013         	goto	u3460
  7929  00277E                     u3461:
  7930  00277E  EFB7  F013         	goto	l3767
  7931  002782                     u3460:
  7932  002782                     
  7933                           ;C:\Users\JeeJ\MPLABXProjects\ProjetoF_micro.X\nxlcd.c: 84:         WriteCmdXLCD(0b00001
      +                          011&0b00001101&0b00001110);
  7934  002782  0E08               	movlw	8
  7935  002784  ECA9  F017         	call	_WriteCmdXLCD
  7936  002788                     l3771:
  7937  002788  EC47  F017         	call	_BusyXLCD	;wreg free
  7938  00278C  0900               	iorlw	0
  7939  00278E  A4D8               	btfss	status,2,c
  7940  002790  EFCC  F013         	goto	u3471
  7941  002794  EFCE  F013         	goto	u3470
  7942  002798                     u3471:
  7943  002798  EFC4  F013         	goto	l3771
  7944  00279C                     u3470:
  7945  00279C                     
  7946                           ;C:\Users\JeeJ\MPLABXProjects\ProjetoF_micro.X\nxlcd.c: 86:         WriteCmdXLCD(0b00001
      +                          111&0b00001111&0b00001111);
  7947  00279C  0E0F               	movlw	15
  7948  00279E  ECA9  F017         	call	_WriteCmdXLCD
  7949  0027A2                     l3775:
  7950  0027A2  EC47  F017         	call	_BusyXLCD	;wreg free
  7951  0027A6  0900               	iorlw	0
  7952  0027A8  A4D8               	btfss	status,2,c
  7953  0027AA  EFD9  F013         	goto	u3481
  7954  0027AE  EFDB  F013         	goto	u3480
  7955  0027B2                     u3481:
  7956  0027B2  EFD1  F013         	goto	l3775
  7957  0027B6                     u3480:
  7958  0027B6                     
  7959                           ;C:\Users\JeeJ\MPLABXProjects\ProjetoF_micro.X\nxlcd.c: 90:         WriteCmdXLCD(0x01);
  7960  0027B6  0E01               	movlw	1
  7961  0027B8  ECA9  F017         	call	_WriteCmdXLCD
  7962  0027BC                     l3779:
  7963  0027BC  EC47  F017         	call	_BusyXLCD	;wreg free
  7964  0027C0  0900               	iorlw	0
  7965  0027C2  A4D8               	btfss	status,2,c
  7966  0027C4  EFE6  F013         	goto	u3491
  7967  0027C8  EFE8  F013         	goto	u3490
  7968  0027CC                     u3491:
  7969  0027CC  EFDE  F013         	goto	l3779
  7970  0027D0                     u3490:
  7971  0027D0                     
  7972                           ;C:\Users\JeeJ\MPLABXProjects\ProjetoF_micro.X\nxlcd.c: 94:         WriteCmdXLCD(0b00000
      +                          100);
  7973  0027D0  0E04               	movlw	4
  7974  0027D2  ECA9  F017         	call	_WriteCmdXLCD
  7975  0027D6                     l3783:
  7976  0027D6  EC47  F017         	call	_BusyXLCD	;wreg free
  7977  0027DA  0900               	iorlw	0
  7978  0027DC  A4D8               	btfss	status,2,c
  7979  0027DE  EFF3  F013         	goto	u3501
  7980  0027E2  EFF5  F013         	goto	u3500
  7981  0027E6                     u3501:
  7982  0027E6  EFEB  F013         	goto	l3783
  7983  0027EA                     u3500:
  7984  0027EA                     
  7985                           ;C:\Users\JeeJ\MPLABXProjects\ProjetoF_micro.X\nxlcd.c: 98:         SetDDRamAddr(0x80);
  7986  0027EA  0E80               	movlw	128
  7987  0027EC  EC6A  F017         	call	_SetDDRamAddr
  7988  0027F0  0012               	return		;funcret
  7989  0027F2                     __end_of_OpenXLCD:
  7990                           	callstack 0
  7991                           
  7992 ;; *************** function _WriteCmdXLCD *****************
  7993 ;; Defined at:
  7994 ;;		line 388 in file "C:\Users\JeeJ\MPLABXProjects\ProjetoF_micro.X\nxlcd.c"
  7995 ;; Parameters:    Size  Location     Type
  7996 ;;  cmd             1    wreg     unsigned char 
  7997 ;; Auto vars:     Size  Location     Type
  7998 ;;  cmd             1    9[COMRAM] unsigned char 
  7999 ;; Return value:  Size  Location     Type
  8000 ;;                  1    wreg      void 
  8001 ;; Registers used:
  8002 ;;		wreg, status,2, status,0, cstack
  8003 ;; Tracked objects:
  8004 ;;		On entry : 0/0
  8005 ;;		On exit  : 0/0
  8006 ;;		Unchanged: 0/0
  8007 ;; Data sizes:     COMRAM   BANK0   BANK1   BANK2   BANK3   BANK4   BANK5   BANK6   BANK7
  8008 ;;      Params:         0       0       0       0       0       0       0       0       0
  8009 ;;      Locals:         1       0       0       0       0       0       0       0       0
  8010 ;;      Temps:          0       0       0       0       0       0       0       0       0
  8011 ;;      Totals:         1       0       0       0       0       0       0       0       0
  8012 ;;Total ram usage:        1 bytes
  8013 ;; Hardware stack levels used: 1
  8014 ;; Hardware stack levels required when called: 3
  8015 ;; This function calls:
  8016 ;;		_DelayFor18TCY
  8017 ;; This function is called by:
  8018 ;;		_displayMenu
  8019 ;;		_readTwoDigitValue
  8020 ;;		_configureLCD
  8021 ;;		_displayStuff
  8022 ;;		_OpenXLCD
  8023 ;; This function uses a non-reentrant model
  8024 ;;
  8025                           
  8026                           	psect	text28
  8027  002F52                     __ptext28:
  8028                           	callstack 0
  8029  002F52                     _WriteCmdXLCD:
  8030                           	callstack 25
  8031                           
  8032                           ;incstack = 0
  8033                           ;WriteCmdXLCD@cmd stored from wreg
  8034  002F52  6E0A               	movwf	WriteCmdXLCD@cmd^0,c
  8035  002F54                     
  8036                           ;C:\Users\JeeJ\MPLABXProjects\ProjetoF_micro.X\nxlcd.c: 388: void WriteCmdXLCD(unsigned 
      +                          char cmd);C:\Users\JeeJ\MPLABXProjects\ProjetoF_micro.X\nxlcd.c: 389: {;C:\Users\JeeJ\MP
      +                          LABXProjects\ProjetoF_micro.X\nxlcd.c: 403:         TRISD &= 0x0f;
  8037  002F54  0E0F               	movlw	15
  8038  002F56  1695               	andwf	149,f,c	;volatile
  8039                           
  8040                           ;C:\Users\JeeJ\MPLABXProjects\ProjetoF_micro.X\nxlcd.c: 404:         PORTD &= 0x0f;
  8041  002F58  0E0F               	movlw	15
  8042  002F5A  1683               	andwf	131,f,c	;volatile
  8043                           
  8044                           ;C:\Users\JeeJ\MPLABXProjects\ProjetoF_micro.X\nxlcd.c: 405:         PORTD |= cmd&0xf0;
  8045  002F5C  500A               	movf	WriteCmdXLCD@cmd^0,w,c
  8046  002F5E  0BF0               	andlw	240
  8047  002F60  1283               	iorwf	131,f,c	;volatile
  8048  002F62                     
  8049                           ;C:\Users\JeeJ\MPLABXProjects\ProjetoF_micro.X\nxlcd.c: 411:         LATEbits.LATE2 = 0;
  8050  002F62  948D               	bcf	141,2,c	;volatile
  8051  002F64                     
  8052                           ;C:\Users\JeeJ\MPLABXProjects\ProjetoF_micro.X\nxlcd.c: 412:         LATEbits.LATE0 = 0;
  8053  002F64  908D               	bcf	141,0,c	;volatile
  8054  002F66                     
  8055                           ;C:\Users\JeeJ\MPLABXProjects\ProjetoF_micro.X\nxlcd.c: 413:         DelayFor18TCY();
  8056  002F66  EC2D  F018         	call	_DelayFor18TCY	;wreg free
  8057  002F6A                     
  8058                           ;C:\Users\JeeJ\MPLABXProjects\ProjetoF_micro.X\nxlcd.c: 414:         LATEbits.LATE1 = 1;
  8059  002F6A  828D               	bsf	141,1,c	;volatile
  8060  002F6C                     
  8061                           ;C:\Users\JeeJ\MPLABXProjects\ProjetoF_micro.X\nxlcd.c: 415:         DelayFor18TCY();
  8062  002F6C  EC2D  F018         	call	_DelayFor18TCY	;wreg free
  8063  002F70                     
  8064                           ;C:\Users\JeeJ\MPLABXProjects\ProjetoF_micro.X\nxlcd.c: 416:         LATEbits.LATE1 = 0;
  8065  002F70  928D               	bcf	141,1,c	;volatile
  8066                           
  8067                           ;C:\Users\JeeJ\MPLABXProjects\ProjetoF_micro.X\nxlcd.c: 418:         PORTD &= 0x0f;
  8068  002F72  0E0F               	movlw	15
  8069  002F74  1683               	andwf	131,f,c	;volatile
  8070                           
  8071                           ;C:\Users\JeeJ\MPLABXProjects\ProjetoF_micro.X\nxlcd.c: 419:         PORTD |= (cmd<<4)&0
      +                          xf0;
  8072  002F76  380A               	swapf	WriteCmdXLCD@cmd^0,w,c
  8073  002F78  0BF0               	andlw	240
  8074  002F7A  0BF0               	andlw	240
  8075  002F7C  1283               	iorwf	131,f,c	;volatile
  8076  002F7E                     
  8077                           ;C:\Users\JeeJ\MPLABXProjects\ProjetoF_micro.X\nxlcd.c: 424:         DelayFor18TCY();
  8078  002F7E  EC2D  F018         	call	_DelayFor18TCY	;wreg free
  8079  002F82                     
  8080                           ;C:\Users\JeeJ\MPLABXProjects\ProjetoF_micro.X\nxlcd.c: 425:         LATEbits.LATE1 = 1;
  8081  002F82  828D               	bsf	141,1,c	;volatile
  8082  002F84                     
  8083                           ;C:\Users\JeeJ\MPLABXProjects\ProjetoF_micro.X\nxlcd.c: 426:         DelayFor18TCY();
  8084  002F84  EC2D  F018         	call	_DelayFor18TCY	;wreg free
  8085  002F88                     
  8086                           ;C:\Users\JeeJ\MPLABXProjects\ProjetoF_micro.X\nxlcd.c: 427:         LATEbits.LATE1 = 0;
  8087  002F88  928D               	bcf	141,1,c	;volatile
  8088                           
  8089                           ;C:\Users\JeeJ\MPLABXProjects\ProjetoF_micro.X\nxlcd.c: 429:         TRISD |= 0xf0;
  8090  002F8A  0EF0               	movlw	240
  8091  002F8C  1295               	iorwf	149,f,c	;volatile
  8092  002F8E  0012               	return		;funcret
  8093  002F90                     __end_of_WriteCmdXLCD:
  8094                           	callstack 0
  8095                           
  8096 ;; *************** function _SetDDRamAddr *****************
  8097 ;; Defined at:
  8098 ;;		line 171 in file "C:\Users\JeeJ\MPLABXProjects\ProjetoF_micro.X\nxlcd.c"
  8099 ;; Parameters:    Size  Location     Type
  8100 ;;  DDaddr          1    wreg     unsigned char 
  8101 ;; Auto vars:     Size  Location     Type
  8102 ;;  DDaddr          1    9[COMRAM] unsigned char 
  8103 ;; Return value:  Size  Location     Type
  8104 ;;                  1    wreg      void 
  8105 ;; Registers used:
  8106 ;;		wreg, status,2, status,0, cstack
  8107 ;; Tracked objects:
  8108 ;;		On entry : 0/0
  8109 ;;		On exit  : 0/0
  8110 ;;		Unchanged: 0/0
  8111 ;; Data sizes:     COMRAM   BANK0   BANK1   BANK2   BANK3   BANK4   BANK5   BANK6   BANK7
  8112 ;;      Params:         0       0       0       0       0       0       0       0       0
  8113 ;;      Locals:         1       0       0       0       0       0       0       0       0
  8114 ;;      Temps:          0       0       0       0       0       0       0       0       0
  8115 ;;      Totals:         1       0       0       0       0       0       0       0       0
  8116 ;;Total ram usage:        1 bytes
  8117 ;; Hardware stack levels used: 1
  8118 ;; Hardware stack levels required when called: 3
  8119 ;; This function calls:
  8120 ;;		_DelayFor18TCY
  8121 ;; This function is called by:
  8122 ;;		_OpenXLCD
  8123 ;; This function uses a non-reentrant model
  8124 ;;
  8125                           
  8126                           	psect	text29
  8127  002ED4                     __ptext29:
  8128                           	callstack 0
  8129  002ED4                     _SetDDRamAddr:
  8130                           	callstack 25
  8131                           
  8132                           ;incstack = 0
  8133                           ;SetDDRamAddr@DDaddr stored from wreg
  8134  002ED4  6E0A               	movwf	SetDDRamAddr@DDaddr^0,c
  8135  002ED6                     
  8136                           ;C:\Users\JeeJ\MPLABXProjects\ProjetoF_micro.X\nxlcd.c: 171: void SetDDRamAddr(unsigned 
      +                          char DDaddr);C:\Users\JeeJ\MPLABXProjects\ProjetoF_micro.X\nxlcd.c: 172: {;C:\Users\JeeJ
      +                          \MPLABXProjects\ProjetoF_micro.X\nxlcd.c: 186:         TRISD &= 0x0f;
  8137  002ED6  0E0F               	movlw	15
  8138  002ED8  1695               	andwf	149,f,c	;volatile
  8139                           
  8140                           ;C:\Users\JeeJ\MPLABXProjects\ProjetoF_micro.X\nxlcd.c: 187:         PORTD &= 0x0f;
  8141  002EDA  0E0F               	movlw	15
  8142  002EDC  1683               	andwf	131,f,c	;volatile
  8143                           
  8144                           ;C:\Users\JeeJ\MPLABXProjects\ProjetoF_micro.X\nxlcd.c: 188:         PORTD |= ((DDaddr |
      +                           0b10000000) & 0xf0);
  8145  002EDE  500A               	movf	SetDDRamAddr@DDaddr^0,w,c
  8146  002EE0  0980               	iorlw	128
  8147  002EE2  0BF0               	andlw	240
  8148  002EE4  1283               	iorwf	131,f,c	;volatile
  8149  002EE6                     
  8150                           ;C:\Users\JeeJ\MPLABXProjects\ProjetoF_micro.X\nxlcd.c: 194:         LATEbits.LATE2 = 0;
  8151  002EE6  948D               	bcf	141,2,c	;volatile
  8152  002EE8                     
  8153                           ;C:\Users\JeeJ\MPLABXProjects\ProjetoF_micro.X\nxlcd.c: 195:         LATEbits.LATE0 = 0;
  8154  002EE8  908D               	bcf	141,0,c	;volatile
  8155  002EEA                     
  8156                           ;C:\Users\JeeJ\MPLABXProjects\ProjetoF_micro.X\nxlcd.c: 196:         DelayFor18TCY();
  8157  002EEA  EC2D  F018         	call	_DelayFor18TCY	;wreg free
  8158  002EEE                     
  8159                           ;C:\Users\JeeJ\MPLABXProjects\ProjetoF_micro.X\nxlcd.c: 197:         LATEbits.LATE1 = 1;
  8160  002EEE  828D               	bsf	141,1,c	;volatile
  8161  002EF0                     
  8162                           ;C:\Users\JeeJ\MPLABXProjects\ProjetoF_micro.X\nxlcd.c: 198:         DelayFor18TCY();
  8163  002EF0  EC2D  F018         	call	_DelayFor18TCY	;wreg free
  8164  002EF4                     
  8165                           ;C:\Users\JeeJ\MPLABXProjects\ProjetoF_micro.X\nxlcd.c: 199:         LATEbits.LATE1 = 0;
  8166  002EF4  928D               	bcf	141,1,c	;volatile
  8167                           
  8168                           ;C:\Users\JeeJ\MPLABXProjects\ProjetoF_micro.X\nxlcd.c: 201:         PORTD &= 0x0f;
  8169  002EF6  0E0F               	movlw	15
  8170  002EF8  1683               	andwf	131,f,c	;volatile
  8171                           
  8172                           ;C:\Users\JeeJ\MPLABXProjects\ProjetoF_micro.X\nxlcd.c: 202:         PORTD |= ((DDaddr<<
      +                          4)&0xf0);
  8173  002EFA  380A               	swapf	SetDDRamAddr@DDaddr^0,w,c
  8174  002EFC  0BF0               	andlw	240
  8175  002EFE  0BF0               	andlw	240
  8176  002F00  1283               	iorwf	131,f,c	;volatile
  8177  002F02                     
  8178                           ;C:\Users\JeeJ\MPLABXProjects\ProjetoF_micro.X\nxlcd.c: 207:         DelayFor18TCY();
  8179  002F02  EC2D  F018         	call	_DelayFor18TCY	;wreg free
  8180  002F06                     
  8181                           ;C:\Users\JeeJ\MPLABXProjects\ProjetoF_micro.X\nxlcd.c: 208:         LATEbits.LATE1 = 1;
  8182  002F06  828D               	bsf	141,1,c	;volatile
  8183  002F08                     
  8184                           ;C:\Users\JeeJ\MPLABXProjects\ProjetoF_micro.X\nxlcd.c: 209:         DelayFor18TCY();
  8185  002F08  EC2D  F018         	call	_DelayFor18TCY	;wreg free
  8186  002F0C                     
  8187                           ;C:\Users\JeeJ\MPLABXProjects\ProjetoF_micro.X\nxlcd.c: 210:         LATEbits.LATE1 = 0;
  8188  002F0C  928D               	bcf	141,1,c	;volatile
  8189                           
  8190                           ;C:\Users\JeeJ\MPLABXProjects\ProjetoF_micro.X\nxlcd.c: 212:         TRISD |= 0xf0;
  8191  002F0E  0EF0               	movlw	240
  8192  002F10  1295               	iorwf	149,f,c	;volatile
  8193  002F12  0012               	return		;funcret
  8194  002F14                     __end_of_SetDDRamAddr:
  8195                           	callstack 0
  8196                           
  8197 ;; *************** function _DelayXLCD *****************
  8198 ;; Defined at:
  8199 ;;		line 22 in file "C:\Users\JeeJ\MPLABXProjects\ProjetoF_micro.X\nxlcd.c"
  8200 ;; Parameters:    Size  Location     Type
  8201 ;;		None
  8202 ;; Auto vars:     Size  Location     Type
  8203 ;;		None
  8204 ;; Return value:  Size  Location     Type
  8205 ;;                  1    wreg      void 
  8206 ;; Registers used:
  8207 ;;		wreg
  8208 ;; Tracked objects:
  8209 ;;		On entry : 0/0
  8210 ;;		On exit  : 0/0
  8211 ;;		Unchanged: 0/0
  8212 ;; Data sizes:     COMRAM   BANK0   BANK1   BANK2   BANK3   BANK4   BANK5   BANK6   BANK7
  8213 ;;      Params:         0       0       0       0       0       0       0       0       0
  8214 ;;      Locals:         0       0       0       0       0       0       0       0       0
  8215 ;;      Temps:          1       0       0       0       0       0       0       0       0
  8216 ;;      Totals:         1       0       0       0       0       0       0       0       0
  8217 ;;Total ram usage:        1 bytes
  8218 ;; Hardware stack levels used: 1
  8219 ;; Hardware stack levels required when called: 2
  8220 ;; This function calls:
  8221 ;;		Nothing
  8222 ;; This function is called by:
  8223 ;;		_OpenXLCD
  8224 ;; This function uses a non-reentrant model
  8225 ;;
  8226                           
  8227                           	psect	text30
  8228  003020                     __ptext30:
  8229                           	callstack 0
  8230  003020                     _DelayXLCD:
  8231                           	callstack 26
  8232  003020                     
  8233                           ;C:\Users\JeeJ\MPLABXProjects\ProjetoF_micro.X\nxlcd.c: 24:     _delay((unsigned long)((
      +                          5)*(20000000/4000.0)));
  8234  003020  0E21               	movlw	33
  8235  003022  6E0A               	movwf	??_DelayXLCD^0,c
  8236  003024  0E76               	movlw	118
  8237  003026                     u5677:
  8238  003026  2EE8               	decfsz	wreg,f,c
  8239  003028  D7FE               	bra	u5677
  8240  00302A  2E0A               	decfsz	??_DelayXLCD^0,f,c
  8241  00302C  D7FC               	bra	u5677
  8242  00302E  D000               	nop2	
  8243  003030  0012               	return		;funcret
  8244  003032                     __end_of_DelayXLCD:
  8245                           	callstack 0
  8246                           
  8247 ;; *************** function _DelayPORXLCD *****************
  8248 ;; Defined at:
  8249 ;;		line 17 in file "C:\Users\JeeJ\MPLABXProjects\ProjetoF_micro.X\nxlcd.c"
  8250 ;; Parameters:    Size  Location     Type
  8251 ;;		None
  8252 ;; Auto vars:     Size  Location     Type
  8253 ;;		None
  8254 ;; Return value:  Size  Location     Type
  8255 ;;                  1    wreg      void 
  8256 ;; Registers used:
  8257 ;;		wreg
  8258 ;; Tracked objects:
  8259 ;;		On entry : 0/0
  8260 ;;		On exit  : 0/0
  8261 ;;		Unchanged: 0/0
  8262 ;; Data sizes:     COMRAM   BANK0   BANK1   BANK2   BANK3   BANK4   BANK5   BANK6   BANK7
  8263 ;;      Params:         0       0       0       0       0       0       0       0       0
  8264 ;;      Locals:         0       0       0       0       0       0       0       0       0
  8265 ;;      Temps:          1       0       0       0       0       0       0       0       0
  8266 ;;      Totals:         1       0       0       0       0       0       0       0       0
  8267 ;;Total ram usage:        1 bytes
  8268 ;; Hardware stack levels used: 1
  8269 ;; Hardware stack levels required when called: 2
  8270 ;; This function calls:
  8271 ;;		Nothing
  8272 ;; This function is called by:
  8273 ;;		_OpenXLCD
  8274 ;; This function uses a non-reentrant model
  8275 ;;
  8276                           
  8277                           	psect	text31
  8278  003032                     __ptext31:
  8279                           	callstack 0
  8280  003032                     _DelayPORXLCD:
  8281                           	callstack 26
  8282  003032                     
  8283                           ;C:\Users\JeeJ\MPLABXProjects\ProjetoF_micro.X\nxlcd.c: 19:     _delay((unsigned long)((
      +                          15)*(20000000/4000.0)));
  8284  003032  0E62               	movlw	98
  8285  003034  6E0A               	movwf	??_DelayPORXLCD^0,c
  8286  003036  0E66               	movlw	102
  8287  003038                     u5687:
  8288  003038  2EE8               	decfsz	wreg,f,c
  8289  00303A  D7FE               	bra	u5687
  8290  00303C  2E0A               	decfsz	??_DelayPORXLCD^0,f,c
  8291  00303E  D7FC               	bra	u5687
  8292  003040  0012               	return		;funcret
  8293  003042                     __end_of_DelayPORXLCD:
  8294                           	callstack 0
  8295                           
  8296 ;; *************** function _BusyXLCD *****************
  8297 ;; Defined at:
  8298 ;;		line 227 in file "C:\Users\JeeJ\MPLABXProjects\ProjetoF_micro.X\nxlcd.c"
  8299 ;; Parameters:    Size  Location     Type
  8300 ;;		None
  8301 ;; Auto vars:     Size  Location     Type
  8302 ;;		None
  8303 ;; Return value:  Size  Location     Type
  8304 ;;                  1    wreg      unsigned char 
  8305 ;; Registers used:
  8306 ;;		wreg, cstack
  8307 ;; Tracked objects:
  8308 ;;		On entry : 0/0
  8309 ;;		On exit  : 0/0
  8310 ;;		Unchanged: 0/0
  8311 ;; Data sizes:     COMRAM   BANK0   BANK1   BANK2   BANK3   BANK4   BANK5   BANK6   BANK7
  8312 ;;      Params:         0       0       0       0       0       0       0       0       0
  8313 ;;      Locals:         0       0       0       0       0       0       0       0       0
  8314 ;;      Temps:          0       0       0       0       0       0       0       0       0
  8315 ;;      Totals:         0       0       0       0       0       0       0       0       0
  8316 ;;Total ram usage:        0 bytes
  8317 ;; Hardware stack levels used: 1
  8318 ;; Hardware stack levels required when called: 3
  8319 ;; This function calls:
  8320 ;;		_DelayFor18TCY
  8321 ;; This function is called by:
  8322 ;;		_OpenXLCD
  8323 ;;		_putsXLCD
  8324 ;;		_putrsXLCD
  8325 ;; This function uses a non-reentrant model
  8326 ;;
  8327                           
  8328                           	psect	text32
  8329  002E8E                     __ptext32:
  8330                           	callstack 0
  8331  002E8E                     _BusyXLCD:
  8332                           	callstack 25
  8333  002E8E                     
  8334                           ;C:\Users\JeeJ\MPLABXProjects\ProjetoF_micro.X\nxlcd.c: 229:         LATEbits.LATE2 = 1;
  8335  002E8E  848D               	bsf	141,2,c	;volatile
  8336                           
  8337                           ;C:\Users\JeeJ\MPLABXProjects\ProjetoF_micro.X\nxlcd.c: 230:         LATEbits.LATE0 = 0;
  8338  002E90  908D               	bcf	141,0,c	;volatile
  8339  002E92                     
  8340                           ;C:\Users\JeeJ\MPLABXProjects\ProjetoF_micro.X\nxlcd.c: 231:         DelayFor18TCY();
  8341  002E92  EC2D  F018         	call	_DelayFor18TCY	;wreg free
  8342  002E96                     
  8343                           ;C:\Users\JeeJ\MPLABXProjects\ProjetoF_micro.X\nxlcd.c: 232:         LATEbits.LATE1 = 1;
  8344  002E96  828D               	bsf	141,1,c	;volatile
  8345                           
  8346                           ;C:\Users\JeeJ\MPLABXProjects\ProjetoF_micro.X\nxlcd.c: 233:         DelayFor18TCY();
  8347  002E98  EC2D  F018         	call	_DelayFor18TCY	;wreg free
  8348  002E9C                     
  8349                           ;C:\Users\JeeJ\MPLABXProjects\ProjetoF_micro.X\nxlcd.c: 249:         if(PORTD&0x80)
  8350  002E9C  AE83               	btfss	131,7,c	;volatile
  8351  002E9E  EF53  F017         	goto	u2481
  8352  002EA2  EF55  F017         	goto	u2480
  8353  002EA6                     u2481:
  8354  002EA6  EF60  F017         	goto	l351
  8355  002EAA                     u2480:
  8356  002EAA                     
  8357                           ;C:\Users\JeeJ\MPLABXProjects\ProjetoF_micro.X\nxlcd.c: 253:         {;C:\Users\JeeJ\MPL
      +                          ABXProjects\ProjetoF_micro.X\nxlcd.c: 254:                 LATEbits.LATE1 = 0;
  8358  002EAA  928D               	bcf	141,1,c	;volatile
  8359  002EAC                     
  8360                           ;C:\Users\JeeJ\MPLABXProjects\ProjetoF_micro.X\nxlcd.c: 255:                 DelayFor18T
      +                          CY();
  8361  002EAC  EC2D  F018         	call	_DelayFor18TCY	;wreg free
  8362  002EB0                     
  8363                           ;C:\Users\JeeJ\MPLABXProjects\ProjetoF_micro.X\nxlcd.c: 256:                 LATEbits.LA
      +                          TE1 = 1;
  8364  002EB0  828D               	bsf	141,1,c	;volatile
  8365                           
  8366                           ;C:\Users\JeeJ\MPLABXProjects\ProjetoF_micro.X\nxlcd.c: 257:                 DelayFor18T
      +                          CY();
  8367  002EB2  EC2D  F018         	call	_DelayFor18TCY	;wreg free
  8368  002EB6                     
  8369                           ;C:\Users\JeeJ\MPLABXProjects\ProjetoF_micro.X\nxlcd.c: 258:                 LATEbits.LA
      +                          TE1 = 0;
  8370  002EB6  928D               	bcf	141,1,c	;volatile
  8371  002EB8                     
  8372                           ;C:\Users\JeeJ\MPLABXProjects\ProjetoF_micro.X\nxlcd.c: 259:                 LATEbits.LA
      +                          TE2 = 0;
  8373  002EB8  948D               	bcf	141,2,c	;volatile
  8374  002EBA                     
  8375                           ;C:\Users\JeeJ\MPLABXProjects\ProjetoF_micro.X\nxlcd.c: 260:                 return 1;
  8376  002EBA  0E01               	movlw	1
  8377  002EBC  EF69  F017         	goto	l352
  8378  002EC0                     l351:
  8379                           
  8380                           ;C:\Users\JeeJ\MPLABXProjects\ProjetoF_micro.X\nxlcd.c: 263:         {;C:\Users\JeeJ\MPL
      +                          ABXProjects\ProjetoF_micro.X\nxlcd.c: 264:                 LATEbits.LATE1 = 0;
  8381  002EC0  928D               	bcf	141,1,c	;volatile
  8382  002EC2                     
  8383                           ;C:\Users\JeeJ\MPLABXProjects\ProjetoF_micro.X\nxlcd.c: 265:                 DelayFor18T
      +                          CY();
  8384  002EC2  EC2D  F018         	call	_DelayFor18TCY	;wreg free
  8385  002EC6                     
  8386                           ;C:\Users\JeeJ\MPLABXProjects\ProjetoF_micro.X\nxlcd.c: 266:                 LATEbits.LA
      +                          TE1 = 1;
  8387  002EC6  828D               	bsf	141,1,c	;volatile
  8388                           
  8389                           ;C:\Users\JeeJ\MPLABXProjects\ProjetoF_micro.X\nxlcd.c: 267:                 DelayFor18T
      +                          CY();
  8390  002EC8  EC2D  F018         	call	_DelayFor18TCY	;wreg free
  8391  002ECC                     
  8392                           ;C:\Users\JeeJ\MPLABXProjects\ProjetoF_micro.X\nxlcd.c: 268:                 LATEbits.LA
      +                          TE1 = 0;
  8393  002ECC  928D               	bcf	141,1,c	;volatile
  8394  002ECE                     
  8395                           ;C:\Users\JeeJ\MPLABXProjects\ProjetoF_micro.X\nxlcd.c: 269:                 LATEbits.LA
      +                          TE2 = 0;
  8396  002ECE  948D               	bcf	141,2,c	;volatile
  8397  002ED0                     
  8398                           ;C:\Users\JeeJ\MPLABXProjects\ProjetoF_micro.X\nxlcd.c: 270:                 return 0;
  8399  002ED0  0E00               	movlw	0
  8400  002ED2                     l352:
  8401  002ED2  0012               	return		;funcret
  8402  002ED4                     __end_of_BusyXLCD:
  8403                           	callstack 0
  8404                           
  8405 ;; *************** function _DelayFor18TCY *****************
  8406 ;; Defined at:
  8407 ;;		line 12 in file "C:\Users\JeeJ\MPLABXProjects\ProjetoF_micro.X\nxlcd.c"
  8408 ;; Parameters:    Size  Location     Type
  8409 ;;		None
  8410 ;; Auto vars:     Size  Location     Type
  8411 ;;		None
  8412 ;; Return value:  Size  Location     Type
  8413 ;;                  1    wreg      void 
  8414 ;; Registers used:
  8415 ;;		wreg
  8416 ;; Tracked objects:
  8417 ;;		On entry : 0/0
  8418 ;;		On exit  : 0/0
  8419 ;;		Unchanged: 0/0
  8420 ;; Data sizes:     COMRAM   BANK0   BANK1   BANK2   BANK3   BANK4   BANK5   BANK6   BANK7
  8421 ;;      Params:         0       0       0       0       0       0       0       0       0
  8422 ;;      Locals:         0       0       0       0       0       0       0       0       0
  8423 ;;      Temps:          0       0       0       0       0       0       0       0       0
  8424 ;;      Totals:         0       0       0       0       0       0       0       0       0
  8425 ;;Total ram usage:        0 bytes
  8426 ;; Hardware stack levels used: 1
  8427 ;; Hardware stack levels required when called: 2
  8428 ;; This function calls:
  8429 ;;		Nothing
  8430 ;; This function is called by:
  8431 ;;		_SetDDRamAddr
  8432 ;;		_BusyXLCD
  8433 ;;		_WriteCmdXLCD
  8434 ;;		_WriteDataXLCD
  8435 ;;		_SetCGRamAddr
  8436 ;;		_ReadAddrXLCD
  8437 ;;		_ReadDataXLCD
  8438 ;; This function uses a non-reentrant model
  8439 ;;
  8440                           
  8441                           	psect	text33
  8442  00305A                     __ptext33:
  8443                           	callstack 0
  8444  00305A                     _DelayFor18TCY:
  8445                           	callstack 25
  8446  00305A                     
  8447                           ;C:\Users\JeeJ\MPLABXProjects\ProjetoF_micro.X\nxlcd.c: 14:     _delay((unsigned long)((
      +                          20)*(20000000/4000000.0)));
  8448  00305A  0E21               	movlw	33
  8449  00305C                     u5697:
  8450  00305C  2EE8               	decfsz	wreg,f,c
  8451  00305E  D7FE               	bra	u5697
  8452  003060  F000               	nop	
  8453  003062  0012               	return		;funcret
  8454  003064                     __end_of_DelayFor18TCY:
  8455                           	callstack 0
  8456                           
  8457 ;; *************** function _configureInterrupt *****************
  8458 ;; Defined at:
  8459 ;;		line 488 in file "C:\Users\JeeJ\MPLABXProjects\ProjetoF_micro.X\main.c"
  8460 ;; Parameters:    Size  Location     Type
  8461 ;;		None
  8462 ;; Auto vars:     Size  Location     Type
  8463 ;;		None
  8464 ;; Return value:  Size  Location     Type
  8465 ;;                  1    wreg      void 
  8466 ;; Registers used:
  8467 ;;		None
  8468 ;; Tracked objects:
  8469 ;;		On entry : 0/0
  8470 ;;		On exit  : 0/0
  8471 ;;		Unchanged: 0/0
  8472 ;; Data sizes:     COMRAM   BANK0   BANK1   BANK2   BANK3   BANK4   BANK5   BANK6   BANK7
  8473 ;;      Params:         0       0       0       0       0       0       0       0       0
  8474 ;;      Locals:         0       0       0       0       0       0       0       0       0
  8475 ;;      Temps:          0       0       0       0       0       0       0       0       0
  8476 ;;      Totals:         0       0       0       0       0       0       0       0       0
  8477 ;;Total ram usage:        0 bytes
  8478 ;; Hardware stack levels used: 1
  8479 ;; Hardware stack levels required when called: 2
  8480 ;; This function calls:
  8481 ;;		Nothing
  8482 ;; This function is called by:
  8483 ;;		_main
  8484 ;; This function uses a non-reentrant model
  8485 ;;
  8486                           
  8487                           	psect	text34
  8488  00300C                     __ptext34:
  8489                           	callstack 0
  8490  00300C                     _configureInterrupt:
  8491                           	callstack 28
  8492  00300C                     
  8493                           ;C:\Users\JeeJ\MPLABXProjects\ProjetoF_micro.X\main.c: 489:     RCONbits.IPEN = 1;
  8494  00300C  8ED0               	bsf	208,7,c	;volatile
  8495                           
  8496                           ;C:\Users\JeeJ\MPLABXProjects\ProjetoF_micro.X\main.c: 490:     INTCONbits.GIE = 1;
  8497  00300E  8EF2               	bsf	242,7,c	;volatile
  8498                           
  8499                           ;C:\Users\JeeJ\MPLABXProjects\ProjetoF_micro.X\main.c: 491:     INTCONbits.PEIE = 1;
  8500  003010  8CF2               	bsf	242,6,c	;volatile
  8501                           
  8502                           ;C:\Users\JeeJ\MPLABXProjects\ProjetoF_micro.X\main.c: 494:     INTCON2bits.TMR0IP = 1;
  8503  003012  84F1               	bsf	241,2,c	;volatile
  8504                           
  8505                           ;C:\Users\JeeJ\MPLABXProjects\ProjetoF_micro.X\main.c: 495:     INTCONbits.TMR0IE = 1;
  8506  003014  8AF2               	bsf	242,5,c	;volatile
  8507                           
  8508                           ;C:\Users\JeeJ\MPLABXProjects\ProjetoF_micro.X\main.c: 496:     INTCONbits.TMR0IF = 0;
  8509  003016  94F2               	bcf	242,2,c	;volatile
  8510                           
  8511                           ;C:\Users\JeeJ\MPLABXProjects\ProjetoF_micro.X\main.c: 499:     INTCON2bits.RBIP = 0;
  8512  003018  90F1               	bcf	241,0,c	;volatile
  8513                           
  8514                           ;C:\Users\JeeJ\MPLABXProjects\ProjetoF_micro.X\main.c: 500:     INTCONbits.RBIE = 0;
  8515  00301A  96F2               	bcf	242,3,c	;volatile
  8516                           
  8517                           ;C:\Users\JeeJ\MPLABXProjects\ProjetoF_micro.X\main.c: 501:     INTCONbits.RBIF = 0;
  8518  00301C  90F2               	bcf	242,0,c	;volatile
  8519  00301E  0012               	return		;funcret
  8520  003020                     __end_of_configureInterrupt:
  8521                           	callstack 0
  8522                           
  8523 ;; *************** function _configureIO *****************
  8524 ;; Defined at:
  8525 ;;		line 460 in file "C:\Users\JeeJ\MPLABXProjects\ProjetoF_micro.X\main.c"
  8526 ;; Parameters:    Size  Location     Type
  8527 ;;		None
  8528 ;; Auto vars:     Size  Location     Type
  8529 ;;		None
  8530 ;; Return value:  Size  Location     Type
  8531 ;;                  1    wreg      void 
  8532 ;; Registers used:
  8533 ;;		wreg, status,2
  8534 ;; Tracked objects:
  8535 ;;		On entry : 0/0
  8536 ;;		On exit  : 0/0
  8537 ;;		Unchanged: 0/0
  8538 ;; Data sizes:     COMRAM   BANK0   BANK1   BANK2   BANK3   BANK4   BANK5   BANK6   BANK7
  8539 ;;      Params:         0       0       0       0       0       0       0       0       0
  8540 ;;      Locals:         0       0       0       0       0       0       0       0       0
  8541 ;;      Temps:          0       0       0       0       0       0       0       0       0
  8542 ;;      Totals:         0       0       0       0       0       0       0       0       0
  8543 ;;Total ram usage:        0 bytes
  8544 ;; Hardware stack levels used: 1
  8545 ;; Hardware stack levels required when called: 2
  8546 ;; This function calls:
  8547 ;;		Nothing
  8548 ;; This function is called by:
  8549 ;;		_main
  8550 ;; This function uses a non-reentrant model
  8551 ;;
  8552                           
  8553                           	psect	text35
  8554  002FEE                     __ptext35:
  8555                           	callstack 0
  8556  002FEE                     _configureIO:
  8557                           	callstack 28
  8558  002FEE                     
  8559                           ;C:\Users\JeeJ\MPLABXProjects\ProjetoF_micro.X\main.c: 461:     TRISB = 0xF0;
  8560  002FEE  0EF0               	movlw	240
  8561  002FF0  6E93               	movwf	147,c	;volatile
  8562  002FF2                     
  8563                           ;C:\Users\JeeJ\MPLABXProjects\ProjetoF_micro.X\main.c: 462:     TRISAbits.RA3 = 1;
  8564  002FF2  8692               	bsf	146,3,c	;volatile
  8565  002FF4                     
  8566                           ;C:\Users\JeeJ\MPLABXProjects\ProjetoF_micro.X\main.c: 463:     TRISAbits.RA0 = 1;
  8567  002FF4  8092               	bsf	146,0,c	;volatile
  8568  002FF6                     
  8569                           ;C:\Users\JeeJ\MPLABXProjects\ProjetoF_micro.X\main.c: 464:     TRISAbits.RA2 = 1;
  8570  002FF6  8492               	bsf	146,2,c	;volatile
  8571  002FF8                     
  8572                           ;C:\Users\JeeJ\MPLABXProjects\ProjetoF_micro.X\main.c: 465:     TRISDbits.TRISD0 = 0;
  8573  002FF8  9095               	bcf	149,0,c	;volatile
  8574  002FFA                     
  8575                           ;C:\Users\JeeJ\MPLABXProjects\ProjetoF_micro.X\main.c: 466:     TRISDbits.TRISD1 = 0;
  8576  002FFA  9295               	bcf	149,1,c	;volatile
  8577  002FFC                     
  8578                           ;C:\Users\JeeJ\MPLABXProjects\ProjetoF_micro.X\main.c: 467:     TRISCbits.TRISC1 = 0;
  8579  002FFC  9294               	bcf	148,1,c	;volatile
  8580  002FFE                     
  8581                           ;C:\Users\JeeJ\MPLABXProjects\ProjetoF_micro.X\main.c: 468:     TRISCbits.TRISC2 = 0;
  8582  002FFE  9494               	bcf	148,2,c	;volatile
  8583  003000                     
  8584                           ;C:\Users\JeeJ\MPLABXProjects\ProjetoF_micro.X\main.c: 469:     PORTDbits.RD0 = 0;
  8585  003000  9083               	bcf	131,0,c	;volatile
  8586  003002                     
  8587                           ;C:\Users\JeeJ\MPLABXProjects\ProjetoF_micro.X\main.c: 470:     PORTDbits.RD1 = 0;
  8588  003002  9283               	bcf	131,1,c	;volatile
  8589  003004                     
  8590                           ;C:\Users\JeeJ\MPLABXProjects\ProjetoF_micro.X\main.c: 471:     PORTDbits.RD2 = 0;
  8591  003004  9483               	bcf	131,2,c	;volatile
  8592  003006                     
  8593                           ;C:\Users\JeeJ\MPLABXProjects\ProjetoF_micro.X\main.c: 472:     PORTCbits.RC1 = 0;
  8594  003006  9282               	bcf	130,1,c	;volatile
  8595  003008                     
  8596                           ;C:\Users\JeeJ\MPLABXProjects\ProjetoF_micro.X\main.c: 473:     PORTCbits.RC2 = 0;
  8597  003008  9482               	bcf	130,2,c	;volatile
  8598  00300A  0012               	return		;funcret
  8599  00300C                     __end_of_configureIO:
  8600                           	callstack 0
  8601                           
  8602 ;; *************** function _configureADC *****************
  8603 ;; Defined at:
  8604 ;;		line 568 in file "C:\Users\JeeJ\MPLABXProjects\ProjetoF_micro.X\main.c"
  8605 ;; Parameters:    Size  Location     Type
  8606 ;;		None
  8607 ;; Auto vars:     Size  Location     Type
  8608 ;;		None
  8609 ;; Return value:  Size  Location     Type
  8610 ;;                  1    wreg      void 
  8611 ;; Registers used:
  8612 ;;		wreg, status,2
  8613 ;; Tracked objects:
  8614 ;;		On entry : 0/0
  8615 ;;		On exit  : 0/0
  8616 ;;		Unchanged: 0/0
  8617 ;; Data sizes:     COMRAM   BANK0   BANK1   BANK2   BANK3   BANK4   BANK5   BANK6   BANK7
  8618 ;;      Params:         0       0       0       0       0       0       0       0       0
  8619 ;;      Locals:         0       0       0       0       0       0       0       0       0
  8620 ;;      Temps:          0       0       0       0       0       0       0       0       0
  8621 ;;      Totals:         0       0       0       0       0       0       0       0       0
  8622 ;;Total ram usage:        0 bytes
  8623 ;; Hardware stack levels used: 1
  8624 ;; Hardware stack levels required when called: 2
  8625 ;; This function calls:
  8626 ;;		Nothing
  8627 ;; This function is called by:
  8628 ;;		_main
  8629 ;; This function uses a non-reentrant model
  8630 ;;
  8631                           
  8632                           	psect	text36
  8633  00304E                     __ptext36:
  8634                           	callstack 0
  8635  00304E                     _configureADC:
  8636                           	callstack 28
  8637  00304E                     
  8638                           ;C:\Users\JeeJ\MPLABXProjects\ProjetoF_micro.X\main.c: 569:     ADCON1 = 0b00001011;
  8639  00304E  0E0B               	movlw	11
  8640  003050  6EC1               	movwf	193,c	;volatile
  8641                           
  8642                           ;C:\Users\JeeJ\MPLABXProjects\ProjetoF_micro.X\main.c: 572:     ADCON2 = 0b10010101;
  8643  003052  0E95               	movlw	149
  8644  003054  6EC0               	movwf	192,c	;volatile
  8645  003056                     
  8646                           ;C:\Users\JeeJ\MPLABXProjects\ProjetoF_micro.X\main.c: 577:     ADCON0bits.ADON = 1;
  8647  003056  80C2               	bsf	194,0,c	;volatile
  8648  003058  0012               	return		;funcret
  8649  00305A                     __end_of_configureADC:
  8650                           	callstack 0
  8651                           
  8652 ;; *************** function _buzzer *****************
  8653 ;; Defined at:
  8654 ;;		line 650 in file "C:\Users\JeeJ\MPLABXProjects\ProjetoF_micro.X\main.c"
  8655 ;; Parameters:    Size  Location     Type
  8656 ;;  buzzerStatus    2    9[COMRAM] int 
  8657 ;; Auto vars:     Size  Location     Type
  8658 ;;		None
  8659 ;; Return value:  Size  Location     Type
  8660 ;;                  1    wreg      void 
  8661 ;; Registers used:
  8662 ;;		wreg, status,2, status,0
  8663 ;; Tracked objects:
  8664 ;;		On entry : 0/0
  8665 ;;		On exit  : 0/0
  8666 ;;		Unchanged: 0/0
  8667 ;; Data sizes:     COMRAM   BANK0   BANK1   BANK2   BANK3   BANK4   BANK5   BANK6   BANK7
  8668 ;;      Params:         2       0       0       0       0       0       0       0       0
  8669 ;;      Locals:         0       0       0       0       0       0       0       0       0
  8670 ;;      Temps:          0       0       0       0       0       0       0       0       0
  8671 ;;      Totals:         2       0       0       0       0       0       0       0       0
  8672 ;;Total ram usage:        2 bytes
  8673 ;; Hardware stack levels used: 1
  8674 ;; Hardware stack levels required when called: 2
  8675 ;; This function calls:
  8676 ;;		Nothing
  8677 ;; This function is called by:
  8678 ;;		_main
  8679 ;; This function uses a non-reentrant model
  8680 ;;
  8681                           
  8682                           	psect	text37
  8683  00306E                     __ptext37:
  8684                           	callstack 0
  8685  00306E                     _buzzer:
  8686                           	callstack 28
  8687  00306E  0012               	return		;funcret
  8688  003070                     __end_of_buzzer:
  8689                           	callstack 0
  8690                           
  8691 ;; *************** function _ISR *****************
  8692 ;; Defined at:
  8693 ;;		line 433 in file "C:\Users\JeeJ\MPLABXProjects\ProjetoF_micro.X\main.c"
  8694 ;; Parameters:    Size  Location     Type
  8695 ;;		None
  8696 ;; Auto vars:     Size  Location     Type
  8697 ;;		None
  8698 ;; Return value:  Size  Location     Type
  8699 ;;                  1    wreg      void 
  8700 ;; Registers used:
  8701 ;;		wreg, status,2, status,0, cstack
  8702 ;; Tracked objects:
  8703 ;;		On entry : 0/0
  8704 ;;		On exit  : 0/0
  8705 ;;		Unchanged: 0/0
  8706 ;; Data sizes:     COMRAM   BANK0   BANK1   BANK2   BANK3   BANK4   BANK5   BANK6   BANK7
  8707 ;;      Params:         0       0       0       0       0       0       0       0       0
  8708 ;;      Locals:         0       0       0       0       0       0       0       0       0
  8709 ;;      Temps:          0       0       0       0       0       0       0       0       0
  8710 ;;      Totals:         0       0       0       0       0       0       0       0       0
  8711 ;;Total ram usage:        0 bytes
  8712 ;; Hardware stack levels used: 1
  8713 ;; Hardware stack levels required when called: 1
  8714 ;; This function calls:
  8715 ;;		___llmod
  8716 ;; This function is called by:
  8717 ;;		Interrupt level 2
  8718 ;; This function uses a non-reentrant model
  8719 ;;
  8720                           
  8721                           	psect	intcode
  8722  000008                     __pintcode:
  8723                           	callstack 0
  8724  000008                     _ISR:
  8725                           	callstack 25
  8726                           
  8727                           ;incstack = 0
  8728  000008  8255               	bsf	int$flags,1,c	;set compiler interrupt flag (level 2)
  8729  00000A  ED1B  F016         	call	int_func,f	;refresh shadow registers
  8730                           
  8731                           	psect	intcode_body
  8732  002C36                     __pintcode_body:
  8733                           	callstack 25
  8734  002C36                     int_func:
  8735                           	callstack 25
  8736  002C36  0006               	pop		; remove dummy address from shadow register refresh
  8737  002C38                     
  8738                           ;C:\Users\JeeJ\MPLABXProjects\ProjetoF_micro.X\main.c: 434:     if (INTCONbits.TMR0IF) {
  8739  002C38  A4F2               	btfss	242,2,c	;volatile
  8740  002C3A  EF21  F016         	goto	i2u406_41
  8741  002C3E  EF23  F016         	goto	i2u406_40
  8742  002C42                     i2u406_41:
  8743  002C42  EF61  F016         	goto	i2l189
  8744  002C46                     i2u406_40:
  8745  002C46                     
  8746                           ;C:\Users\JeeJ\MPLABXProjects\ProjetoF_micro.X\main.c: 435:         TMR0L = 100;
  8747  002C46  0E64               	movlw	100
  8748  002C48  6ED6               	movwf	214,c	;volatile
  8749  002C4A                     
  8750                           ;C:\Users\JeeJ\MPLABXProjects\ProjetoF_micro.X\main.c: 436:         milliseconds++;
  8751  002C4A  0E01               	movlw	1
  8752  002C4C  264A               	addwf	_milliseconds^0,f,c	;volatile
  8753  002C4E  0E00               	movlw	0
  8754  002C50  224B               	addwfc	(_milliseconds+1)^0,f,c	;volatile
  8755  002C52  224C               	addwfc	(_milliseconds+2)^0,f,c	;volatile
  8756  002C54  224D               	addwfc	(_milliseconds+3)^0,f,c	;volatile
  8757  002C56                     
  8758                           ;C:\Users\JeeJ\MPLABXProjects\ProjetoF_micro.X\main.c: 437:         if (milliseconds % 1
      +                          000 == 0) {
  8759  002C56  C04A  F001         	movff	_milliseconds,___llmod@dividend	;volatile
  8760  002C5A  C04B  F002         	movff	_milliseconds+1,___llmod@dividend+1	;volatile
  8761  002C5E  C04C  F003         	movff	_milliseconds+2,___llmod@dividend+2	;volatile
  8762  002C62  C04D  F004         	movff	_milliseconds+3,___llmod@dividend+3	;volatile
  8763  002C66  0EE8               	movlw	232
  8764  002C68  6E05               	movwf	___llmod@divisor^0,c
  8765  002C6A  0E03               	movlw	3
  8766  002C6C  6E06               	movwf	(___llmod@divisor+1)^0,c
  8767  002C6E  0E00               	movlw	0
  8768  002C70  6E07               	movwf	(___llmod@divisor+2)^0,c
  8769  002C72  0E00               	movlw	0
  8770  002C74  6E08               	movwf	(___llmod@divisor+3)^0,c
  8771  002C76  EC63  F016         	call	___llmod	;wreg free
  8772  002C7A  5001               	movf	?___llmod^0,w,c
  8773  002C7C  1002               	iorwf	(?___llmod+1)^0,w,c
  8774  002C7E  1003               	iorwf	(?___llmod+2)^0,w,c
  8775  002C80  1004               	iorwf	(?___llmod+3)^0,w,c
  8776  002C82  A4D8               	btfss	status,2,c
  8777  002C84  EF46  F016         	goto	i2u407_41
  8778  002C88  EF48  F016         	goto	i2u407_40
  8779  002C8C                     i2u407_41:
  8780  002C8C  EF60  F016         	goto	i2l4247
  8781  002C90                     i2u407_40:
  8782  002C90                     
  8783                           ;C:\Users\JeeJ\MPLABXProjects\ProjetoF_micro.X\main.c: 438:             if (tak > 1) {
  8784  002C90  BE53               	btfsc	(_tak+1)^0,7,c	;volatile
  8785  002C92  EF54  F016         	goto	i2u408_41
  8786  002C96  5053               	movf	(_tak+1)^0,w,c	;volatile
  8787  002C98  E109               	bnz	i2u408_40
  8788  002C9A  0E02               	movlw	2
  8789  002C9C  5C52               	subwf	_tak^0,w,c	;volatile
  8790  002C9E  A0D8               	btfss	status,0,c
  8791  002CA0  EF54  F016         	goto	i2u408_41
  8792  002CA4  EF56  F016         	goto	i2u408_40
  8793  002CA8                     i2u408_41:
  8794  002CA8  EF5C  F016         	goto	i2l4245
  8795  002CAC                     i2u408_40:
  8796  002CAC                     
  8797                           ;C:\Users\JeeJ\MPLABXProjects\ProjetoF_micro.X\main.c: 439:                 tak = 0;
  8798  002CAC  0E00               	movlw	0
  8799  002CAE  6E53               	movwf	(_tak+1)^0,c	;volatile
  8800  002CB0  0E00               	movlw	0
  8801  002CB2  6E52               	movwf	_tak^0,c	;volatile
  8802                           
  8803                           ;C:\Users\JeeJ\MPLABXProjects\ProjetoF_micro.X\main.c: 440:             } else {
  8804  002CB4  EF60  F016         	goto	i2l4247
  8805  002CB8                     i2l4245:
  8806                           
  8807                           ;C:\Users\JeeJ\MPLABXProjects\ProjetoF_micro.X\main.c: 441:                 tak = 1;
  8808  002CB8  0E00               	movlw	0
  8809  002CBA  6E53               	movwf	(_tak+1)^0,c	;volatile
  8810  002CBC  0E01               	movlw	1
  8811  002CBE  6E52               	movwf	_tak^0,c	;volatile
  8812  002CC0                     i2l4247:
  8813                           
  8814                           ;C:\Users\JeeJ\MPLABXProjects\ProjetoF_micro.X\main.c: 444:         INTCONbits.TMR0IF = 
      +                          0;
  8815  002CC0  94F2               	bcf	242,2,c	;volatile
  8816  002CC2                     i2l189:
  8817  002CC2  9255               	bcf	int$flags,1,c	;clear compiler interrupt flag (level 2)
  8818  002CC4  0011               	retfie		f
  8819  002CC6                     __end_of_ISR:
  8820                           	callstack 0
  8821                           
  8822 ;; *************** function ___llmod *****************
  8823 ;; Defined at:
  8824 ;;		line 7 in file "c:\PROGRA~1\MICROC~1\xc8\v2.32\pic\sources\c99\common\llmod.c"
  8825 ;; Parameters:    Size  Location     Type
  8826 ;;  dividend        4    0[COMRAM] unsigned long 
  8827 ;;  divisor         4    4[COMRAM] unsigned long 
  8828 ;; Auto vars:     Size  Location     Type
  8829 ;;  counter         1    8[COMRAM] unsigned char 
  8830 ;; Return value:  Size  Location     Type
  8831 ;;                  4    0[COMRAM] unsigned long 
  8832 ;; Registers used:
  8833 ;;		wreg, status,2, status,0
  8834 ;; Tracked objects:
  8835 ;;		On entry : 0/0
  8836 ;;		On exit  : 0/0
  8837 ;;		Unchanged: 0/0
  8838 ;; Data sizes:     COMRAM   BANK0   BANK1   BANK2   BANK3   BANK4   BANK5   BANK6   BANK7
  8839 ;;      Params:         8       0       0       0       0       0       0       0       0
  8840 ;;      Locals:         1       0       0       0       0       0       0       0       0
  8841 ;;      Temps:          0       0       0       0       0       0       0       0       0
  8842 ;;      Totals:         9       0       0       0       0       0       0       0       0
  8843 ;;Total ram usage:        9 bytes
  8844 ;; Hardware stack levels used: 1
  8845 ;; This function calls:
  8846 ;;		Nothing
  8847 ;; This function is called by:
  8848 ;;		_ISR
  8849 ;; This function uses a non-reentrant model
  8850 ;;
  8851                           
  8852                           	psect	text39
  8853  002CC6                     __ptext39:
  8854                           	callstack 0
  8855  002CC6                     ___llmod:
  8856                           	callstack 25
  8857  002CC6  5005               	movf	___llmod@divisor^0,w,c
  8858  002CC8  1006               	iorwf	(___llmod@divisor+1)^0,w,c
  8859  002CCA  1007               	iorwf	(___llmod@divisor+2)^0,w,c
  8860  002CCC  1008               	iorwf	(___llmod@divisor+3)^0,w,c
  8861  002CCE  B4D8               	btfsc	status,2,c
  8862  002CD0  EF6C  F016         	goto	i2u375_41
  8863  002CD4  EF6E  F016         	goto	i2u375_40
  8864  002CD8                     i2u375_41:
  8865  002CD8  EF9E  F016         	goto	i2l806
  8866  002CDC                     i2u375_40:
  8867  002CDC  0E01               	movlw	1
  8868  002CDE  6E09               	movwf	___llmod@counter^0,c
  8869  002CE0  EF78  F016         	goto	i2l4047
  8870  002CE4                     i2l4045:
  8871  002CE4  90D8               	bcf	status,0,c
  8872  002CE6  3605               	rlcf	___llmod@divisor^0,f,c
  8873  002CE8  3606               	rlcf	(___llmod@divisor+1)^0,f,c
  8874  002CEA  3607               	rlcf	(___llmod@divisor+2)^0,f,c
  8875  002CEC  3608               	rlcf	(___llmod@divisor+3)^0,f,c
  8876  002CEE  2A09               	incf	___llmod@counter^0,f,c
  8877  002CF0                     i2l4047:
  8878  002CF0  AE08               	btfss	(___llmod@divisor+3)^0,7,c
  8879  002CF2  EF7D  F016         	goto	i2u376_41
  8880  002CF6  EF7F  F016         	goto	i2u376_40
  8881  002CFA                     i2u376_41:
  8882  002CFA  EF72  F016         	goto	i2l4045
  8883  002CFE                     i2u376_40:
  8884  002CFE                     i2l4049:
  8885  002CFE  5005               	movf	___llmod@divisor^0,w,c
  8886  002D00  5C01               	subwf	___llmod@dividend^0,w,c
  8887  002D02  5006               	movf	(___llmod@divisor+1)^0,w,c
  8888  002D04  5802               	subwfb	(___llmod@dividend+1)^0,w,c
  8889  002D06  5007               	movf	(___llmod@divisor+2)^0,w,c
  8890  002D08  5803               	subwfb	(___llmod@dividend+2)^0,w,c
  8891  002D0A  5008               	movf	(___llmod@divisor+3)^0,w,c
  8892  002D0C  5804               	subwfb	(___llmod@dividend+3)^0,w,c
  8893  002D0E  A0D8               	btfss	status,0,c
  8894  002D10  EF8C  F016         	goto	i2u377_41
  8895  002D14  EF8E  F016         	goto	i2u377_40
  8896  002D18                     i2u377_41:
  8897  002D18  EF96  F016         	goto	i2l4053
  8898  002D1C                     i2u377_40:
  8899  002D1C  5005               	movf	___llmod@divisor^0,w,c
  8900  002D1E  5E01               	subwf	___llmod@dividend^0,f,c
  8901  002D20  5006               	movf	(___llmod@divisor+1)^0,w,c
  8902  002D22  5A02               	subwfb	(___llmod@dividend+1)^0,f,c
  8903  002D24  5007               	movf	(___llmod@divisor+2)^0,w,c
  8904  002D26  5A03               	subwfb	(___llmod@dividend+2)^0,f,c
  8905  002D28  5008               	movf	(___llmod@divisor+3)^0,w,c
  8906  002D2A  5A04               	subwfb	(___llmod@dividend+3)^0,f,c
  8907  002D2C                     i2l4053:
  8908  002D2C  90D8               	bcf	status,0,c
  8909  002D2E  3208               	rrcf	(___llmod@divisor+3)^0,f,c
  8910  002D30  3207               	rrcf	(___llmod@divisor+2)^0,f,c
  8911  002D32  3206               	rrcf	(___llmod@divisor+1)^0,f,c
  8912  002D34  3205               	rrcf	___llmod@divisor^0,f,c
  8913  002D36  2E09               	decfsz	___llmod@counter^0,f,c
  8914  002D38  EF7F  F016         	goto	i2l4049
  8915  002D3C                     i2l806:
  8916  002D3C  C001  F001         	movff	___llmod@dividend,?___llmod
  8917  002D40  C002  F002         	movff	___llmod@dividend+1,?___llmod+1
  8918  002D44  C003  F003         	movff	___llmod@dividend+2,?___llmod+2
  8919  002D48  C004  F004         	movff	___llmod@dividend+3,?___llmod+3
  8920  002D4C  0012               	return		;funcret
  8921  002D4E                     __end_of___llmod:
  8922                           	callstack 0
  8923                           
  8924                           	psect	rparam
  8925  0000                     
  8926                           	psect	temp
  8927  000055                     btemp:
  8928                           	callstack 0
  8929  000055                     	ds	1
  8930  0000                     int$flags	set	btemp
  8931  0000                     wtemp8	set	btemp+1
  8932  0000                     ttemp5	set	btemp+1
  8933  0000                     ttemp6	set	btemp+4
  8934  0000                     ttemp7	set	btemp+8
  8935                           
  8936                           	psect	idloc
  8937                           
  8938                           ;Config register IDLOC0 @ 0x200000
  8939                           ;	unspecified, using default values
  8940  200000                     	org	2097152
  8941  200000  FF                 	db	255
  8942                           
  8943                           ;Config register IDLOC1 @ 0x200001
  8944                           ;	unspecified, using default values
  8945  200001                     	org	2097153
  8946  200001  FF                 	db	255
  8947                           
  8948                           ;Config register IDLOC2 @ 0x200002
  8949                           ;	unspecified, using default values
  8950  200002                     	org	2097154
  8951  200002  FF                 	db	255
  8952                           
  8953                           ;Config register IDLOC3 @ 0x200003
  8954                           ;	unspecified, using default values
  8955  200003                     	org	2097155
  8956  200003  FF                 	db	255
  8957                           
  8958                           ;Config register IDLOC4 @ 0x200004
  8959                           ;	unspecified, using default values
  8960  200004                     	org	2097156
  8961  200004  FF                 	db	255
  8962                           
  8963                           ;Config register IDLOC5 @ 0x200005
  8964                           ;	unspecified, using default values
  8965  200005                     	org	2097157
  8966  200005  FF                 	db	255
  8967                           
  8968                           ;Config register IDLOC6 @ 0x200006
  8969                           ;	unspecified, using default values
  8970  200006                     	org	2097158
  8971  200006  FF                 	db	255
  8972                           
  8973                           ;Config register IDLOC7 @ 0x200007
  8974                           ;	unspecified, using default values
  8975  200007                     	org	2097159
  8976  200007  FF                 	db	255
  8977                           
  8978                           	psect	config
  8979                           
  8980                           ;Config register CONFIG1L @ 0x300000
  8981                           ;	PLL Prescaler Selection bits
  8982                           ;	PLLDIV = 1, No prescale (4 MHz oscillator input drives PLL directly)
  8983                           ;	System Clock Postscaler Selection bits
  8984                           ;	CPUDIV = OSC1_PLL2, [Primary Oscillator Src: /1][96 MHz PLL Src: /2]
  8985                           ;	USB Clock Selection bit (used in Full-Speed USB mode only; UCFG:FSEN = 1)
  8986                           ;	USBDIV = 1, USB clock source comes directly from the primary oscillator block with no 
      +                          postscale
  8987  300000                     	org	3145728
  8988  300000  00                 	db	0
  8989                           
  8990                           ;Config register CONFIG1H @ 0x300001
  8991                           ;	Oscillator Selection bits
  8992                           ;	FOSC = HS, HS oscillator (HS)
  8993                           ;	Fail-Safe Clock Monitor Enable bit
  8994                           ;	FCMEN = OFF, Fail-Safe Clock Monitor disabled
  8995                           ;	Internal/External Oscillator Switchover bit
  8996                           ;	IESO = OFF, Oscillator Switchover mode disabled
  8997  300001                     	org	3145729
  8998  300001  0C                 	db	12
  8999                           
  9000                           ;Config register CONFIG2L @ 0x300002
  9001                           ;	Power-up Timer Enable bit
  9002                           ;	PWRT = OFF, PWRT disabled
  9003                           ;	Brown-out Reset Enable bits
  9004                           ;	BOR = OFF, Brown-out Reset disabled in hardware and software
  9005                           ;	Brown-out Reset Voltage bits
  9006                           ;	BORV = 3, Minimum setting 2.05V
  9007                           ;	USB Voltage Regulator Enable bit
  9008                           ;	VREGEN = OFF, USB voltage regulator disabled
  9009  300002                     	org	3145730
  9010  300002  19                 	db	25
  9011                           
  9012                           ;Config register CONFIG2H @ 0x300003
  9013                           ;	Watchdog Timer Enable bit
  9014                           ;	WDT = OFF, WDT disabled (control is placed on the SWDTEN bit)
  9015                           ;	Watchdog Timer Postscale Select bits
  9016                           ;	WDTPS = 32768, 1:32768
  9017  300003                     	org	3145731
  9018  300003  1E                 	db	30
  9019                           
  9020                           ; Padding undefined space
  9021  300004                     	org	3145732
  9022  300004  FF                 	db	255
  9023                           
  9024                           ;Config register CONFIG3H @ 0x300005
  9025                           ;	CCP2 MUX bit
  9026                           ;	CCP2MX = OFF, CCP2 input/output is multiplexed with RB3
  9027                           ;	PORTB A/D Enable bit
  9028                           ;	PBADEN = OFF, PORTB<4:0> pins are configured as digital I/O on Reset
  9029                           ;	Low-Power Timer 1 Oscillator Enable bit
  9030                           ;	LPT1OSC = OFF, Timer1 configured for higher power operation
  9031                           ;	MCLR Pin Enable bit
  9032                           ;	MCLRE = ON, MCLR pin enabled; RE3 input pin disabled
  9033  300005                     	org	3145733
  9034  300005  80                 	db	128
  9035                           
  9036                           ;Config register CONFIG4L @ 0x300006
  9037                           ;	Stack Full/Underflow Reset Enable bit
  9038                           ;	STVREN = OFF, Stack full/underflow will not cause Reset
  9039                           ;	Single-Supply ICSP Enable bit
  9040                           ;	LVP = OFF, Single-Supply ICSP disabled
  9041                           ;	Dedicated In-Circuit Debug/Programming Port (ICPORT) Enable bit
  9042                           ;	ICPRT = OFF, ICPORT disabled
  9043                           ;	Extended Instruction Set Enable bit
  9044                           ;	XINST = OFF, Instruction set extension and Indexed Addressing mode disabled (Legacy mo
      +                          de)
  9045                           ;	Background Debugger Enable bit
  9046                           ;	DEBUG = 0x1, unprogrammed default
  9047  300006                     	org	3145734
  9048  300006  80                 	db	128
  9049                           
  9050                           ; Padding undefined space
  9051  300007                     	org	3145735
  9052  300007  FF                 	db	255
  9053                           
  9054                           ;Config register CONFIG5L @ 0x300008
  9055                           ;	Code Protection bit
  9056                           ;	CP0 = OFF, Block 0 (000800-001FFFh) is not code-protected
  9057                           ;	Code Protection bit
  9058                           ;	CP1 = OFF, Block 1 (002000-003FFFh) is not code-protected
  9059                           ;	Code Protection bit
  9060                           ;	CP2 = OFF, Block 2 (004000-005FFFh) is not code-protected
  9061                           ;	Code Protection bit
  9062                           ;	CP3 = OFF, Block 3 (006000-007FFFh) is not code-protected
  9063  300008                     	org	3145736
  9064  300008  0F                 	db	15
  9065                           
  9066                           ;Config register CONFIG5H @ 0x300009
  9067                           ;	Boot Block Code Protection bit
  9068                           ;	CPB = OFF, Boot block (000000-0007FFh) is not code-protected
  9069                           ;	Data EEPROM Code Protection bit
  9070                           ;	CPD = OFF, Data EEPROM is not code-protected
  9071  300009                     	org	3145737
  9072  300009  C0                 	db	192
  9073                           
  9074                           ;Config register CONFIG6L @ 0x30000A
  9075                           ;	Write Protection bit
  9076                           ;	WRT0 = OFF, Block 0 (000800-001FFFh) is not write-protected
  9077                           ;	Write Protection bit
  9078                           ;	WRT1 = OFF, Block 1 (002000-003FFFh) is not write-protected
  9079                           ;	Write Protection bit
  9080                           ;	WRT2 = OFF, Block 2 (004000-005FFFh) is not write-protected
  9081                           ;	Write Protection bit
  9082                           ;	WRT3 = OFF, Block 3 (006000-007FFFh) is not write-protected
  9083  30000A                     	org	3145738
  9084  30000A  0F                 	db	15
  9085                           
  9086                           ;Config register CONFIG6H @ 0x30000B
  9087                           ;	Configuration Register Write Protection bit
  9088                           ;	WRTC = OFF, Configuration registers (300000-3000FFh) are not write-protected
  9089                           ;	Boot Block Write Protection bit
  9090                           ;	WRTB = OFF, Boot block (000000-0007FFh) is not write-protected
  9091                           ;	Data EEPROM Write Protection bit
  9092                           ;	WRTD = OFF, Data EEPROM is not write-protected
  9093  30000B                     	org	3145739
  9094  30000B  E0                 	db	224
  9095                           
  9096                           ;Config register CONFIG7L @ 0x30000C
  9097                           ;	Table Read Protection bit
  9098                           ;	EBTR0 = OFF, Block 0 (000800-001FFFh) is not protected from table reads executed in ot
      +                          her blocks
  9099                           ;	Table Read Protection bit
  9100                           ;	EBTR1 = OFF, Block 1 (002000-003FFFh) is not protected from table reads executed in ot
      +                          her blocks
  9101                           ;	Table Read Protection bit
  9102                           ;	EBTR2 = OFF, Block 2 (004000-005FFFh) is not protected from table reads executed in ot
      +                          her blocks
  9103                           ;	Table Read Protection bit
  9104                           ;	EBTR3 = OFF, Block 3 (006000-007FFFh) is not protected from table reads executed in ot
      +                          her blocks
  9105  30000C                     	org	3145740
  9106  30000C  0F                 	db	15
  9107                           
  9108                           ;Config register CONFIG7H @ 0x30000D
  9109                           ;	Boot Block Table Read Protection bit
  9110                           ;	EBTRB = OFF, Boot block (000000-0007FFh) is not protected from table reads executed in
      +                           other blocks
  9111  30000D                     	org	3145741
  9112  30000D  40                 	db	64
  9113                           tosu	equ	0xFFF
  9114                           tosh	equ	0xFFE
  9115                           tosl	equ	0xFFD
  9116                           stkptr	equ	0xFFC
  9117                           pclatu	equ	0xFFB
  9118                           pclath	equ	0xFFA
  9119                           pcl	equ	0xFF9
  9120                           tblptru	equ	0xFF8
  9121                           tblptrh	equ	0xFF7
  9122                           tblptrl	equ	0xFF6
  9123                           tablat	equ	0xFF5
  9124                           prodh	equ	0xFF4
  9125                           prodl	equ	0xFF3
  9126                           indf0	equ	0xFEF
  9127                           postinc0	equ	0xFEE
  9128                           postdec0	equ	0xFED
  9129                           preinc0	equ	0xFEC
  9130                           plusw0	equ	0xFEB
  9131                           fsr0h	equ	0xFEA
  9132                           fsr0l	equ	0xFE9
  9133                           wreg	equ	0xFE8
  9134                           indf1	equ	0xFE7
  9135                           postinc1	equ	0xFE6
  9136                           postdec1	equ	0xFE5
  9137                           preinc1	equ	0xFE4
  9138                           plusw1	equ	0xFE3
  9139                           fsr1h	equ	0xFE2
  9140                           fsr1l	equ	0xFE1
  9141                           bsr	equ	0xFE0
  9142                           indf2	equ	0xFDF
  9143                           postinc2	equ	0xFDE
  9144                           postdec2	equ	0xFDD
  9145                           preinc2	equ	0xFDC
  9146                           plusw2	equ	0xFDB
  9147                           fsr2h	equ	0xFDA
  9148                           fsr2l	equ	0xFD9
  9149                           status	equ	0xFD8

Data Sizes:
    Strings     240
    Constant    24
    Data        6
    BSS         37
    Persistent  0
    Stack       0

Auto Spaces:
    Space          Size  Autos    Used
    COMRAM           94     73      84
    BANK0           160     88     120
    BANK1           256      0       0
    BANK2           256      0       0
    BANK3           256      0       0
    BANK4           256      0       0
    BANK5           256      0       0
    BANK6           256      0       0
    BANK7           256      0       0

Pointer List with Targets:

    floatToString@buffer	PTR unsigned char  size(2) Largest target is 10
		 -> displayMenu@valueStr(BANK0[10]), 

    itoa@ptr	PTR unsigned char  size(2) Largest target is 10
		 -> displayMenu@valueStr(BANK0[10]), 

    itoa@start	PTR unsigned char  size(2) Largest target is 10
		 -> displayMenu@valueStr(BANK0[10]), 

    displayStuff@stuff	PTR unsigned char  size(2) Largest target is 17
		 -> readTwoDigitValue@input(COMRAM[3]), STR_27(CODE[15]), STR_26(CODE[12]), STR_25(CODE[17]), 
		 -> STR_24(CODE[14]), STR_23(CODE[3]), STR_22(CODE[10]), STR_21(CODE[16]), 
		 -> STR_20(CODE[16]), STR_19(CODE[16]), STR_18(CODE[3]), STR_17(CODE[9]), 
		 -> STR_16(CODE[5]), STR_15(CODE[4]), STR_14(CODE[5]), STR_13(CODE[5]), 
		 -> STR_12(CODE[2]), STR_11(CODE[7]), STR_10(CODE[5]), STR_9(CODE[2]), 
		 -> displayMenu@valueStr(BANK0[10]), STR_8(CODE[6]), STR_7(CODE[15]), STR_6(CODE[11]), 
		 -> STR_5(CODE[11]), STR_4(CODE[13]), STR_3(CODE[12]), STR_2(CODE[12]), 
		 -> STR_1(CODE[13]), 

    readTwoDigitValue@prompt	PTR unsigned char  size(2) Largest target is 13
		 -> STR_5(CODE[11]), STR_3(CODE[12]), STR_1(CODE[13]), 


Critical Paths under _main in COMRAM

    _readTwoDigitValue->_readKey
    _readKey->_millis
    _tempRead->___fldiv
    _itoa->___awdiv
    _humidade->___fldiv
    _gasRead->___fldiv
    ___fldiv->___flmul
    _floatToString->___flmul
    ___flsub->___fladd
    ___flmul->___xxtofl
    _displayStuff->_WriteCmdXLCD
    _displayStuff->_WriteDataXLCD
    ___flge->___xxtofl
    _configureLCD->_OpenXLCD
    _OpenXLCD->_DelayPORXLCD
    _OpenXLCD->_DelayXLCD
    _OpenXLCD->_SetDDRamAddr
    _OpenXLCD->_WriteCmdXLCD

Critical Paths under _ISR in COMRAM

    _ISR->___llmod

Critical Paths under _main in BANK0

    _main->_displayMenu
    _displayMenu->_floatToString

Critical Paths under _ISR in BANK0

    None.

Critical Paths under _main in BANK1

    None.

Critical Paths under _ISR in BANK1

    None.

Critical Paths under _main in BANK2

    None.

Critical Paths under _ISR in BANK2

    None.

Critical Paths under _main in BANK3

    None.

Critical Paths under _ISR in BANK3

    None.

Critical Paths under _main in BANK4

    None.

Critical Paths under _ISR in BANK4

    None.

Critical Paths under _main in BANK5

    None.

Critical Paths under _ISR in BANK5

    None.

Critical Paths under _main in BANK6

    None.

Critical Paths under _ISR in BANK6

    None.

Critical Paths under _main in BANK7

    None.

Critical Paths under _ISR in BANK7

    None.

Call Graph Tables:

 ---------------------------------------------------------------------------------
 (Depth) Function   	        Calls       Base Space   Used Autos Params    Refs
 ---------------------------------------------------------------------------------
 (0) _main                                                34    34      0  105151
                                             54 BANK0     34    34      0
                             ___flge
                           ___xxtofl
                             _buzzer
                       _configureADC
                        _configureIO
                 _configureInterrupt
                       _configureLCD
                     _configureTimer
                        _displayMenu
                       _displayStuff
                            _gasRead
                           _humidade
                             _millis
                            _readKey
                  _readTwoDigitValue
                     _setCoolerSpeed
                           _setMoist
                           _tempRead
 ---------------------------------------------------------------------------------
 (1) _setMoist                                             2     0      2     174
                                              9 COMRAM     2     0      2
 ---------------------------------------------------------------------------------
 (1) _setCoolerSpeed                                       2     0      2     152
                                              9 COMRAM     2     0      2
 ---------------------------------------------------------------------------------
 (1) _readTwoDigitValue                                   10     8      2    8514
                                             40 COMRAM    10     8      2
                       _WriteCmdXLCD
                       _displayStuff
                            _readKey
 ---------------------------------------------------------------------------------
 (2) _readKey                                             23    23      0     427
                                             17 COMRAM    23    23      0
                             _millis
 ---------------------------------------------------------------------------------
 (1) _displayMenu                                         32    30      2   56649
                                             22 BANK0     32    30      2
                       _WriteCmdXLCD
                             ___flge
                           ___xxtofl
                       _displayStuff
                      _floatToString
                            _gasRead
                           _humidade
                               _itoa
                             _millis
                           _tempRead
 ---------------------------------------------------------------------------------
 (1) _tempRead                                            14    10      4    8074
                                              0 BANK0     14    10      4
                            ___fldiv
                            ___flmul
                           ___xxtofl
                         _readAnalog
 ---------------------------------------------------------------------------------
 (3) _millis                                               8     4      4      23
                                              9 COMRAM     8     4      4
 ---------------------------------------------------------------------------------
 (2) _itoa                                                10     6      4    2992
                                             17 COMRAM     8     4      4
                            ___awdiv
                            ___awmod
 ---------------------------------------------------------------------------------
 (1) _humidade                                            14    10      4    8074
                                              0 BANK0     14    10      4
                            ___fldiv
                            ___flmul
                           ___xxtofl
                         _readAnalog
 ---------------------------------------------------------------------------------
 (1) _gasRead                                             14    10      4    8074
                                              0 BANK0     14    10      4
                            ___fldiv
                            ___flmul
                           ___xxtofl
                         _readAnalog
 ---------------------------------------------------------------------------------
 (2) _readAnalog                                           7     5      2      68
                                              9 COMRAM     7     5      2
 ---------------------------------------------------------------------------------
 (2) ___fldiv                                             25    17      8    1855
                                             48 COMRAM    25    17      8
                            ___flmul (ARG)
                           ___xxtofl (ARG)
 ---------------------------------------------------------------------------------
 (2) _floatToString                                       32    24      8   14234
                                             48 COMRAM    10     2      8
                                              0 BANK0     22    22      0
                            ___awdiv
                            ___awmod
                            ___flmul
                            ___flneg
                            ___flsub
                            ___fltol
                           ___xxtofl
 ---------------------------------------------------------------------------------
 (2) ___xxtofl                                            14    10      4    2636
                                              9 COMRAM    14    10      4
 ---------------------------------------------------------------------------------
 (3) ___fltol                                             10     6      4     517
                                              9 COMRAM    10     6      4
 ---------------------------------------------------------------------------------
 (3) ___flsub                                              8     0      8    3827
                                             25 COMRAM     8     0      8
                            ___fladd
                           ___xxtofl (ARG)
 ---------------------------------------------------------------------------------
 (4) ___fladd                                             16     8      8    3262
                                              9 COMRAM    16     8      8
 ---------------------------------------------------------------------------------
 (3) ___flneg                                              4     0      4     155
                                              9 COMRAM     4     0      4
 ---------------------------------------------------------------------------------
 (2) ___flmul                                             25    17      8    3413
                                             23 COMRAM    25    17      8
                           ___xxtofl (ARG)
 ---------------------------------------------------------------------------------
 (3) ___awmod                                              6     2      4     793
                                              9 COMRAM     6     2      4
 ---------------------------------------------------------------------------------
 (3) ___awdiv                                              8     4      4     985
                                              9 COMRAM     8     4      4
 ---------------------------------------------------------------------------------
 (2) _displayStuff                                        10     4      6    7520
                                             10 COMRAM    10     4      6
                       _WriteCmdXLCD
                      _WriteDataXLCD
 ---------------------------------------------------------------------------------
 (3) _WriteDataXLCD                                        1     1      0      44
                                              9 COMRAM     1     1      0
                      _DelayFor18TCY
 ---------------------------------------------------------------------------------
 (2) ___flge                                              12     4      8    3070
                                             23 COMRAM    12     4      8
                           ___xxtofl (ARG)
 ---------------------------------------------------------------------------------
 (1) _configureTimer                                       0     0      0       0
 ---------------------------------------------------------------------------------
 (1) _configureLCD                                         1     1      0     154
                                             11 COMRAM     1     1      0
                           _OpenXLCD
                       _WriteCmdXLCD
 ---------------------------------------------------------------------------------
 (2) _OpenXLCD                                             1     1      0     110
                                             10 COMRAM     1     1      0
                           _BusyXLCD
                       _DelayPORXLCD
                          _DelayXLCD
                       _SetDDRamAddr
                       _WriteCmdXLCD
 ---------------------------------------------------------------------------------
 (3) _WriteCmdXLCD                                         1     1      0      44
                                              9 COMRAM     1     1      0
                      _DelayFor18TCY
 ---------------------------------------------------------------------------------
 (3) _SetDDRamAddr                                         1     1      0      44
                                              9 COMRAM     1     1      0
                      _DelayFor18TCY
 ---------------------------------------------------------------------------------
 (3) _DelayXLCD                                            1     1      0       0
                                              9 COMRAM     1     1      0
 ---------------------------------------------------------------------------------
 (3) _DelayPORXLCD                                         1     1      0       0
                                              9 COMRAM     1     1      0
 ---------------------------------------------------------------------------------
 (3) _BusyXLCD                                             0     0      0       0
                      _DelayFor18TCY
 ---------------------------------------------------------------------------------
 (4) _DelayFor18TCY                                        0     0      0       0
 ---------------------------------------------------------------------------------
 (1) _configureInterrupt                                   0     0      0       0
 ---------------------------------------------------------------------------------
 (1) _configureIO                                          0     0      0       0
 ---------------------------------------------------------------------------------
 (1) _configureADC                                         0     0      0       0
 ---------------------------------------------------------------------------------
 (1) _buzzer                                               2     0      2     174
                                              9 COMRAM     2     0      2
 ---------------------------------------------------------------------------------
 Estimated maximum stack depth 4
 ---------------------------------------------------------------------------------
 (Depth) Function   	        Calls       Base Space   Used Autos Params    Refs
 ---------------------------------------------------------------------------------
 (5) _ISR                                                  0     0      0     311
                            ___llmod
 ---------------------------------------------------------------------------------
 (6) ___llmod                                              9     1      8     311
                                              0 COMRAM     9     1      8
 ---------------------------------------------------------------------------------
 Estimated maximum stack depth 6
 ---------------------------------------------------------------------------------

 Call Graph Graphs:

 _main (ROOT)
   ___flge
     ___xxtofl (ARG)
   ___xxtofl
   _buzzer
   _configureADC
   _configureIO
   _configureInterrupt
   _configureLCD
     _OpenXLCD
       _BusyXLCD
         _DelayFor18TCY
       _DelayPORXLCD
       _DelayXLCD
       _SetDDRamAddr
         _DelayFor18TCY
       _WriteCmdXLCD
         _DelayFor18TCY
     _WriteCmdXLCD
   _configureTimer
   _displayMenu
     _WriteCmdXLCD
     ___flge
     ___xxtofl
     _displayStuff
       _WriteCmdXLCD
       _WriteDataXLCD
         _DelayFor18TCY
     _floatToString
       ___awdiv
       ___awmod
       ___flmul
         ___xxtofl (ARG)
       ___flneg
       ___flsub
         ___fladd
         ___xxtofl (ARG)
       ___fltol
       ___xxtofl
     _gasRead
       ___fldiv
         ___flmul (ARG)
         ___xxtofl (ARG)
       ___flmul
       ___xxtofl
       _readAnalog
     _humidade
       ___fldiv
       ___flmul
       ___xxtofl
       _readAnalog
     _itoa
       ___awdiv
       ___awmod
     _millis
     _tempRead
       ___fldiv
       ___flmul
       ___xxtofl
       _readAnalog
   _displayStuff
   _gasRead
   _humidade
   _millis
   _readKey
     _millis
   _readTwoDigitValue
     _WriteCmdXLCD
     _displayStuff
     _readKey
   _setCoolerSpeed
   _setMoist
   _tempRead

 _ISR (ROOT)
   ___llmod

 Address spaces:
Name               Size   Autos  Total    Cost      Usage
BIGRAM             7FF      0       0      21        0.0%
EEDATA             100      0       0       0        0.0%
BITBANK7           100      0       0      18        0.0%
BANK7              100      0       0      19        0.0%
BITBANK6           100      0       0      16        0.0%
BANK6              100      0       0      17        0.0%
BITBANK5           100      0       0      14        0.0%
BANK5              100      0       0      15        0.0%
BITBANK4           100      0       0      12        0.0%
BANK4              100      0       0      13        0.0%
BITBANK3           100      0       0      10        0.0%
BANK3              100      0       0      11        0.0%
BITBANK2           100      0       0       8        0.0%
BANK2              100      0       0       9        0.0%
BITBANK1           100      0       0       6        0.0%
BANK1              100      0       0       7        0.0%
BITBANK0            A0      0       0       4        0.0%
BANK0               A0     58      78       5       75.0%
BITCOMRAM           5E      0       0       0        0.0%
COMRAM              5E     49      54       1       89.4%
BITSFR               0      0       0     200        0.0%
SFR                  0      0       0     200        0.0%
STACK                0      0       0       2        0.0%
NULL                 0      0       0       0        0.0%
ABS                  0      0      CC      20        0.0%
DATA                 0      0      CC       3        0.0%
CODE                 0      0       0       0        0.0%


Microchip Technology PIC18 Macro Assembler V2.32 build 20210201212658 
Symbol Table                                                                                   Sun Feb 16 09:38:17 2025

                ?_configureIO 0001                 ?_configureADC 0001                 ?_configureLCD 0001  
                ___fldiv@aexp 0049                  ___fldiv@bexp 0048                  ___fldiv@sign 0041  
                ?_displayMenu 0076                  ___awdiv@sign 000F                 _floatToString 1C3A  
               ?_displayStuff 000B                           l201 301E                           l122 0ED4  
                         l204 304C                           l124 0F34                           l125 0F42  
                         l126 0F9C                           l135 0064                           l119 0E16  
                         l312 3062                           l232 2DBA                           l136 08C6  
                         l233 2D8E                           l241 2A30                           l225 20E0  
                         l315 3040                           l228 3058                           l244 2AEE  
                         l318 3030                           l342 27F0                           l254 2C34  
                         l238 2972                           l262 306A                           l351 2EC0  
                         l271 23D4                           l352 2ED2                           l192 2FEC  
                         l257 306C                           l362 2F8E                           l267 306E  
                         l195 300A                           l283 1D0E                           l179 24F8  
                         l348 2F12                           l365 2F50                           l293 1EE8  
                         l198 2E8C                           l630 2B9E                           l617 28B4  
                         l651 26BC                           l660 2FC6                           l656 2702  
                         l914 11A4                           l931 12BE                           l923 1474  
                         l915 1192                           l683 25FE                           l940 138E  
                         l916 1158                           l941 137C                           l970 1A98  
                         l956 2E46                           l981 1B56                           l973 1A5C  
                         l982 1B44                           l968 1C38                           l979 1ADE  
                         _ISR 0008               ?_configureTimer 0001                           _tak 0052  
       __size_of_WriteCmdXLCD 003E                  ___awmod@sign 000F                           wreg 000FE8  
                ___flmul@aexp 0025                  ___flmul@bexp 002A                  ___flmul@sign 0024  
                ___flmul@temp 002F                  ___flmul@prod 002B                          ?_ISR 0001  
                ___fltol@exp1 0013                          l1000 153A                          l1010 1796  
                        l1004 189E                          l1007 1730                          l1017 1860  
                        l1009 17A8                          l1041 2138                          l1044 2294  
                        l1055 222C                          l1048 21D0                          l3001 2F4A  
                        l3011 2E92                          l3021 2EB0                          l3013 2E96  
                        l3005 3032                          l3101 1952                          l3023 2EB6  
                        l3015 2E9C                          l3007 3020                          l3111 1992  
                        l3103 1954                          l3041 2ED0                          l3033 2EC2  
                        l3025 2EB8                          l3017 2EAA                          l3009 2E8E  
                        l3121 19C2                          l3113 199A                          l3105 195C  
                        l4001 23F0                          l3035 2EC6                          l3027 2EBA  
                        l3019 2EAC                          l3051 2EEA                          l3131 1A00  
                        l3123 19C2                          l3115 199E                          l3107 196C  
                        l4011 2438                          l4003 23FE                          l3037 2ECC  
                        l3061 2F06                          l3053 2EEE                          l3045 2ED6  
                        l3141 1A4C                          l3133 1A10                          l3109 1982  
                        l4021 248C                          l4013 2448                          l4005 2404  
                        l3039 2ECE                          l3063 2F08                          l3055 2EF0  
                        l3047 2EE6                          l3151 1A96                          l3143 1A5A  
                        l3135 1A20                          l3127 19D6                          l3119 19B2  
                        l3071 18AC                          l4015 2458                          l4023 24A2  
                        l4007 2412                          l4033 306E                          l3065 2F0C  
                        l3057 2EF4                          l3049 2EE8                          l5001 1E68  
                        l3161 1ADC                          l3153 1AA8                          l3145 1A66  
                        l3137 1A28                          l3129 19F0                          l3081 18EC  
                        l3073 18BA                          l4025 24B4                          l4017 2468  
                        l4009 2432                          l3059 2F02                          l5003 1E6C  
                        l3171 1B3C                          l3155 1ABE                          l3163 1AEE  
                        l3147 1A84                          l3139 1A38                          l3091 1912  
                        l3083 18EE                          l3075 18BC                          l5011 2296  
                        l4019 2488                          l4027 24BC                          l5005 1EB8  
                        l3181 1BAA                          l3165 1AFC                          l3157 1AC4  
                        l3149 1A86                          l3093 1920                          l3077 18CC  
                        l3085 18F6                          l3069 18A0                          l5021 22C6  
                        l5013 229E                          l5101 0240                          l4029 24D8  
                        l4037 306A                          l5007 1EBE                          l3191 1C14  
                        l3175 1B66                          l3183 1BAE                          l3167 1B00  
                        l3159 1ACE                          l3095 1922                          l3087 1906  
                        l3079 18DC                          l5031 22FC                          l5023 22D2  
                        l5015 229E                          l5111 02D4                          l5103 025C  
                        l5009 1EDC                          l3193 1C18                          l3185 1BC8  
                        l3177 1B72                          l3169 1B0E                          l3097 1932  
                        l3089 190C                          l5041 231C                          l5033 2308  
                        l5121 039C                          l5105 0280                          l3521 1EEA  
                        l5201 08EA                          l2731 305A                          l4411 0FE2  
                        l4403 0FB6                          l3195 1C26                          l3187 1BDE  
                        l3179 1B80                          l3099 1942                          l5051 2372  
                        l5043 2338                          l5035 230C                          l5027 22E6  
                        l5019 22B4                          l5131 0432                          l5123 03E6  
                        l5115 02EC                          l5107 029C                          l3531 1F3E  
                        l3523 1F02                          l5211 08FC                          l5203 08EE  
                        l4501 1190                          l4421 101C                          l4413 0FF2  
                        l4405 0FC2                          l3197 1C2C                          l3189 1BF8  
                        l5053 239E                          l5045 233C                          l5037 2310  
                        l5029 22F4                          l5141 0550                          l5133 047C  
                        l5125 0406                          l5117 0308                          l5109 02B8  
                        l5061 0060                          l3541 1F74                          l3533 1F5C  
                        l3525 1F16                          l5301 0BBC                          l5221 0952  
                        l5213 08FE                          l5205 08F2                          l4511 11E6  
                        l4503 11B2                          l4431 104A                          l4423 1022  
                        l4415 1002                          l4407 0FD0                          l3199 1C2E  
                        l5055 23BA                          l5047 2356                          l5039 2310  
                        l5151 060C                          l5135 049C                          l5127 040A  
                        l5119 0352                          l5071 00B4                          l5063 0074  
                        l3551 2052                          l3543 1FA4                          l3535 1F6C  
                        l3527 1F1E                          l5311 0C24                          l5303 0BD0  
                        l5231 0998                          l5223 095E                          l5215 0900  
                        l5207 08F6                          l3801 269C                          l4601 1464  
                        l4521 1220                          l4513 11F4                          l4505 11C2  
                        l4441 107E                          l4433 104C                          l4425 1034  
                        l4417 1004                          l4409 0FD2                          l5049 2366  
                        l5161 06E0                          l5153 0656                          l5137 04E6  
                        l5129 0426                          l5145 0570                          l5081 0144  
                        l5073 00CC                          l5065 007A                          l5057 0012  
                        l3553 2086                          l3545 1FF8                          l5313 0C2E  
                        l5305 0BE6                          l5321 0C56                          l5241 09EE  
                        l5233 09B4                          l5225 096E                          l5217 0908  
                        l5209 08FA                          l3811 2FEE                          l3731 2706  
                        l3803 26AA                          l4611 1492                          l4531 128C  
                        l4523 1222                          l4515 1202                          l4451 10BA  
                        l4435 105C                          l4443 1086                          l4427 1036  
                        l4419 100C                          l5171 07C0                          l5163 06EC  
                        l5155 06A0                          l5147 05A6                          l5139 0506  
                        l5091 01D4                          l5083 0160                          l5075 00E8  
                        l5067 008C                          l5059 0026                          l3555 209E  
                        l3547 200A                          l3563 20AA                          l3571 20D2  
                        l5331 0CCA                          l5323 0C6A                          l5307 0BEE  
                        l5315 0C3E                          l5251 0A2A                          l5243 09F4  
                        l5235 09BC                          l5227 0982                          l5219 091C  
                        l3821 2FFA                          l3813 2FF2                          l2941 2F64  
                        l3741 2716                          l3733 270E                          l3805 26FA  
                        l3581 2BBE                          l4701 178E                          l4621 14D8  
                        l4613 14A2                          l4605 1476                          l4541 12E4  
                        l4533 128E                          l4525 122C                          l4517 120E  
                        l4509 11D6                          l4461 10CE                          l4453 10BE  
                        l4445 1096                          l4437 106C                          l4429 103C  
                        l5173 080A                          l5165 0736                          l5157 06C0  
                        l5149 05C2                          l5093 01F0                          l5085 0174  
                        l5077 010C                          l5069 00A0                          l3565 20AE  
                        l3549 201E                          l5341 0D1C                          l5333 0CD4  
                        l5325 0C7C                          l5309 0C0A                          l5261 0A8A  
                        l5253 0A3C                          l5245 0A02                          l5229 0994  
                        l5237 09C8                          l3831 3004                          l3823 2FFC  
                        l3815 2FF4                          l2951 2F7E                          l2943 2F66  
                        l3751 2728                          l3743 2718                          l3735 2710  
                        l3807 2700                          l3591 2C04                          l3583 2BC6  
                        l4711 17FC                          l4631 1504                          l4623 14DE  
                        l4615 14B2                          l4607 1482                          l4551 1312  
                        l4535 129E                          l4519 1212                          l4527 1232  
                        l4471 10E2                          l4463 10D2                          l4455 10C2  
                        l4447 10A8                          l4439 107C                          l2935 2FC8  
                        l5167 0756                          l5159 06C4                          l5095 020C  
                        l5087 0194                          l5079 0128                          l5183 0880  
                        l3567 20CA                          l3559 20A4                          l5351 0E60  
                        l5343 0D66                          l5327 0C94                          l5335 0CE0  
                        l5263 0AA4                          l5255 0A50                          l5247 0A0A  
                        l5239 09DC                          l3833 3006                          l3825 2FFE  
                        l3817 2FF6                          l2953 2F82                          l2945 2F6A  
                        l2937 2F54                          l3761 2740                          l3753 272C  
                        l3745 271A                          l3737 2712                          l3841 2E48  
                        l3585 2BD2                          l3577 2BA0                          l4801 2B3E  
                        l4721 1864                          l4705 17B8                          l4713 1800  
                        l4641 155A                          l4633 1514                          l4625 14E4  
                        l4617 14C2                          l4609 1490                          l4553 1320  
                        l4545 12F8                          l4561 133E                          l4529 1258  
                        l4537 12AE                          l4473 10E6                          l4465 10D6  
                        l4457 10C6                          l4449 10B6                          l4481 10F6  
                        l2961 2D50                          l5169 07A0                          l5177 082A  
                        l5433 0588                          l5097 0228                          l5089 01B0  
                        l5361 0F24                          l5353 0E68                          l5345 0DB0  
                        l5337 0CF4                          l5329 0CB0                          l5281 0B26  
                        l5265 0AAE                          l5257 0A66                          l5273 0AD6  
                        l5249 0A16                          l3835 3008                          l3827 3000  
                        l3819 2FF8                          l2955 2F84                          l2947 2F6C  
                        l2939 2F62                          l3771 2788                          l3763 2754  
                        l3755 2732                          l3747 271E                          l3739 2714  
                        l3843 2E54                          l3851 3042                          l3587 2BDC  
                        l3579 2BB2                          l4811 2B78                          l4803 2B46  
                        l4731 188E                          l4723 1874                          l4715 181A  
                        l4707 17C4                          l4651 159A                          l4635 1524  
                        l4627 14F2                          l4619 14C8                          l4555 1328  
                        l4547 1302                          l4539 12D4                          l4563 134C  
                        l4491 1166                          l4483 10FA                          l4475 10EA  
                        l4467 10DA                          l4459 10CA                          l2971 2D7E  
                        l2963 2D50                          l5179 0860                          l5435 0842  
                        l5371 0FAA                          l5363 0F36                          l5355 0ECC  
                        l5347 0DFA                          l5339 0D08                          l5283 0B2E  
                        l5291 0B7E                          l5275 0AEA                          l5259 0A6E  
                        l5267 0ABE                          l3837 304E                          l3829 3002  
                        l2957 2F88                          l2949 2F70                          l3781 27D0  
                        l3773 279C                          l3765 2768                          l3757 2736  
                        l3749 2724                          l3845 2E64                          l3853 304A  
                        l2981 2F16                          l3589 2C00                          l4741 27F2  
                        l4805 2B54                          l4813 2B7E                          l4725 1882  
                        l4717 182E                          l4709 17D2                          l4661 15E4  
                        l4653 15A6                          l4645 156E                          l4637 152A  
                        l4629 14F4                          l4821 2F90                          l4573 139E  
                        l4581 13F4                          l4565 1350                          l4557 132C  
                        l4549 1310                          l4493 1172                          l4485 1124  
                        l4477 10EE                          l4469 10DE                          l4901 221C  
                        l2973 2D8C                          l2965 2D60                          l5437 0898  
                        l5365 0F8C                          l5357 0ED8                          l5349 0E0A  
                        l5285 0B4A                          l5277 0AFC                          l5197 08C8  
                        l3839 3056                          l3855 300C                          l3783 27D6  
                        l3775 27A2                          l3767 276E                          l3759 273A  
                        l3847 2E78                          l3791 262E                          l2991 2F2E  
                        l2983 2F24                          l4751 281E                          l4743 27F6  
                        l4815 2B8E                          l4807 2B6A                          l4727 1884  
                        l4719 1848                          l4671 1636                          l4663 15F0  
                        l4655 15BE                          l4647 157A                          l4639 154A  
                        l4823 2FA6                          l4591 1446                          l4583 1404  
                        l4575 13AA                          l4567 135E                          l4559 133C  
                        l4495 1176                          l4487 1140                          l4479 10F2  
                        l4735 2E02                          l4831 2510                          l4911 2274  
                        l4903 223A                          l2975 2D9C                          l5367 0F8E  
                        l5359 0F22                          l5287 0B64                          l5279 0B10  
                        l5199 08E6                          l3785 27EA                          l3777 27B6  
                        l3769 2782                          l3849 2E7E                          l3793 263E  
                        l2993 2F32                          l2985 2F26                          l4761 284C  
                        l4753 2826                          l4745 2804                          l4817 2B96  
                        l4809 2B72                          l4729 188A                          l4681 16B4  
                        l4673 1646                          l4665 1600                          l4657 15CA  
                        l4649 1584                          l4825 2FB6                          l4593 144C  
                        l4585 1414                          l4577 13B8                          l4569 1374  
                        l4497 1184                          l4489 1150                          l4737 2E12  
                        l4841 2560                          l4913 2282                          l4905 223C  
                        l2977 2DB2                          l2969 2D6C                          l4921 28C4  
                        l5369 0F9E                          l5289 0B6E                          l5297 0B96  
                        l3779 27BC                          l3795 266C                          l2995 2F40  
                        l2987 2F28                          l4771 2886                          l4763 2854  
                        l4755 282A                          l4747 280C                          l4691 172E  
                        l4683 16EA                          l4675 1662                          l4667 160C  
                        l4659 15D6                          l4595 144E                          l4587 1434  
                        l4579 13F2                          l4499 1186                          l4851 258A  
                        l4843 2564                          l4835 2524                          l4915 2284  
                        l4907 2240                          l4931 2982                          l4923 292E  
                        l5299 0BAA                          l3797 267C                          l3789 2600  
                        l2997 2F44                          l2989 2F2C                          l4781 28AC  
                        l4773 2888                          l4765 2862                          l4757 2832  
                        l4749 2810                          l4693 1740                          l4685 16F8  
                        l4677 166E                          l4669 161C                          l4597 1454  
                        l4589 1438                          l4861 25B2                          l4853 2594  
                        l4845 2572                          l4837 254E                          l4829 24FA  
                        l4909 2264                          l4941 2A40                          l4933 29EC  
                        l4925 2962                          l3799 268A                          l2999 2F46  
                        l4775 288E                          l4767 2868                          l4759 2844  
                        l4791 2B0A                          l4695 174E                          l4687 1716  
                        l4679 168A                          l4599 1462                          l4863 25BE  
                        l4855 259E                          l4839 2550                          l4951 1C44  
                        l4943 2AAA                          l4935 2A20                          l4919 28B6  
                        l4769 287E                          l4777 2894                          l4793 2B0E  
                        l4785 2AF0                          l4697 1752                          l4689 1720  
                        l4865 25CE                          l4881 215E                          l4873 20E4  
                        l4961 1CA2                          l4953 1C52                          l4945 2ADE  
                        l4929 2974                          l4779 28A4                          l4795 2B1C  
                        l4787 2AF4                          l4699 1760                          l4867 25DE  
                        l4891 21B8                          l4875 20F4                          l4971 1D1E  
                        l4963 1CEE                          l4955 1C5E                          l4939 2A32  
                        l4797 2B24                          l4789 2B02                          l4869 25EE  
                        l4893 21BA                          l4885 2172                          l4877 2102  
                        l4981 1D8E                          l4973 1D44                          l4965 1D02  
                        l4957 1C62                          l4949 1C3A                          l3997 23D6  
                        l4799 2B36                          l4895 21C6                          l4887 217A  
                        l4879 2148                          l4991 1DF8                          l4983 1DC2  
                        l4975 1D4A                          l4967 1D06                          l4959 1C86  
                        l3999 23EA                          l4897 2202                          l4889 2186  
                        l4993 1DFC                          l4985 1DC6                          l4977 1D66  
                        l4969 1D16                          l4899 220E                          l4995 1E08  
                        l4987 1DE4                          l4979 1D82                          l4997 1E3C  
                        l4989 1DEC                          l4999 1E58                          STR_1 7F89  
                        STR_2 7F96                          STR_3 7FA2                          STR_4 7F7C  
                        STR_5 7FC5                          STR_6 7FBA                          STR_7 7F50  
                        STR_8 7F90                          STR_9 7FFD                          _LATB 000F8A  
                        u3210 1EF8                          u3300 2BB2                          u2500 18CC  
                        u3220 1F3A                   main@lastKey 00B4                          u3301 2BAE  
                        u2501 18C8                          u3221 1F36                          u3310 2BFC  
                        u2510 18DC                          u2511 18D8                          u3320 2C24  
                        u4200 10A8                          u5000 2282                          u2600 1AA8  
                        u2520 1920                          u4201 10A4                          u5001 227E  
                        u2601 1AA4                          u2521 191C                          u3330 2C34  
                        u4210 10B6                          u4130 0FD0                          u5010 1C52  
                        u2610 1ABE                          u2530 1932                          u3250 1FA4  
                        u3234 1F50                          u3331 2C30                          u4211 10B2  
                        u4131 0FCC                          u5011 1C4E                          u2611 1ABA  
                        u2531 192E                          u3251 1FA0                          u3235 1F4C  
                        u3500 27EA                          u4300 11F4                          u4220 1124  
                        u4140 0FE2                          u5020 1D02                          u2700 1BF8  
                        u2620 1ADC                          u2540 1942                          u2460 2D60  
                        u5100 23D4                          u3260 200A                          u3244 1F8A  
                        u3501 27E6                          u3317 2BF2                          u4301 11F0  
                        u4221 1120                          u4141 0FDE                          u5021 1CFE  
                        u2701 1BF4                          u2621 1AD8                          u2541 193E  
                        u2461 2D5C                          u5101 23D0                          u3261 2006  
                        u3245 1F86                          u3510 262E                          u4310 1202  
                        u4230 113C                          u4150 0FF2                          u5030 1D82  
                        u2710 1C26                          u2630 1AFC                          u2550 1982  
                        u2470 2D9C                          u5110 005C                          u3270 2052  
                        u3511 262A                          u3327 2C1A                          u4311 11FE  
                        u4231 1136                          u4151 0FEE                          u5031 1D7E  
                        u2711 1C22                          u2631 1AF8                          u2551 197E  
                        u2471 2D98                          u5111 0058                          u3271 204E  
                        u2480 2EAA                          u3440 2754                          u3520 266C  
                        u4400 134C                          u4320 1220                          u4240 113E  
                        u4160 1034                          u5040 1DE4                          u2640 1B0E  
                        u2560 19C2                          u5200 0656                          u5120 0352  
                        u3280 2086                          u2481 2EA6                          u3441 2750  
                        u3521 2668                          u4401 1348                          u4321 121C  
                        u4161 1030                          u5041 1DE0                          u2641 1B0A  
                        u2561 19BE                          u5201 0652                          u5121 034E  
                        u3281 2082                          u3450 2768                          u3530 268A  
                        u4410 135E                          u4330 1258                          u4250 1166  
                        u4170 104A                          u5050 1EDC                          u2650 1B3C  
                        u2570 1A38                          u2490 18BA                          u5210 06A0  
                        u5130 039C                          u3290 20CA                          u3451 2764  
                        u3531 2686                          u4411 135A                          u4331 1254  
                        u4251 1162                          u4171 1046                          u5051 1ED8  
                        u2651 1B38                          u2571 1A34                          u2491 18B6  
                        u5211 069C                          u5131 0398                          u3291 20C6  
                        u3460 2782                          u3540 26AA                          u4500 1446  
                        u4420 1374                          u4340 129E                          u4260 1184  
                        u4180 105C                          u2660 1B52                          u2580 1A5A  
                        u5060 22B0                          u5220 06E0                          u5140 03E6  
                        u5300 09DC                          u3461 277E                          u3541 26A6  
                        u4501 1442                          u4421 1370                          u4341 129A  
                        u4261 1180                          u4181 1058                          u2661 1B4E  
                        u2581 1A56                          u5061 22AC                          u5221 06DC  
                        u5141 03E2                          u5301 09D8                          u3470 279C  
                        u3550 26FA                          u4510 1462                          u4430 138A  
                        u4350 12D4                          u4270 11A4                          u4190 106C  
                        u2670 1B66                          u2590 1A84                          u5070 22C6  
                        u5230 0736                          u5150 0426                          u3710 2448  
                        u5310 09EE                          u3471 2798                          u3551 26F6  
                        u4511 145E                          u4431 1386                          u4351 12D0  
                        u4271 11A0                          u4191 1068                          u2671 1B62  
                        u2591 1A80                          u5071 22C2                          u5231 0732  
                        u5151 0422                          u3711 2444                          u5311 09EA  
                        u3480 27B6                          u4600 16D4                          u4520 1490  
                        u4440 139E                          u4360 12E4                          u4280 11B2  
                        u2680 1B80                          u5080 22F4                          u5240 07A0  
                        u5160 047C                          u3720 2458                          u5400 0B92  
                        u5320 0A02                          u3481 27B2                          u4521 148C  
                        u4441 139A                          u4361 12E0                          u4281 11AE  
                        u2681 1B7C                          u5081 22F0                          u5241 079C  
                        u5161 0478                          u3721 2454                          u5401 0B8E  
                        u5321 09FE                          u3490 27D0                          u4610 172E  
                        u4530 14A2                          u4450 13B8                          u4370 1310  
                        u4290 11C2                          u2690 1BC8                          u5090 2356  
                        u5250 080A                          u5170 04E6                          u3730 24B4  
                        u5410 0BAA                          u5330 0A2A                          u3491 27CC  
                        u4611 172A                          u4531 149E                          u4451 13B4  
                        u4371 130C                          u4291 11BE                          u2691 1BC4  
                        u5091 2352                          u5251 0806                          u5171 04E2  
                        u3731 24B0                          u5411 0BA6                          u5331 0A26  
                        u4700 1882                          u4620 174E                          u4540 14B2  
                        u4460 13F2                          u4380 1320                          u5180 0550  
                        u3740 24D8                          u5500 0E60                          u5420 0BBC  
                        u5340 0A3C                          u5260 0952                          u4701 187E  
                        u4621 174A                          u4605 16CA                          u4541 14AE  
                        u4461 13EE                          u4381 131C                          u5181 054C  
                        u3741 24D4                          u5501 0E5C                          u5421 0BB8  
                        u5341 0A38                          u5261 094E                          u4710 2804  
                        u4630 1760                          u4550 14F2                          u4470 1404  
                        u4390 133C                          u5190 060C                          u5510 0ECC  
                        u5430 0BE6                          u5350 0A66                          u5270 0982  
                        u4711 2800                          u4631 175C                          u4551 14EE  
                        u4471 1400                          u4391 1338                          u5191 0608  
                        u5511 0EC8                          u5431 0BE2                          u5351 0A62  
                        u5271 097E                          u4720 281E                          u4800 2B54  
                        u4640 178E                          u4560 1504                          u4480 1414  
                        u5520 0F22                          u5440 0C52                          u5360 0AD2  
                        u5280 0994                          u4721 281A                          u4801 2B50  
                        u4641 178A                          u4561 1500                          u4481 1410  
                        u5521 0F1E                          u5441 0C4E                          u5361 0ACE  
                        u5281 0990                          u4730 2844                          u4810 2B6A  
                        u4650 17A4                          u4570 1514                          u4490 1434  
                        u5530 0F8C                          u5450 0C6A                          u5370 0AEA  
                        u5290 09B4                          u4731 2840                          u4811 2B66  
                        u4651 17A0                          u4571 1510                          u4491 1430  
                        u5531 0F88                          u5451 0C66                          u5371 0AE6  
                        u5291 09B0                          u4740 2862                          u4820 2B8E  
                        u4660 17B8                          u4580 154A                          u4900 25DE  
                        u5460 0C7C                          u5380 0AFC                          u4741 285E  
                        u4821 2B8A                          u4661 17B4                          u4581 1546  
                        u4901 25DA                          u5461 0C78                          u5381 0AF8  
                        u4750 287E                          u4670 17D2                          u4590 155A  
                        u4830 2FA6                          u4910 20F4                          u5470 0D66  
                        u5390 0B26                          u4751 287A                          u4671 17CE  
                        u4591 1556                          u4831 2FA2                          u4911 20F0  
                        u5607 2496                          u5471 0D62                          u5391 0B22  
                        u4760 28A4                          u4680 181A                          u4840 2510  
                        u4920 2102                          u5480 0DB0                          u4761 28A0  
                        u4681 1816                          u4841 250C                          u4921 20FE  
                        u5617 1F62                          u5481 0DAC                          u4770 2B02  
                        u4690 1848                          u4850 2544                          u4930 215E  
                        u5490 0DFA                          u4771 2AFE                          u4691 1844  
                        u4931 215A                          u5627 0082                          u5491 0DF6  
                        u5547 0A96                          u4780 2B1C                          u4860 2572  
                        u4940 21B4                          u4781 2B18                          u4861 256E  
                        u4941 21B0                          u5637 2D84                          u5557 0B56  
                        u4790 2B36                          u4870 2586                          u4950 21FE  
                        u5647 2E5A                          u4791 2B32                          u4871 2582  
                        u4855 253A                          u4951 21FA                          u5567 0C16  
                        u4880 25AE                          u4960 221C                          u5657 2E70  
                        u4881 25AA                          u4961 2218                          u5577 0CBC  
                        u4890 25CE                          u4970 222C                          u5667 2E84  
                        u4891 25CA                          u4971 2228                          u5587 23F6  
                        u4980 223A                          u5677 3026                          u4981 2236  
                        u5597 240A                          u4990 2274                          u5687 3038  
                        u4991 2270                          u5697 305C                          _Glim 00D2  
                        _Hlim 00D4                          _Tlim 00D6                          _main 08C8  
                        _itoa 2296                          fsr1h 000FE2                          fsr2h 000FDA  
                        indf1 000FE7                          indf2 000FDF                          fsr1l 000FE1  
                        fsr2l 000FD9                          btemp 0055        __size_of_WriteDataXLCD 003E  
              _setCoolerSpeed 306C                          prodh 000FF4                          prodl 000FF3  
                        start 000E               ___fldiv@new_exp 0042                ??_configureADC 000A  
              ??_configureLCD 000C                  ___param_bank 000000            readKey@currentTime 0020  
                       ??_ISR 000A                  main@gasLimit 00B2    __end_of_configureInterrupt 3020  
                _WriteCmdXLCD 2F52                ?_floatToString 0031                ??_displayStuff 0011  
               ___fltol@sign1 0012                 ?_SetDDRamAddr 0001               __end_of___fladd 1476  
                       ?_main 0001               __end_of___fldiv 1C3A                         ?_itoa 0012  
             __end_of___awdiv 28B6               __end_of___flneg 2FC8                         STR_10 7FEA  
                       STR_11 7FE3                         STR_12 7FFB                         STR_20 7F20  
                       STR_13 7FEA                         STR_21 7F40                         STR_14 7FEF  
                       STR_22 7FD0                         STR_23 7FF8                         STR_15 7FF4  
                       STR_16 7FEA                         STR_24 7F6E                         STR_17 7FDA  
                       STR_25 7F0F                         STR_18 7FF8                         STR_26 7FAE  
                       STR_27 7F5F                         STR_19 7F30               __end_of___awmod 2BA0  
             __end_of___flmul 18A0               __end_of___flsub 2E48               __end_of___fltol 2600  
                       _T0CON 000FD5               ___awdiv@divisor 000C               __end_of___llmod 2D4E  
                       i2l189 2CC2                         i2l813 2D4C                         i2l806 2D3C  
             ___awdiv@counter 000E                         _TMR0L 000FD6                         _PORTB 000F81  
                       _PORTD 000F83                  main@humLimit 00B0                         _TRISB 000F93  
                       _TRISD 000F95               __end_of_gasRead 2AF0               __end_of_readKey 20E2  
           readKey@pressedKey 0028    __size_of_readTwoDigitValue 0124                         tablat 000FF5  
      __end_of_setCoolerSpeed 306E          __end_ofreadKey@F3615 7F0F                         ttemp5 0056  
                       ttemp6 0059                         ttemp7 005D                         status 000FD8  
                       wtemp8 0056                 humidade@Humid 0064               __initialization 2DBC  
                __end_of_main 0FB6                  __end_of_itoa 23D6              __end_of_BusyXLCD 2ED4  
          __size_of_DelayXLCD 0012         __size_of_DelayPORXLCD 0010                ??_SetDDRamAddr 000A  
            __end_of_OpenXLCD 27F2                        ??_main 0096                        ??_itoa 0016  
               __activetblptr 000002                 _WriteDataXLCD 2F14          displayMenu@menuIndex 0076  
        readKey@lastStableKey 0054                        _ADCON1 000FC1                        _ADCON2 000FC0  
            ___llmod@dividend 0001                        _ADRESH 000FC4                        _ADRESL 000FC3  
            ___awdiv@dividend 000A                        i2l4041 2CC6                        i2l4051 2D1C  
                      i2l4043 2CDC                        i2l4053 2D2C                        i2l4045 2CE4  
                      i2l4055 2D36                        i2l4047 2CF0                        i2l4049 2CFE  
                      i2l4241 2C90                        i2l4233 2C38                        i2l4243 2CAC  
                      i2l4235 2C46                        i2l4245 2CB8                        i2l4237 2C4A  
                      i2l4247 2CC0                        i2l4239 2C56               ?_setCoolerSpeed 000A  
               main@menuIndex 00B6              __end_of___xxtofl 2296                  _DelayPORXLCD 3032  
                      ___flge 2600                     ??___fladd 0012               ??_floatToString 0039  
                   ??___fldiv 0039                     ??___awdiv 000E                     ??___flneg 000E  
                   ??___awmod 000E                     ??___flmul 0020                     ??___flsub 0022  
                   ??___fltol 000E                     ??___llmod 0009          __size_of_configureIO 001E  
                      _keymap 7EF7                        _buzzer 306E                        _millis 2FC8  
                      clear_0 2DE2                        clear_1 2DEE                 main@tempLimit 00AE  
            ___awdiv@quotient 0010                     ??_gasRead 004A               ___awmod@divisor 000C  
                      isa$std 000001              __end_of_humidade 2A32               ___awmod@counter 000E  
        __size_of_displayMenu 08B6                ?_WriteDataXLCD 0001              __end_of_setMoist 306C  
                   ??_readKey 0012              __end_of_tempRead 2974             humidade@rawAnalog 006C  
                __mediumconst 7EF6                        tblptrh 000FF7                        tblptrl 000FF6  
                      tblptru 000FF8          __end_of_configureADC 305A          __end_of_configureLCD 2E8E  
           __end_of_DelayXLCD 3032                    ___flge@ff1 0018                    ___flge@ff2 001C  
                ___xxtofl@arg 0014                  ___xxtofl@exp 0013                  ___xxtofl@val 000A  
                  __accesstop 0060       __end_of__initialization 2DF4  displayStuff@LCDWritePosition 0011  
                  ___flneg@f1 000A          __end_of_displayStuff 2C36                 ___rparam_used 000001  
                  ___fltol@f1 000A        readTwoDigitValue@F3595 00CF                __pcstackCOMRAM 0001  
                __pidataBANK0 3064                  _gasRead$1534 0068              ??_configureTimer 000A  
          displayStuff@column 000D        readTwoDigitValue@input 002D        __size_of_DelayFor18TCY 000A  
                  __pbssBANK0 00B8                     ?_BusyXLCD 0001               WriteCmdXLCD@cmd 000A  
        __end_of_SetDDRamAddr 2F14          readTwoDigitValue@key 0032       displayMenu@currentHumid 008E  
                   ?_OpenXLCD 0001         displayMenu@errorCycle 0050         displayMenu@currentGas 0092  
                     ?___flge 0018             WriteDataXLCD@data 000A               ??_WriteDataXLCD 000A  
                     ?_buzzer 000A                       ?_millis 000A                  readKey@F3615 7F07  
                   ?___xxtofl 000A            _configureInterrupt 300C                main@currentGas 00A6  
                  ??_BusyXLCD 000A           ?_configureInterrupt 0001                     ?_humidade 0060  
                  ??_OpenXLCD 000B                     ?_setMoist 000A                       __Hparam 0000  
                     __Lparam 0000                     ?_tempRead 0060                    _readAnalog 2D4E  
             __size_of___flge 0104                       ___fladd 0FB6                       ___fldiv 18A0  
                     ___awdiv 27F2                 _DelayFor18TCY 305A                       ___flneg 2F90  
                     ___awmod 2AF0                       ___flmul 1476                       ___flsub 2E02  
                     ___fltol 24FA                       ___llmod 2CC6                 _humidade$1533 0068  
        ??_configureInterrupt 000A                       __pcinit 2DBC                       _gasRead 2A32  
             __size_of_buzzer 0002               __size_of_millis 0026                       __ramtop 0800  
                     __ptext0 08C8                       __ptext1 306A                       __ptext2 306C  
                     __ptext3 23D6                       __ptext4 1EEA                       __ptext5 0012  
                     __ptext6 28B6                       __ptext7 2FC8                       __ptext8 2296  
                     __ptext9 2974         __size_of_configureADC 000C         __size_of_configureLCD 0046  
                __size_of_ISR 2CBE                       _readKey 1EEA                    ??___xxtofl 000E  
            ___awmod@dividend 000A                    gasRead@gas 0064              ??_setCoolerSpeed 000C  
       __size_of_displayStuff 0096                __pintcode_body 2C36          end_of_initialization 2DF4  
                     itoa@ptr 0014                 __Lmediumconst 7EF6                       int_func 2C36  
                  ??_humidade 004A                    ??_setMoist 000C                    ??_tempRead 004A  
              ?_DelayFor18TCY 0001                       postdec1 000FE5                       postdec2 000FDD  
                _configureADC 304E                  _configureLCD 2E48                       postinc0 000FEE  
                     postinc2 000FDE           floatToString@buffer 0035           floatToString@intStr 0060  
                   _PORTCbits 000F82                     _PORTDbits 000F83                  _displayStuff 2BA0  
                 ___fladd@grs 0019                 ___xxtofl@sign 0012                     _TRISAbits 000F92  
                   _TRISCbits 000F94                     _TRISDbits 000F95                     _TRISEbits 000F96  
                 ___fldiv@grs 0044             tempRead@rawAnalog 006C                   ___fldiv@rem 003D  
       __size_of_SetDDRamAddr 0040   readTwoDigitValue@digitCount 0030                   ___flmul@grs 0026  
            main@currentHumid 00A2                     _DelayXLCD 3020                 ??_configureIO 000A  
                 ?_readAnalog 000A                 ??_displayMenu 0078                __end_of___flge 2704  
       __end_of_floatToString 1EEA                __end_of_keymap 7F07                __end_of_buzzer 3070  
              __end_of_millis 2FEE                  _SetDDRamAddr 2ED4            SetDDRamAddr@DDaddr 000A  
         start_initialization 2DBC                   __end_of_ISR 2CC6       readTwoDigitValue@prompt 0029  
            readAnalog@result 000E               ___llmod@divisor 0005             __size_of_BusyXLCD 0046  
             ___llmod@counter 0009                    ?_DelayXLCD 0001                    readKey@col 0024  
                  readKey@row 0026               ??_DelayFor18TCY 000A           displayMenu@valueStr 007C  
           __size_of_OpenXLCD 00EE                      ??___flge 0020                floatToString@i 0072  
               ?_WriteCmdXLCD 0001                   __pdataBANK0 00D2                      ??_buzzer 000C  
                    ??_millis 000E           __end_of_configureIO 300C                     ___fladd@a 000E  
                   ___fladd@b 000A           __end_of_displayMenu 08C8                     ___fldiv@a 0035  
                   ___fldiv@b 0031                     ___flmul@a 001C                     ___flmul@b 0018  
                 __pbssCOMRAM 004A                     ___flsub@a 001E                     ___flsub@b 001A  
               __pcstackBANK0 0060             __size_of___xxtofl 01B4           __size_of_readAnalog 006E  
            gasRead@rawAnalog 006C             displayStuff@stuff 000F                 tempRead@TempC 0064  
      displayMenu@currentTemp 008A        displayMenu@currentTime 0086             __size_of_humidade 00BE  
                   __pintcode 0008       readKey@lastDebounceTime 00C7                 __pmediumconst 7EF6  
               _tempRead$1532 0068                ??_WriteCmdXLCD 000A             __size_of_setMoist 0002  
                    ?___fladd 000A                      ?___fldiv 0031                      ?___awdiv 000A  
                    ?___flneg 000A                      ?___awmod 000A                      ?___flmul 0018  
                    ?___flsub 001A                      ?___fltol 000A             __size_of_tempRead 00BE  
                    ?___llmod 0001     displayMenu@lastUpdateTime 00CB                      ?_gasRead 0060  
       __end_of_WriteDataXLCD 2F52                      ?_readKey 0001                 readAnalog@pin 0010  
     __size_of_configureTimer 000C                      _LATEbits 000F8D                  _milliseconds 004A  
                 ??_DelayXLCD 000A                 ?_DelayPORXLCD 0001                      i2u406_40 2C46  
                    i2u406_41 2C42                      i2u407_40 2C90                      i2u407_41 2C8C  
                    i2u408_40 2CAC                      i2u408_41 2CA8               OpenXLCD@lcdtype 000B  
                    i2u375_40 2CDC                      i2u375_41 2CD8                      i2u376_40 2CFE  
                    i2u376_41 2CFA                      i2u377_40 2D1C                      i2u377_41 2D18  
               readKey@InvCol 0018                      _RCONbits 000FD0                   _configureIO 2FEE  
          floatToString@digit 006C            floatToString@index 0074            floatToString@value 0031  
                 _displayMenu 0012   __size_of_configureInterrupt 0014                    _ADCON0bits 000FC2  
             main@currentTemp 00AA               main@currentTime 009E                   _INTCON2bits 000FF1  
                   copy_data0 2DD0                      _BusyXLCD 2E8E                ??_DelayPORXLCD 000A  
                    _OpenXLCD 2704                      __Hrparam 0000                      __Lrparam 0000  
                ??_readAnalog 000C                     itoa@count 0016                     itoa@value 0012  
            __size_of___fladd 04C0              __size_of___fldiv 039A              __size_of___awdiv 00C4  
            __size_of___flneg 0038              __size_of___awmod 00B0              __size_of___flmul 042A  
            __size_of___flsub 0046              __size_of___fltol 0106              __size_of___llmod 0088  
            _displayStuff$791 0013              __size_of_gasRead 00BE                      ___xxtofl 20E2  
            __size_of_readKey 01F8                      __ptext10 2A32                      __ptext11 2D4E  
                    __ptext20 2AF0                      __ptext12 18A0                      __ptext21 27F2  
                    __ptext13 1C3A                      __ptext30 3020                      __ptext22 2BA0  
                    __ptext14 20E2                      __ptext31 3032                      __ptext23 2F14  
                    __ptext15 24FA                      __ptext32 2E8E                      __ptext24 2600  
                    __ptext16 2E02                      __ptext33 305A                      __ptext25 3042  
                    __ptext17 0FB6                      __ptext34 300C                      __ptext26 2E48  
                    __ptext18 2F90                      __ptext35 2FEE                      __ptext27 2704  
                    __ptext19 1476                      __ptext36 304E                      __ptext28 2F52  
                    __ptext37 306E                      __ptext29 2ED4                      __ptext39 2CC6  
        __end_of_WriteCmdXLCD 2F90            __end_of_readAnalog 2DBC                      _keyState 00B8  
          buzzer@buzzerStatus 000A                 __size_of_main 06EE                 __size_of_itoa 0140  
                    _humidade 2974       __size_of_setCoolerSpeed 0002                      _setMoist 306A  
                    _tempRead 28B6        floatToString@precision 0037                      isa$xinst 000000  
           floatToString@temp 0070                      int$flags 0055              setMoist@moistSet 000A  
       main@lastDisplayUpdate 009A                    _INTCONbits 000FF2                _configureTimer 3042  
                    itoa@temp 0018               main@pressed_key 00B5                      millis@ms 000E  
             displayStuff@row 000B                      intlevel2 0000        __size_of_floatToString 02B0  
           _readTwoDigitValue 23D6            ?_readTwoDigitValue 0029         __end_of_DelayFor18TCY 3064  
         ??_readTwoDigitValue 002B        __end_of_configureTimer 304E          floatToString@intPart 006E  
        __end_of_DelayPORXLCD 3042        displayMenu@systemCycle 004E       readKey@lastKeyPressTime 00C3  
               ___fladd@signs 0016     __end_of_readTwoDigitValue 24FA                  ___fladd@aexp 0017  
                ___fladd@bexp 0018          setCoolerSpeed@PWMset 000A  
